; ModuleID = '.\toy.cpp'
source_filename = ".\\toy.cpp"
target datalayout = "e-m:w-p270:32:32-p271:32:32-p272:64:64-i64:64-f80:128-n8:16:32:64-S128"
target triple = "x86_64-w64-windows-gnu"

%"class.std::__cxx11::basic_string" = type { %"struct.std::__cxx11::basic_string<char>::_Alloc_hider", i64, %union.anon }
%"struct.std::__cxx11::basic_string<char>::_Alloc_hider" = type { i8* }
%union.anon = type { i64, [8 x i8] }
%"class.std::map" = type { %"class.std::_Rb_tree" }
%"class.std::_Rb_tree" = type { %"struct.std::_Rb_tree<char, std::pair<const char, int>, std::_Select1st<std::pair<const char, int>>, std::less<char>>::_Rb_tree_impl" }
%"struct.std::_Rb_tree<char, std::pair<const char, int>, std::_Select1st<std::pair<const char, int>>, std::less<char>>::_Rb_tree_impl" = type { %"struct.std::_Rb_tree_key_compare", %"struct.std::_Rb_tree_header" }
%"struct.std::_Rb_tree_key_compare" = type { %"struct.std::less" }
%"struct.std::less" = type { i8 }
%"struct.std::_Rb_tree_header" = type { %"struct.std::_Rb_tree_node_base", i64 }
%"struct.std::_Rb_tree_node_base" = type { i32, %"struct.std::_Rb_tree_node_base"*, %"struct.std::_Rb_tree_node_base"*, %"struct.std::_Rb_tree_node_base"* }
%"class.llvm::LLVMContext" = type { %"class.llvm::LLVMContextImpl"* }
%"class.llvm::LLVMContextImpl" = type opaque
%"class.llvm::Module" = type { %"class.llvm::LLVMContext"*, %"class.llvm::SymbolTableList", %"class.llvm::SymbolTableList.5", %"class.llvm::SymbolTableList.13", %"class.llvm::SymbolTableList.21", %"class.llvm::iplist", %"class.std::__cxx11::basic_string", %"class.std::unique_ptr.35", %"class.llvm::StringMap", %"class.std::unique_ptr.43", %"class.std::unique_ptr.51", %"class.std::__cxx11::basic_string", %"class.std::__cxx11::basic_string", %"class.std::__cxx11::basic_string", %"class.llvm::StringMap.59", %"class.llvm::DataLayout", %"class.llvm::StringMap.78", %"class.llvm::DenseMap" }
%"class.llvm::SymbolTableList" = type { %"class.llvm::iplist_impl" }
%"class.llvm::iplist_impl" = type { %"class.llvm::simple_ilist" }
%"class.llvm::simple_ilist" = type { %"class.llvm::ilist_sentinel" }
%"class.llvm::ilist_sentinel" = type { %"class.llvm::ilist_node_impl" }
%"class.llvm::ilist_node_impl" = type { %"class.llvm::ilist_node_base" }
%"class.llvm::ilist_node_base" = type { %"class.llvm::ilist_node_base"*, %"class.llvm::ilist_node_base"* }
%"class.llvm::SymbolTableList.5" = type { %"class.llvm::iplist_impl.6" }
%"class.llvm::iplist_impl.6" = type { %"class.llvm::simple_ilist.9" }
%"class.llvm::simple_ilist.9" = type { %"class.llvm::ilist_sentinel.11" }
%"class.llvm::ilist_sentinel.11" = type { %"class.llvm::ilist_node_impl.12" }
%"class.llvm::ilist_node_impl.12" = type { %"class.llvm::ilist_node_base" }
%"class.llvm::SymbolTableList.13" = type { %"class.llvm::iplist_impl.14" }
%"class.llvm::iplist_impl.14" = type { %"class.llvm::simple_ilist.17" }
%"class.llvm::simple_ilist.17" = type { %"class.llvm::ilist_sentinel.19" }
%"class.llvm::ilist_sentinel.19" = type { %"class.llvm::ilist_node_impl.20" }
%"class.llvm::ilist_node_impl.20" = type { %"class.llvm::ilist_node_base" }
%"class.llvm::SymbolTableList.21" = type { %"class.llvm::iplist_impl.22" }
%"class.llvm::iplist_impl.22" = type { %"class.llvm::simple_ilist.25" }
%"class.llvm::simple_ilist.25" = type { %"class.llvm::ilist_sentinel.27" }
%"class.llvm::ilist_sentinel.27" = type { %"class.llvm::ilist_node_impl.28" }
%"class.llvm::ilist_node_impl.28" = type { %"class.llvm::ilist_node_base" }
%"class.llvm::iplist" = type { %"class.llvm::iplist_impl.29" }
%"class.llvm::iplist_impl.29" = type { %"class.llvm::simple_ilist.31" }
%"class.llvm::simple_ilist.31" = type { %"class.llvm::ilist_sentinel.33" }
%"class.llvm::ilist_sentinel.33" = type { %"class.llvm::ilist_node_impl.34" }
%"class.llvm::ilist_node_impl.34" = type { %"class.llvm::ilist_node_base" }
%"class.std::unique_ptr.35" = type { %"struct.std::__uniq_ptr_data.36" }
%"struct.std::__uniq_ptr_data.36" = type { %"class.std::__uniq_ptr_impl.37" }
%"class.std::__uniq_ptr_impl.37" = type { %"class.std::tuple.38" }
%"class.std::tuple.38" = type { %"struct.std::_Tuple_impl.39" }
%"struct.std::_Tuple_impl.39" = type { %"struct.std::_Head_base.42" }
%"struct.std::_Head_base.42" = type { %"class.llvm::ValueSymbolTable"* }
%"class.llvm::ValueSymbolTable" = type opaque
%"class.llvm::StringMap" = type <{ %"class.llvm::StringMapImpl", %"class.llvm::MallocAllocator", [7 x i8] }>
%"class.llvm::StringMapImpl" = type { %"class.llvm::StringMapEntryBase"**, i32, i32, i32, i32 }
%"class.llvm::StringMapEntryBase" = type { i64 }
%"class.llvm::MallocAllocator" = type { i8 }
%"class.std::unique_ptr.43" = type { %"struct.std::__uniq_ptr_data.44" }
%"struct.std::__uniq_ptr_data.44" = type { %"class.std::__uniq_ptr_impl.45" }
%"class.std::__uniq_ptr_impl.45" = type { %"class.std::tuple.46" }
%"class.std::tuple.46" = type { %"struct.std::_Tuple_impl.47" }
%"struct.std::_Tuple_impl.47" = type { %"struct.std::_Head_base.50" }
%"struct.std::_Head_base.50" = type { %"class.llvm::MemoryBuffer"* }
%"class.llvm::MemoryBuffer" = type opaque
%"class.std::unique_ptr.51" = type { %"struct.std::__uniq_ptr_data.52" }
%"struct.std::__uniq_ptr_data.52" = type { %"class.std::__uniq_ptr_impl.53" }
%"class.std::__uniq_ptr_impl.53" = type { %"class.std::tuple.54" }
%"class.std::tuple.54" = type { %"struct.std::_Tuple_impl.55" }
%"struct.std::_Tuple_impl.55" = type { %"struct.std::_Head_base.58" }
%"struct.std::_Head_base.58" = type { %"class.llvm::GVMaterializer"* }
%"class.llvm::GVMaterializer" = type opaque
%"class.llvm::StringMap.59" = type <{ %"class.llvm::StringMapImpl", %"class.llvm::MallocAllocator", [7 x i8] }>
%"class.llvm::DataLayout" = type { i8, i32, %"struct.llvm::MaybeAlign", i32, i32, %"struct.llvm::MaybeAlign", i32, i32, %"class.llvm::SmallVector", %"class.llvm::SmallVector.62", %"class.std::__cxx11::basic_string", %"class.llvm::SmallVector.68", i8*, %"class.llvm::SmallVector.73" }
%"struct.llvm::MaybeAlign" = type { %"class.llvm::Optional" }
%"class.llvm::Optional" = type { %"class.llvm::optional_detail::OptionalStorage" }
%"class.llvm::optional_detail::OptionalStorage" = type { %union.anon.61, i8 }
%union.anon.61 = type { i8 }
%"class.llvm::SmallVector" = type { %"class.llvm::SmallVectorImpl", %"struct.llvm::SmallVectorStorage" }
%"class.llvm::SmallVectorImpl" = type { %"class.llvm::SmallVectorTemplateBase" }
%"class.llvm::SmallVectorTemplateBase" = type { %"class.llvm::SmallVectorTemplateCommon" }
%"class.llvm::SmallVectorTemplateCommon" = type { %"class.llvm::SmallVectorBase" }
%"class.llvm::SmallVectorBase" = type { i8*, i64, i64 }
%"struct.llvm::SmallVectorStorage" = type { [8 x i8] }
%"class.llvm::SmallVector.62" = type { %"class.llvm::SmallVectorImpl.63", %"struct.llvm::SmallVectorStorage.67" }
%"class.llvm::SmallVectorImpl.63" = type { %"class.llvm::SmallVectorTemplateBase.64" }
%"class.llvm::SmallVectorTemplateBase.64" = type { %"class.llvm::SmallVectorTemplateCommon.65" }
%"class.llvm::SmallVectorTemplateCommon.65" = type { %"class.llvm::SmallVectorBase.66" }
%"class.llvm::SmallVectorBase.66" = type { i8*, i32, i32 }
%"struct.llvm::SmallVectorStorage.67" = type { [128 x i8] }
%"class.llvm::SmallVector.68" = type { %"class.llvm::SmallVectorImpl.69", %"struct.llvm::SmallVectorStorage.72" }
%"class.llvm::SmallVectorImpl.69" = type { %"class.llvm::SmallVectorTemplateBase.70" }
%"class.llvm::SmallVectorTemplateBase.70" = type { %"class.llvm::SmallVectorTemplateCommon.71" }
%"class.llvm::SmallVectorTemplateCommon.71" = type { %"class.llvm::SmallVectorBase.66" }
%"struct.llvm::SmallVectorStorage.72" = type { [128 x i8] }
%"class.llvm::SmallVector.73" = type { %"class.llvm::SmallVectorImpl.74", %"struct.llvm::SmallVectorStorage.77" }
%"class.llvm::SmallVectorImpl.74" = type { %"class.llvm::SmallVectorTemplateBase.75" }
%"class.llvm::SmallVectorTemplateBase.75" = type { %"class.llvm::SmallVectorTemplateCommon.76" }
%"class.llvm::SmallVectorTemplateCommon.76" = type { %"class.llvm::SmallVectorBase.66" }
%"struct.llvm::SmallVectorStorage.77" = type { [32 x i8] }
%"class.llvm::StringMap.78" = type <{ %"class.llvm::StringMapImpl", %"class.llvm::MallocAllocator", [7 x i8] }>
%"class.llvm::DenseMap" = type <{ %"struct.llvm::detail::DenseMapPair"*, i32, i32, i32, [4 x i8] }>
%"struct.llvm::detail::DenseMapPair" = type opaque
%"class.llvm::IRBuilder" = type { %"class.llvm::IRBuilderBase", %"class.llvm::ConstantFolder", %"class.llvm::IRBuilderDefaultInserter" }
%"class.llvm::IRBuilderBase" = type { %"class.llvm::SmallVector.136", %"class.llvm::BasicBlock"*, %"class.llvm::ilist_iterator", %"class.llvm::LLVMContext"*, %"class.llvm::IRBuilderFolder"*, %"class.llvm::IRBuilderDefaultInserter"*, %"class.llvm::MDNode"*, %"class.llvm::FastMathFlags", i8, i8, i8, %"class.llvm::ArrayRef" }
%"class.llvm::SmallVector.136" = type { %"class.llvm::SmallVectorImpl.137", %"struct.llvm::SmallVectorStorage.140" }
%"class.llvm::SmallVectorImpl.137" = type { %"class.llvm::SmallVectorTemplateBase.138" }
%"class.llvm::SmallVectorTemplateBase.138" = type { %"class.llvm::SmallVectorTemplateCommon.139" }
%"class.llvm::SmallVectorTemplateCommon.139" = type { %"class.llvm::SmallVectorBase.66" }
%"struct.llvm::SmallVectorStorage.140" = type { [32 x i8] }
%"class.llvm::BasicBlock" = type { %"class.llvm::Value", %"class.llvm::ilist_node_with_parent", %"class.llvm::SymbolTableList.142", %"class.llvm::Function"* }
%"class.llvm::Value" = type { %"class.llvm::Type"*, %"class.llvm::Use"*, i8, i8, i16, i32 }
%"class.llvm::Type" = type { %"class.llvm::LLVMContext"*, i32, i32, %"class.llvm::Type"** }
%"class.llvm::Use" = type { %"class.llvm::Value"*, %"class.llvm::Use"*, %"class.llvm::Use"**, %"class.llvm::User"* }
%"class.llvm::User" = type { %"class.llvm::Value" }
%"class.llvm::ilist_node_with_parent" = type { %"class.llvm::ilist_node.141" }
%"class.llvm::ilist_node.141" = type { %"class.llvm::ilist_node_impl.124" }
%"class.llvm::ilist_node_impl.124" = type { %"class.llvm::ilist_node_base" }
%"class.llvm::SymbolTableList.142" = type { %"class.llvm::iplist_impl.143" }
%"class.llvm::iplist_impl.143" = type { %"class.llvm::simple_ilist.146" }
%"class.llvm::simple_ilist.146" = type { %"class.llvm::ilist_sentinel.148" }
%"class.llvm::ilist_sentinel.148" = type { %"class.llvm::ilist_node_impl.149" }
%"class.llvm::ilist_node_impl.149" = type { %"class.llvm::ilist_node_base" }
%"class.llvm::Function" = type { %"class.llvm::GlobalObject", %"class.llvm::ilist_node", %"class.llvm::SymbolTableList.117", %"class.llvm::Argument"*, i64, %"class.std::unique_ptr.35", %"class.llvm::AttributeList" }
%"class.llvm::GlobalObject" = type { %"class.llvm::GlobalValue", %"class.llvm::Comdat"* }
%"class.llvm::GlobalValue" = type { %"class.llvm::Constant", %"class.llvm::Type"*, i32, i32, %"class.llvm::Module"* }
%"class.llvm::Constant" = type { %"class.llvm::User" }
%"class.llvm::Comdat" = type <{ %"class.llvm::StringMapEntry"*, i32, [4 x i8] }>
%"class.llvm::StringMapEntry" = type opaque
%"class.llvm::ilist_node" = type { %"class.llvm::ilist_node_impl.12" }
%"class.llvm::SymbolTableList.117" = type { %"class.llvm::iplist_impl.118" }
%"class.llvm::iplist_impl.118" = type { %"class.llvm::simple_ilist.121" }
%"class.llvm::simple_ilist.121" = type { %"class.llvm::ilist_sentinel.123" }
%"class.llvm::ilist_sentinel.123" = type { %"class.llvm::ilist_node_impl.124" }
%"class.llvm::Argument" = type <{ %"class.llvm::Value", %"class.llvm::Function"*, i32, [4 x i8] }>
%"class.llvm::AttributeList" = type { %"class.llvm::AttributeListImpl"* }
%"class.llvm::AttributeListImpl" = type opaque
%"class.llvm::ilist_iterator" = type { %"class.llvm::ilist_node_impl.149"* }
%"class.llvm::IRBuilderFolder" = type { i32 (...)** }
%"class.llvm::MDNode" = type { %"class.llvm::Metadata", i32, i32, %"class.llvm::ContextAndReplaceableUses" }
%"class.llvm::Metadata" = type { i8, i8, i16, i32 }
%"class.llvm::ContextAndReplaceableUses" = type { %"class.llvm::PointerUnion" }
%"class.llvm::PointerUnion" = type { %"class.llvm::pointer_union_detail::PointerUnionMembers" }
%"class.llvm::pointer_union_detail::PointerUnionMembers" = type { %"class.llvm::pointer_union_detail::PointerUnionMembers.150" }
%"class.llvm::pointer_union_detail::PointerUnionMembers.150" = type { %"class.llvm::pointer_union_detail::PointerUnionMembers.151" }
%"class.llvm::pointer_union_detail::PointerUnionMembers.151" = type { %"class.llvm::PointerIntPair" }
%"class.llvm::PointerIntPair" = type { i64 }
%"class.llvm::FastMathFlags" = type { i32 }
%"class.llvm::ArrayRef" = type { %"class.llvm::OperandBundleDefT"*, i64 }
%"class.llvm::OperandBundleDefT" = type { %"class.std::__cxx11::basic_string", %"class.std::vector.152" }
%"class.std::vector.152" = type { %"struct.std::_Vector_base.153" }
%"struct.std::_Vector_base.153" = type { %"struct.std::_Vector_base<llvm::Value *, std::allocator<llvm::Value *>>::_Vector_impl" }
%"struct.std::_Vector_base<llvm::Value *, std::allocator<llvm::Value *>>::_Vector_impl" = type { %"struct.std::_Vector_base<llvm::Value *, std::allocator<llvm::Value *>>::_Vector_impl_data" }
%"struct.std::_Vector_base<llvm::Value *, std::allocator<llvm::Value *>>::_Vector_impl_data" = type { %"class.llvm::Value"**, %"class.llvm::Value"**, %"class.llvm::Value"** }
%"class.llvm::ConstantFolder" = type { %"class.llvm::IRBuilderFolder" }
%"class.llvm::IRBuilderDefaultInserter" = type { i32 (...)** }
%"class.std::map.96" = type { %"class.std::_Rb_tree.97" }
%"class.std::_Rb_tree.97" = type { %"struct.std::_Rb_tree<std::__cxx11::basic_string<char>, std::pair<const std::__cxx11::basic_string<char>, llvm::AllocaInst *>, std::_Select1st<std::pair<const std::__cxx11::basic_string<char>, llvm::AllocaInst *>>, std::less<std::__cxx11::basic_string<char>>>::_Rb_tree_impl" }
%"struct.std::_Rb_tree<std::__cxx11::basic_string<char>, std::pair<const std::__cxx11::basic_string<char>, llvm::AllocaInst *>, std::_Select1st<std::pair<const std::__cxx11::basic_string<char>, llvm::AllocaInst *>>, std::less<std::__cxx11::basic_string<char>>>::_Rb_tree_impl" = type { %"struct.std::_Rb_tree_key_compare.101", %"struct.std::_Rb_tree_header" }
%"struct.std::_Rb_tree_key_compare.101" = type { %"struct.std::less.102" }
%"struct.std::less.102" = type { i8 }
%"class.std::map.104" = type { %"class.std::_Rb_tree.105" }
%"class.std::_Rb_tree.105" = type { %"struct.std::_Rb_tree<std::__cxx11::basic_string<char>, std::pair<const std::__cxx11::basic_string<char>, std::unique_ptr<(anonymous namespace)::PrototypeAST>>, std::_Select1st<std::pair<const std::__cxx11::basic_string<char>, std::unique_ptr<(anonymous namespace)::PrototypeAST>>>, std::less<std::__cxx11::basic_string<char>>>::_Rb_tree_impl" }
%"struct.std::_Rb_tree<std::__cxx11::basic_string<char>, std::pair<const std::__cxx11::basic_string<char>, std::unique_ptr<(anonymous namespace)::PrototypeAST>>, std::_Select1st<std::pair<const std::__cxx11::basic_string<char>, std::unique_ptr<(anonymous namespace)::PrototypeAST>>>, std::less<std::__cxx11::basic_string<char>>>::_Rb_tree_impl" = type { %"struct.std::_Rb_tree_key_compare.101", %"struct.std::_Rb_tree_header" }
%"class.llvm::ExitOnError" = type { %"class.std::__cxx11::basic_string", %"class.std::function" }
%"class.std::function" = type { %"class.std::_Function_base", i32 (%"union.std::_Any_data"*, %"class.llvm::Error"*)* }
%"class.std::_Function_base" = type { %"union.std::_Any_data", i1 (%"union.std::_Any_data"*, %"union.std::_Any_data"*, i32)* }
%"union.std::_Any_data" = type { %"union.std::_Nocopy_types" }
%"union.std::_Nocopy_types" = type { { i64, i64 } }
%"class.llvm::Error" = type { %"class.llvm::ErrorInfoBase"* }
%"class.llvm::ErrorInfoBase" = type { i32 (...)** }
%"struct.std::piecewise_construct_t" = type { i8 }
%"struct.llvm::in_place_t" = type { i8 }
%"class.std::unique_ptr" = type { %"struct.std::__uniq_ptr_data" }
%"struct.std::__uniq_ptr_data" = type { %"class.std::__uniq_ptr_impl" }
%"class.std::__uniq_ptr_impl" = type { %"class.std::tuple" }
%"class.std::tuple" = type { %"struct.std::_Tuple_impl" }
%"struct.std::_Tuple_impl" = type { %"struct.std::_Head_base.4" }
%"struct.std::_Head_base.4" = type { %"class.llvm::LLVMContext"* }
%"struct.std::default_delete.271" = type { i8 }
%"class.std::unique_ptr.87" = type { %"struct.std::__uniq_ptr_data.85" }
%"struct.std::__uniq_ptr_data.85" = type { %"class.std::__uniq_ptr_impl.86" }
%"class.std::__uniq_ptr_impl.86" = type { %"class.std::tuple.80" }
%"class.std::tuple.80" = type { %"struct.std::_Tuple_impl.81" }
%"struct.std::_Tuple_impl.81" = type { %"struct.std::_Head_base.84" }
%"struct.std::_Head_base.84" = type { %"class.llvm::Module"* }
%"struct.std::default_delete.273" = type { i8 }
%"class.std::unique_ptr.95" = type { %"struct.std::__uniq_ptr_data.93" }
%"struct.std::__uniq_ptr_data.93" = type { %"class.std::__uniq_ptr_impl.94" }
%"class.std::__uniq_ptr_impl.94" = type { %"class.std::tuple.88" }
%"class.std::tuple.88" = type { %"struct.std::_Tuple_impl.89" }
%"struct.std::_Tuple_impl.89" = type { %"struct.std::_Head_base.92" }
%"struct.std::_Head_base.92" = type { %"class.llvm::IRBuilder"* }
%"struct.std::default_delete.278" = type { i8 }
%"class.std::allocator" = type { i8 }
%class.anon = type { i32 }
%"class.std::unique_ptr.109" = type { %"struct.std::__uniq_ptr_data.110" }
%"struct.std::__uniq_ptr_data.110" = type { %"class.std::__uniq_ptr_impl.111" }
%"class.std::__uniq_ptr_impl.111" = type { %"class.std::tuple.112" }
%"class.std::tuple.112" = type { %"struct.std::_Tuple_impl.113" }
%"struct.std::_Tuple_impl.113" = type { %"struct.std::_Head_base.116" }
%"struct.std::_Head_base.116" = type { %"class.(anonymous namespace)::ExprAST"* }
%"class.(anonymous namespace)::ExprAST" = type { i32 (...)** }
%struct._iobuf = type { i8*, i32, i8*, i32, i32, i32, i32, i8* }
%"struct.std::default_delete.263" = type { i8 }
%"class.llvm::StringRef" = type { i8*, i64 }
%"struct.std::_Rb_tree_iterator" = type { %"struct.std::_Rb_tree_node_base"* }
%"struct.std::pair" = type { %"class.std::__cxx11::basic_string", %"class.std::unique_ptr.125" }
%"class.std::unique_ptr.125" = type { %"struct.std::__uniq_ptr_data.126" }
%"struct.std::__uniq_ptr_data.126" = type { %"class.std::__uniq_ptr_impl.127" }
%"class.std::__uniq_ptr_impl.127" = type { %"class.std::tuple.128" }
%"class.std::tuple.128" = type { %"struct.std::_Tuple_impl.129" }
%"struct.std::_Tuple_impl.129" = type { %"struct.std::_Head_base.132" }
%"struct.std::_Head_base.132" = type { %"class.(anonymous namespace)::PrototypeAST"* }
%"class.(anonymous namespace)::PrototypeAST" = type { %"class.std::__cxx11::basic_string", %"class.std::vector", i8, i32 }
%"class.std::vector" = type { %"struct.std::_Vector_base" }
%"struct.std::_Vector_base" = type { %"struct.std::_Vector_base<std::__cxx11::basic_string<char>, std::allocator<std::__cxx11::basic_string<char>>>::_Vector_impl" }
%"struct.std::_Vector_base<std::__cxx11::basic_string<char>, std::allocator<std::__cxx11::basic_string<char>>>::_Vector_impl" = type { %"struct.std::_Vector_base<std::__cxx11::basic_string<char>, std::allocator<std::__cxx11::basic_string<char>>>::_Vector_impl_data" }
%"struct.std::_Vector_base<std::__cxx11::basic_string<char>, std::allocator<std::__cxx11::basic_string<char>>>::_Vector_impl_data" = type { %"class.std::__cxx11::basic_string"*, %"class.std::__cxx11::basic_string"*, %"class.std::__cxx11::basic_string"* }
%"struct.std::_Rb_tree_node.261" = type { %"struct.std::_Rb_tree_node_base", %"struct.__gnu_cxx::__aligned_membuf.262" }
%"struct.__gnu_cxx::__aligned_membuf.262" = type { [40 x i8] }
%"class.std::vector.265" = type { %"struct.std::_Vector_base.266" }
%"struct.std::_Vector_base.266" = type { %"struct.std::_Vector_base<llvm::Type *, std::allocator<llvm::Type *>>::_Vector_impl" }
%"struct.std::_Vector_base<llvm::Type *, std::allocator<llvm::Type *>>::_Vector_impl" = type { %"struct.std::_Vector_base<llvm::Type *, std::allocator<llvm::Type *>>::_Vector_impl_data" }
%"struct.std::_Vector_base<llvm::Type *, std::allocator<llvm::Type *>>::_Vector_impl_data" = type { %"class.llvm::Type"**, %"class.llvm::Type"**, %"class.llvm::Type"** }
%"class.std::allocator.267" = type { i8 }
%"class.llvm::FunctionType" = type { %"class.llvm::Type" }
%"class.llvm::ArrayRef.270" = type { %"class.llvm::Type"**, i64 }
%"class.llvm::Twine" = type <{ %"union.llvm::Twine::Child", %"union.llvm::Twine::Child", i8, i8, [6 x i8] }>
%"union.llvm::Twine::Child" = type { %struct.anon }
%struct.anon = type { i8*, i64 }
%"class.llvm::iterator_range" = type { %"class.llvm::Argument"*, %"class.llvm::Argument"* }
%"class.llvm::Target" = type { %"class.llvm::Target"*, i1 (i32)*, i8*, i8*, i8*, i8, %"class.llvm::MCAsmInfo"* (%"class.llvm::MCRegisterInfo"*, %"class.llvm::Triple"*, %"class.llvm::MCTargetOptions"*)*, %"class.llvm::MCObjectFileInfo"* (%"class.llvm::MCContext"*, i1, i1)*, %"class.llvm::MCInstrInfo"* ()*, %"class.llvm::MCInstrAnalysis"* (%"class.llvm::MCInstrInfo"*)*, %"class.llvm::MCRegisterInfo"* (%"class.llvm::Triple"*)*, %"class.llvm::MCSubtargetInfo"* (%"class.llvm::Triple"*, %"class.llvm::StringRef"*, %"class.llvm::StringRef"*)*, %"class.llvm::TargetMachine"* (%"class.llvm::Target"*, %"class.llvm::Triple"*, %"class.llvm::StringRef"*, %"class.llvm::StringRef"*, %"class.llvm::TargetOptions"*, i64, i64, i32, i1)*, %"class.llvm::MCAsmBackend"* (%"class.llvm::Target"*, %"class.llvm::MCSubtargetInfo"*, %"class.llvm::MCRegisterInfo"*, %"class.llvm::MCTargetOptions"*)*, %"class.llvm::MCTargetAsmParser"* (%"class.llvm::MCSubtargetInfo"*, %"class.llvm::MCAsmParser"*, %"class.llvm::MCInstrInfo"*, %"class.llvm::MCTargetOptions"*)*, %"class.llvm::AsmPrinter"* (%"class.llvm::TargetMachine"*, %"class.std::unique_ptr.193"*)*, %"class.llvm::MCDisassembler"* (%"class.llvm::Target"*, %"class.llvm::MCSubtargetInfo"*, %"class.llvm::MCContext"*)*, %"class.llvm::MCInstPrinter"* (%"class.llvm::Triple"*, i32, %"class.llvm::MCAsmInfo"*, %"class.llvm::MCInstrInfo"*, %"class.llvm::MCRegisterInfo"*)*, %"class.llvm::MCCodeEmitter"* (%"class.llvm::MCInstrInfo"*, %"class.llvm::MCRegisterInfo"*, %"class.llvm::MCContext"*)*, %"class.llvm::MCStreamer"* (%"class.llvm::MCContext"*, %"class.std::unique_ptr.201"*, %"class.std::unique_ptr.209"*, %"class.std::unique_ptr.217"*, i1, i1)*, %"class.llvm::MCStreamer"* (%"class.llvm::MCContext"*, %"class.std::unique_ptr.201"*, %"class.std::unique_ptr.209"*, %"class.std::unique_ptr.217"*, i1, i1)*, %"class.llvm::MCStreamer"* (%"class.llvm::Triple"*, %"class.llvm::MCContext"*, %"class.std::unique_ptr.201"*, %"class.std::unique_ptr.209"*, %"class.std::unique_ptr.217"*, i1)*, %"class.llvm::MCStreamer"* (%"class.llvm::Triple"*, %"class.llvm::MCContext"*, %"class.std::unique_ptr.201"*, %"class.std::unique_ptr.209"*, %"class.std::unique_ptr.217"*, i1)*, %"class.llvm::MCStreamer"* (%"class.llvm::Triple"*, %"class.llvm::MCContext"*, %"class.std::unique_ptr.201"*, %"class.std::unique_ptr.209"*, %"class.std::unique_ptr.217"*, i1)*, %"class.llvm::MCTargetStreamer"* (%"class.llvm::MCStreamer"*)*, %"class.llvm::MCTargetStreamer"* (%"class.llvm::MCStreamer"*, %"class.llvm::formatted_raw_ostream"*, %"class.llvm::MCInstPrinter"*, i1)*, %"class.llvm::MCTargetStreamer"* (%"class.llvm::MCStreamer"*, %"class.llvm::MCSubtargetInfo"*)*, %"class.llvm::MCRelocationInfo"* (%"class.llvm::Triple"*, %"class.llvm::MCContext"*)*, %"class.llvm::MCSymbolizer"* (%"class.llvm::Triple"*, i32 (i8*, i64, i64, i64, i32, i8*)*, i8* (i8*, i64, i64*, i64, i8**)*, i8*, %"class.llvm::MCContext"*, %"class.std::unique_ptr.233"*)* }
%"class.llvm::MCAsmInfo" = type opaque
%"class.llvm::MCRegisterInfo" = type opaque
%"class.llvm::Triple" = type { %"class.std::__cxx11::basic_string", i32, i32, i32, i32, i32, i32 }
%"class.llvm::MCTargetOptions" = type { i8, i8, i32, %"class.std::__cxx11::basic_string", %"class.std::__cxx11::basic_string", %"class.std::__cxx11::basic_string", i8*, %"class.llvm::ArrayRef.157", %"class.std::vector" }
%"class.llvm::ArrayRef.157" = type { i8**, i64 }
%"class.llvm::MCObjectFileInfo" = type { i8, i8, i8, i8, i32, i32, %"class.llvm::MCSection"*, %"class.llvm::MCSection"*, %"class.llvm::MCSection"*, %"class.llvm::MCSection"*, %"class.llvm::MCSection"*, %"class.llvm::MCSection"*, %"class.llvm::MCSection"*, %"class.llvm::MCSection"*, %"class.llvm::MCSection"*, %"class.llvm::MCSection"*, %"class.llvm::MCSection"*, %"class.llvm::MCSection"*, %"class.llvm::MCSection"*, %"class.llvm::MCSection"*, %"class.llvm::MCSection"*, %"class.llvm::MCSection"*, %"class.llvm::MCSection"*, %"class.llvm::MCSection"*, %"class.llvm::MCSection"*, %"class.llvm::MCSection"*, %"class.llvm::MCSection"*, %"class.llvm::MCSection"*, %"class.llvm::MCSection"*, %"class.llvm::MCSection"*, %"class.llvm::MCSection"*, %"class.llvm::MCSection"*, %"class.llvm::MCSection"*, %"class.llvm::MCSection"*, %"class.llvm::MCSection"*, %"class.llvm::MCSection"*, %"class.llvm::MCSection"*, %"class.llvm::MCSection"*, %"class.llvm::MCSection"*, %"class.llvm::MCSection"*, %"class.llvm::MCSection"*, %"class.llvm::MCSection"*, %"class.llvm::MCSection"*, %"class.llvm::MCSection"*, %"class.llvm::MCSection"*, %"class.llvm::MCSection"*, %"class.llvm::MCSection"*, %"class.llvm::MCSection"*, %"class.llvm::MCSection"*, %"class.llvm::MCSection"*, %"class.llvm::MCSection"*, %"class.llvm::MCSection"*, %"class.llvm::MCSection"*, %"class.llvm::MCSection"*, %"class.llvm::MCSection"*, %"class.llvm::MCSection"*, %"class.llvm::MCSection"*, %"class.llvm::MCSection"*, %"class.llvm::MCSection"*, %"class.llvm::MCSection"*, %"class.llvm::MCSection"*, %"class.llvm::MCSection"*, %"class.llvm::MCSection"*, %"class.llvm::MCSection"*, %"class.llvm::MCSection"*, %"class.llvm::MCSection"*, %"class.llvm::MCSection"*, %"class.llvm::MCSection"*, %"class.llvm::MCSection"*, %"class.llvm::MCSection"*, %"class.llvm::MCSection"*, %"class.llvm::MCSection"*, %"class.llvm::MCSection"*, %"class.llvm::MCSection"*, %"class.llvm::MCSection"*, %"class.llvm::MCSection"*, %"class.llvm::MCSection"*, %"class.llvm::MCSection"*, %"class.llvm::MCSection"*, %"class.llvm::MCSection"*, %"class.llvm::MCSection"*, %"class.llvm::MCSection"*, %"class.llvm::MCSection"*, %"class.llvm::MCSection"*, %"class.llvm::MCSection"*, %"class.llvm::MCSection"*, %"class.llvm::MCSection"*, %"class.llvm::MCSection"*, %"class.llvm::MCSection"*, %"class.llvm::MCSection"*, %"class.llvm::MCSection"*, %"class.llvm::MCSection"*, %"class.llvm::MCSection"*, %"class.llvm::MCSection"*, %"class.llvm::MCSection"*, i8, %"class.llvm::MCContext"*, %"class.llvm::VersionTuple" }
%"class.llvm::MCSection" = type opaque
%"class.llvm::VersionTuple" = type { i32, i32, i32, i32 }
%"class.llvm::MCContext" = type opaque
%"class.llvm::MCInstrInfo" = type opaque
%"class.llvm::MCInstrAnalysis" = type opaque
%"class.llvm::MCSubtargetInfo" = type opaque
%"class.llvm::TargetMachine" = type { i32 (...)**, %"class.llvm::Target"*, %"class.llvm::DataLayout", %"class.llvm::Triple", %"class.std::__cxx11::basic_string", %"class.std::__cxx11::basic_string", i32, i32, i32, %"class.std::unique_ptr.158", %"class.std::unique_ptr.166", %"class.std::unique_ptr.174", %"class.std::unique_ptr.182", i32, %"class.llvm::TargetOptions", %"class.llvm::TargetOptions" }
%"class.std::unique_ptr.158" = type { %"struct.std::__uniq_ptr_data.159" }
%"struct.std::__uniq_ptr_data.159" = type { %"class.std::__uniq_ptr_impl.160" }
%"class.std::__uniq_ptr_impl.160" = type { %"class.std::tuple.161" }
%"class.std::tuple.161" = type { %"struct.std::_Tuple_impl.162" }
%"struct.std::_Tuple_impl.162" = type { %"struct.std::_Head_base.165" }
%"struct.std::_Head_base.165" = type { %"class.llvm::MCAsmInfo"* }
%"class.std::unique_ptr.166" = type { %"struct.std::__uniq_ptr_data.167" }
%"struct.std::__uniq_ptr_data.167" = type { %"class.std::__uniq_ptr_impl.168" }
%"class.std::__uniq_ptr_impl.168" = type { %"class.std::tuple.169" }
%"class.std::tuple.169" = type { %"struct.std::_Tuple_impl.170" }
%"struct.std::_Tuple_impl.170" = type { %"struct.std::_Head_base.173" }
%"struct.std::_Head_base.173" = type { %"class.llvm::MCRegisterInfo"* }
%"class.std::unique_ptr.174" = type { %"struct.std::__uniq_ptr_data.175" }
%"struct.std::__uniq_ptr_data.175" = type { %"class.std::__uniq_ptr_impl.176" }
%"class.std::__uniq_ptr_impl.176" = type { %"class.std::tuple.177" }
%"class.std::tuple.177" = type { %"struct.std::_Tuple_impl.178" }
%"struct.std::_Tuple_impl.178" = type { %"struct.std::_Head_base.181" }
%"struct.std::_Head_base.181" = type { %"class.llvm::MCInstrInfo"* }
%"class.std::unique_ptr.182" = type { %"struct.std::__uniq_ptr_data.183" }
%"struct.std::__uniq_ptr_data.183" = type { %"class.std::__uniq_ptr_impl.184" }
%"class.std::__uniq_ptr_impl.184" = type { %"class.std::tuple.185" }
%"class.std::tuple.185" = type { %"struct.std::_Tuple_impl.186" }
%"struct.std::_Tuple_impl.186" = type { %"struct.std::_Head_base.189" }
%"struct.std::_Head_base.189" = type { %"class.llvm::MCSubtargetInfo"* }
%"class.llvm::TargetOptions" = type { %"struct.std::pair.190", i32, i32, i32, i32, i32, i32, %"class.std::shared_ptr", i32, %"class.std::__cxx11::basic_string", i32, i32, i32, i32, i32, %"struct.llvm::DenormalMode", %"struct.llvm::DenormalMode", i32, %"class.llvm::MCTargetOptions" }
%"struct.std::pair.190" = type { i32, i32 }
%"class.std::shared_ptr" = type { %"class.std::__shared_ptr" }
%"class.std::__shared_ptr" = type { %"class.llvm::MemoryBuffer"*, %"class.std::__shared_count" }
%"class.std::__shared_count" = type { %"class.std::_Sp_counted_base"* }
%"class.std::_Sp_counted_base" = type { i32 (...)**, i32, i32 }
%"struct.llvm::DenormalMode" = type { i8, i8 }
%"class.llvm::MCAsmBackend" = type opaque
%"class.llvm::MCTargetAsmParser" = type opaque
%"class.llvm::MCAsmParser" = type opaque
%"class.llvm::AsmPrinter" = type opaque
%"class.std::unique_ptr.193" = type { %"struct.std::__uniq_ptr_data.194" }
%"struct.std::__uniq_ptr_data.194" = type { %"class.std::__uniq_ptr_impl.195" }
%"class.std::__uniq_ptr_impl.195" = type { %"class.std::tuple.196" }
%"class.std::tuple.196" = type { %"struct.std::_Tuple_impl.197" }
%"struct.std::_Tuple_impl.197" = type { %"struct.std::_Head_base.200" }
%"struct.std::_Head_base.200" = type { %"class.llvm::MCStreamer"* }
%"class.llvm::MCStreamer" = type opaque
%"class.llvm::MCDisassembler" = type opaque
%"class.llvm::MCInstPrinter" = type opaque
%"class.llvm::MCCodeEmitter" = type opaque
%"class.std::unique_ptr.201" = type { %"struct.std::__uniq_ptr_data.202" }
%"struct.std::__uniq_ptr_data.202" = type { %"class.std::__uniq_ptr_impl.203" }
%"class.std::__uniq_ptr_impl.203" = type { %"class.std::tuple.204" }
%"class.std::tuple.204" = type { %"struct.std::_Tuple_impl.205" }
%"struct.std::_Tuple_impl.205" = type { %"struct.std::_Head_base.208" }
%"struct.std::_Head_base.208" = type { %"class.llvm::MCAsmBackend"* }
%"class.std::unique_ptr.209" = type { %"struct.std::__uniq_ptr_data.210" }
%"struct.std::__uniq_ptr_data.210" = type { %"class.std::__uniq_ptr_impl.211" }
%"class.std::__uniq_ptr_impl.211" = type { %"class.std::tuple.212" }
%"class.std::tuple.212" = type { %"struct.std::_Tuple_impl.213" }
%"struct.std::_Tuple_impl.213" = type { %"struct.std::_Head_base.216" }
%"struct.std::_Head_base.216" = type { %"class.llvm::MCObjectWriter"* }
%"class.llvm::MCObjectWriter" = type opaque
%"class.std::unique_ptr.217" = type { %"struct.std::__uniq_ptr_data.218" }
%"struct.std::__uniq_ptr_data.218" = type { %"class.std::__uniq_ptr_impl.219" }
%"class.std::__uniq_ptr_impl.219" = type { %"class.std::tuple.220" }
%"class.std::tuple.220" = type { %"struct.std::_Tuple_impl.221" }
%"struct.std::_Tuple_impl.221" = type { %"struct.std::_Head_base.224" }
%"struct.std::_Head_base.224" = type { %"class.llvm::MCCodeEmitter"* }
%"class.llvm::MCTargetStreamer" = type opaque
%"class.llvm::formatted_raw_ostream" = type { %"class.llvm::raw_ostream.base", %"class.llvm::raw_ostream"*, %"struct.std::pair.225", i8*, %"class.llvm::SmallString" }
%"class.llvm::raw_ostream.base" = type <{ i32 (...)**, i32, [4 x i8], i8*, i8*, i8*, i8, [7 x i8], %"class.llvm::raw_ostream"*, i32 }>
%"class.llvm::raw_ostream" = type <{ i32 (...)**, i32, [4 x i8], i8*, i8*, i8*, i8, [7 x i8], %"class.llvm::raw_ostream"*, i32, [4 x i8] }>
%"struct.std::pair.225" = type { i32, i32 }
%"class.llvm::SmallString" = type { %"class.llvm::SmallVector.base", [4 x i8] }
%"class.llvm::SmallVector.base" = type <{ %"class.llvm::SmallVectorImpl.229", %"struct.llvm::SmallVectorStorage.232" }>
%"class.llvm::SmallVectorImpl.229" = type { %"class.llvm::SmallVectorTemplateBase.230" }
%"class.llvm::SmallVectorTemplateBase.230" = type { %"class.llvm::SmallVectorTemplateCommon.231" }
%"class.llvm::SmallVectorTemplateCommon.231" = type { %"class.llvm::SmallVectorBase" }
%"struct.llvm::SmallVectorStorage.232" = type { [4 x i8] }
%"class.llvm::MCRelocationInfo" = type opaque
%"class.llvm::MCSymbolizer" = type opaque
%"class.std::unique_ptr.233" = type { %"struct.std::__uniq_ptr_data.234" }
%"struct.std::__uniq_ptr_data.234" = type { %"class.std::__uniq_ptr_impl.235" }
%"class.std::__uniq_ptr_impl.235" = type { %"class.std::tuple.236" }
%"class.std::tuple.236" = type { %"struct.std::_Tuple_impl.237" }
%"struct.std::_Tuple_impl.237" = type { %"struct.std::_Head_base.240" }
%"struct.std::_Head_base.240" = type { %"class.llvm::MCRelocationInfo"* }
%"class.llvm::Optional.244" = type { %"class.llvm::optional_detail::OptionalStorage.245" }
%"class.llvm::optional_detail::OptionalStorage.245" = type <{ %union.anon.246, i8, [3 x i8] }>
%union.anon.246 = type { i32 }
%"class.llvm::Optional.247" = type { %"class.llvm::optional_detail::OptionalStorage.248" }
%"class.llvm::optional_detail::OptionalStorage.248" = type <{ %union.anon.249, i8, [3 x i8] }>
%union.anon.249 = type { i32 }
%"class.std::error_code" = type { i32, %"class.std::_V2::error_category"* }
%"class.std::_V2::error_category" = type { i32 (...)** }
%"class.llvm::raw_fd_ostream" = type { %"class.llvm::raw_pwrite_stream.base", i32, i8, i8, %"class.llvm::Optional.241", i8, %"class.std::error_code", i64 }
%"class.llvm::raw_pwrite_stream.base" = type { %"class.llvm::raw_ostream.base" }
%"class.llvm::Optional.241" = type { %"class.llvm::optional_detail::OptionalStorage.242" }
%"class.llvm::optional_detail::OptionalStorage.242" = type { %union.anon.243, i8 }
%union.anon.243 = type { i8 }
%"class.llvm::legacy::PassManager" = type { %"class.llvm::legacy::PassManagerBase", %"class.llvm::legacy::PassManagerImpl"* }
%"class.llvm::legacy::PassManagerBase" = type { i32 (...)** }
%"class.llvm::legacy::PassManagerImpl" = type opaque
%"class.llvm::raw_pwrite_stream" = type { %"class.llvm::raw_ostream.base", [4 x i8] }
%"class.llvm::MachineModuleInfoWrapperPass" = type opaque
%"struct.std::_Rb_tree_iterator.442" = type { %"struct.std::_Rb_tree_node_base"* }
%"struct.std::_Rb_tree_const_iterator.443" = type { %"struct.std::_Rb_tree_node_base"* }
%"class.std::tuple.446" = type { %"struct.std::_Tuple_impl.447" }
%"struct.std::_Tuple_impl.447" = type { %"struct.std::_Head_base.448" }
%"struct.std::_Head_base.448" = type { i8* }
%"class.std::tuple.324" = type { i8 }
%"struct.std::pair.251" = type { i8, i32 }
%"class.std::allocator.0" = type { i8 }
%"class.__gnu_cxx::new_allocator.1" = type { i8 }
%"struct.std::_Rb_tree_node" = type { %"struct.std::_Rb_tree_node_base", %"struct.__gnu_cxx::__aligned_membuf" }
%"struct.__gnu_cxx::__aligned_membuf" = type { [8 x i8] }
%"class.std::allocator.98" = type { i8 }
%"class.__gnu_cxx::new_allocator.99" = type { i8 }
%"struct.std::_Rb_tree_node.254" = type { %"struct.std::_Rb_tree_node_base", %"struct.__gnu_cxx::__aligned_membuf.255" }
%"struct.__gnu_cxx::__aligned_membuf.255" = type { [40 x i8] }
%"struct.std::pair.256" = type { %"class.std::__cxx11::basic_string", %"class.llvm::AllocaInst"* }
%"class.llvm::AllocaInst" = type { %"class.llvm::UnaryInstruction.base", %"class.llvm::Type"* }
%"class.llvm::UnaryInstruction.base" = type { %"class.llvm::Instruction.base" }
%"class.llvm::Instruction.base" = type <{ %"class.llvm::User", %"class.llvm::ilist_node_with_parent.259", %"class.llvm::BasicBlock"*, %"class.llvm::DebugLoc", i32 }>
%"class.llvm::ilist_node_with_parent.259" = type { %"class.llvm::ilist_node.260" }
%"class.llvm::ilist_node.260" = type { %"class.llvm::ilist_node_impl.149" }
%"class.llvm::DebugLoc" = type { %"class.llvm::TypedTrackingMDRef" }
%"class.llvm::TypedTrackingMDRef" = type { %"class.llvm::TrackingMDRef" }
%"class.llvm::TrackingMDRef" = type { %"class.llvm::Metadata"* }
%"class.std::allocator.106" = type { i8 }
%"class.__gnu_cxx::new_allocator.107" = type { i8 }
%"struct.std::default_delete" = type { i8 }
%"struct.std::_Tuple_impl.130" = type { i8 }
%"struct.std::_Head_base.131" = type { i8 }
%"class.std::allocator.133" = type { i8 }
%"class.__gnu_cxx::new_allocator.134" = type { i8 }
%"struct.std::_Maybe_unary_or_binary_function" = type { i8 }
%"struct.std::integral_constant" = type { i8 }
%"class.std::type_info" = type { i32 (...)**, i8* }
%"struct.std::__invoke_other" = type { i8 }
%"struct.std::_Tuple_impl.114" = type { i8 }
%"struct.std::_Head_base.115" = type { i8 }
%"class.__gnu_cxx::new_allocator.268" = type { i8 }
%"struct.std::random_access_iterator_tag" = type { i8 }
%"struct.std::_Tuple_impl.3" = type { i8 }
%"struct.std::_Head_base" = type { i8 }
%"struct.std::_Tuple_impl.82" = type { i8 }
%"struct.std::_Head_base.83" = type { i8 }
%"struct.llvm::ilist_detail::SpecificNodeAccess.147" = type { i8 }
%"struct.std::pair.275" = type { i32, %"class.llvm::MDNode"* }
%"struct.std::_Tuple_impl.90" = type { i8 }
%"struct.std::_Head_base.91" = type { i8 }
%"class.std::unique_ptr.280" = type { %"struct.std::__uniq_ptr_data.281" }
%"struct.std::__uniq_ptr_data.281" = type { %"class.std::__uniq_ptr_impl.282" }
%"class.std::__uniq_ptr_impl.282" = type { %"class.std::tuple.283" }
%"class.std::tuple.283" = type { %"struct.std::_Tuple_impl.284" }
%"struct.std::_Tuple_impl.284" = type { %"struct.std::_Head_base.287" }
%"struct.std::_Head_base.287" = type { %"class.(anonymous namespace)::FunctionAST"* }
%"class.(anonymous namespace)::FunctionAST" = type { %"class.std::unique_ptr.125", %"class.std::unique_ptr.109" }
%"class.llvm::AssemblyAnnotationWriter" = type opaque
%"class.llvm::StoreInst" = type { %"class.llvm::Instruction.base", i8, [3 x i8] }
%"class.llvm::ReturnInst" = type { %"class.llvm::Instruction.base", [4 x i8] }
%"struct.std::default_delete.289" = type { i8 }
%"class.__gnu_cxx::__normal_iterator" = type { %"class.std::__cxx11::basic_string"* }
%"class.__gnu_cxx::__normal_iterator.288" = type { %"class.std::__cxx11::basic_string"* }
%"struct.std::_Tuple_impl.285" = type { i8 }
%"struct.std::_Head_base.286" = type { i8 }
%"class.std::unique_ptr.291" = type { %"struct.std::__uniq_ptr_data.292" }
%"struct.std::__uniq_ptr_data.292" = type { %"class.std::__uniq_ptr_impl.293" }
%"class.std::__uniq_ptr_impl.293" = type { %"class.std::tuple.294" }
%"class.std::tuple.294" = type { %"struct.std::_Tuple_impl.295" }
%"struct.std::_Tuple_impl.295" = type { %"struct.std::_Head_base.298" }
%"struct.std::_Head_base.298" = type { %"class.(anonymous namespace)::UnaryExprAST"* }
%"class.(anonymous namespace)::UnaryExprAST" = type { %"class.(anonymous namespace)::ExprAST", i8, %"class.std::unique_ptr.109" }
%"class.std::unique_ptr.423" = type { %"struct.std::__uniq_ptr_data.424" }
%"struct.std::__uniq_ptr_data.424" = type { %"class.std::__uniq_ptr_impl.425" }
%"class.std::__uniq_ptr_impl.425" = type { %"class.std::tuple.426" }
%"class.std::tuple.426" = type { %"struct.std::_Tuple_impl.427" }
%"struct.std::_Tuple_impl.427" = type { %"struct.std::_Head_base.430" }
%"struct.std::_Head_base.430" = type { %"class.(anonymous namespace)::BinaryExprAST"* }
%"class.(anonymous namespace)::BinaryExprAST" = type { %"class.(anonymous namespace)::ExprAST", i8, %"class.std::unique_ptr.109", %"class.std::unique_ptr.109" }
%"struct.std::default_delete.421" = type { i8 }
%"class.std::unique_ptr.299" = type { %"struct.std::__uniq_ptr_data.300" }
%"struct.std::__uniq_ptr_data.300" = type { %"class.std::__uniq_ptr_impl.301" }
%"class.std::__uniq_ptr_impl.301" = type { %"class.std::tuple.302" }
%"class.std::tuple.302" = type { %"struct.std::_Tuple_impl.303" }
%"struct.std::_Tuple_impl.303" = type { %"struct.std::_Head_base.306" }
%"struct.std::_Head_base.306" = type { %"class.(anonymous namespace)::VariableExprAST"* }
%"class.(anonymous namespace)::VariableExprAST" = type { %"class.(anonymous namespace)::ExprAST", %"class.std::__cxx11::basic_string" }
%"class.std::vector.307" = type { %"struct.std::_Vector_base.308" }
%"struct.std::_Vector_base.308" = type { %"struct.std::_Vector_base<std::unique_ptr<(anonymous namespace)::ExprAST>, std::allocator<std::unique_ptr<(anonymous namespace)::ExprAST>>>::_Vector_impl" }
%"struct.std::_Vector_base<std::unique_ptr<(anonymous namespace)::ExprAST>, std::allocator<std::unique_ptr<(anonymous namespace)::ExprAST>>>::_Vector_impl" = type { %"struct.std::_Vector_base<std::unique_ptr<(anonymous namespace)::ExprAST>, std::allocator<std::unique_ptr<(anonymous namespace)::ExprAST>>>::_Vector_impl_data" }
%"struct.std::_Vector_base<std::unique_ptr<(anonymous namespace)::ExprAST>, std::allocator<std::unique_ptr<(anonymous namespace)::ExprAST>>>::_Vector_impl_data" = type { %"class.std::unique_ptr.109"*, %"class.std::unique_ptr.109"*, %"class.std::unique_ptr.109"* }
%"class.std::unique_ptr.312" = type { %"struct.std::__uniq_ptr_data.313" }
%"struct.std::__uniq_ptr_data.313" = type { %"class.std::__uniq_ptr_impl.314" }
%"class.std::__uniq_ptr_impl.314" = type { %"class.std::tuple.315" }
%"class.std::tuple.315" = type { %"struct.std::_Tuple_impl.316" }
%"struct.std::_Tuple_impl.316" = type { %"struct.std::_Head_base.319" }
%"struct.std::_Head_base.319" = type { %"class.(anonymous namespace)::CallExprAST"* }
%"class.(anonymous namespace)::CallExprAST" = type { %"class.(anonymous namespace)::ExprAST", %"class.std::__cxx11::basic_string", %"class.std::vector.307" }
%"class.std::unique_ptr.337" = type { %"struct.std::__uniq_ptr_data.338" }
%"struct.std::__uniq_ptr_data.338" = type { %"class.std::__uniq_ptr_impl.339" }
%"class.std::__uniq_ptr_impl.339" = type { %"class.std::tuple.340" }
%"class.std::tuple.340" = type { %"struct.std::_Tuple_impl.341" }
%"struct.std::_Tuple_impl.341" = type { %"struct.std::_Head_base.344" }
%"struct.std::_Head_base.344" = type { %"class.(anonymous namespace)::NumberExprAST"* }
%"class.(anonymous namespace)::NumberExprAST" = type { %"class.(anonymous namespace)::ExprAST", double }
%"class.std::unique_ptr.357" = type { %"struct.std::__uniq_ptr_data.358" }
%"struct.std::__uniq_ptr_data.358" = type { %"class.std::__uniq_ptr_impl.359" }
%"class.std::__uniq_ptr_impl.359" = type { %"class.std::tuple.360" }
%"class.std::tuple.360" = type { %"struct.std::_Tuple_impl.361" }
%"struct.std::_Tuple_impl.361" = type { %"struct.std::_Head_base.364" }
%"struct.std::_Head_base.364" = type { %"class.(anonymous namespace)::IfExprAST"* }
%"class.(anonymous namespace)::IfExprAST" = type { %"class.(anonymous namespace)::ExprAST", %"class.std::unique_ptr.109", %"class.std::unique_ptr.109", %"class.std::unique_ptr.109" }
%"class.std::unique_ptr.368" = type { %"struct.std::__uniq_ptr_data.369" }
%"struct.std::__uniq_ptr_data.369" = type { %"class.std::__uniq_ptr_impl.370" }
%"class.std::__uniq_ptr_impl.370" = type { %"class.std::tuple.371" }
%"class.std::tuple.371" = type { %"struct.std::_Tuple_impl.372" }
%"struct.std::_Tuple_impl.372" = type { %"struct.std::_Head_base.375" }
%"struct.std::_Head_base.375" = type { %"class.(anonymous namespace)::ForExprAST"* }
%"class.(anonymous namespace)::ForExprAST" = type { %"class.(anonymous namespace)::ExprAST", %"class.std::__cxx11::basic_string", %"class.std::unique_ptr.109", %"class.std::unique_ptr.109", %"class.std::unique_ptr.109", %"class.std::unique_ptr.109" }
%"class.std::vector.396" = type { %"struct.std::_Vector_base.397" }
%"struct.std::_Vector_base.397" = type { %"struct.std::_Vector_base<std::pair<std::__cxx11::basic_string<char>, std::unique_ptr<(anonymous namespace)::ExprAST>>, std::allocator<std::pair<std::__cxx11::basic_string<char>, std::unique_ptr<(anonymous namespace)::ExprAST>>>>::_Vector_impl" }
%"struct.std::_Vector_base<std::pair<std::__cxx11::basic_string<char>, std::unique_ptr<(anonymous namespace)::ExprAST>>, std::allocator<std::pair<std::__cxx11::basic_string<char>, std::unique_ptr<(anonymous namespace)::ExprAST>>>>::_Vector_impl" = type { %"struct.std::_Vector_base<std::pair<std::__cxx11::basic_string<char>, std::unique_ptr<(anonymous namespace)::ExprAST>>, std::allocator<std::pair<std::__cxx11::basic_string<char>, std::unique_ptr<(anonymous namespace)::ExprAST>>>>::_Vector_impl_data" }
%"struct.std::_Vector_base<std::pair<std::__cxx11::basic_string<char>, std::unique_ptr<(anonymous namespace)::ExprAST>>, std::allocator<std::pair<std::__cxx11::basic_string<char>, std::unique_ptr<(anonymous namespace)::ExprAST>>>>::_Vector_impl_data" = type { %"struct.std::pair.401"*, %"struct.std::pair.401"*, %"struct.std::pair.401"* }
%"struct.std::pair.401" = type { %"class.std::__cxx11::basic_string", %"class.std::unique_ptr.109" }
%"class.std::unique_ptr.404" = type { %"struct.std::__uniq_ptr_data.405" }
%"struct.std::__uniq_ptr_data.405" = type { %"class.std::__uniq_ptr_impl.406" }
%"class.std::__uniq_ptr_impl.406" = type { %"class.std::tuple.407" }
%"class.std::tuple.407" = type { %"struct.std::_Tuple_impl.408" }
%"struct.std::_Tuple_impl.408" = type { %"struct.std::_Head_base.411" }
%"struct.std::_Head_base.411" = type { %"class.(anonymous namespace)::VarExprAST"* }
%"class.(anonymous namespace)::VarExprAST" = type { %"class.(anonymous namespace)::ExprAST", %"class.std::vector.396", %"class.std::unique_ptr.109" }
%"struct.std::default_delete.330" = type { i8 }
%"struct.std::default_delete.335" = type { i8 }
%"class.std::allocator.309" = type { i8 }
%"class.llvm::LoadInst" = type { %"class.llvm::UnaryInstruction.base", i8, [3 x i8] }
%"struct.std::_Rb_tree_iterator.320" = type { %"struct.std::_Rb_tree_node_base"* }
%"struct.std::_Rb_tree_const_iterator" = type { %"struct.std::_Rb_tree_node_base"* }
%"class.std::tuple.321" = type { %"struct.std::_Tuple_impl.322" }
%"struct.std::_Tuple_impl.322" = type { %"struct.std::_Head_base.323" }
%"struct.std::_Head_base.323" = type { %"class.std::__cxx11::basic_string"* }
%"struct.std::pair.326" = type { %"struct.std::_Rb_tree_node_base"*, %"struct.std::_Rb_tree_node_base"* }
%"struct.std::_Select1st" = type { i8 }
%"struct.std::_Index_tuple" = type { i8 }
%"struct.std::_Index_tuple.329" = type { i8 }
%"class.std::__pair_base.257" = type { i8 }
%"class.std::__pair_base.327" = type { i8 }
%"struct.llvm::Align" = type { i8 }
%"class.llvm::Instruction" = type <{ %"class.llvm::User", %"class.llvm::ilist_node_with_parent.259", %"class.llvm::BasicBlock"*, %"class.llvm::DebugLoc", i32, [4 x i8] }>
%"struct.std::_Tuple_impl.304" = type { i8 }
%"struct.std::_Head_base.305" = type { i8 }
%"class.__gnu_cxx::new_allocator.310" = type { i8 }
%"class.__gnu_cxx::__normal_iterator.332" = type { %"class.std::unique_ptr.109"* }
%"class.llvm::FunctionCallee" = type { %"class.llvm::FunctionType"*, %"class.llvm::Value"* }
%"class.llvm::ArrayRef.333" = type { %"class.llvm::Value"**, i64 }
%"class.llvm::CallInst" = type { %"class.llvm::CallBase" }
%"class.llvm::CallBase" = type { %"class.llvm::Instruction.base", %"class.llvm::AttributeList", %"class.llvm::FunctionType"* }
%"class.__gnu_cxx::__normal_iterator.334" = type { %"class.llvm::Value"** }
%"class.std::allocator.154" = type { i8 }
%"class.__gnu_cxx::new_allocator.155" = type { i8 }
%"class.llvm::ConstantExpr" = type { %"class.llvm::Constant" }
%"class.llvm::ArrayType" = type { %"class.llvm::Type", %"class.llvm::Type"*, i64 }
%"struct.std::_Tuple_impl.317" = type { i8 }
%"struct.std::_Head_base.318" = type { i8 }
%"struct.std::default_delete.355" = type { i8 }
%"class.llvm::APFloat" = type { [8 x i8], %"union.llvm::APFloat::Storage" }
%"union.llvm::APFloat::Storage" = type { %"class.llvm::detail::IEEEFloat" }
%"class.llvm::detail::IEEEFloat" = type { %"struct.llvm::fltSemantics"*, %"union.llvm::detail::IEEEFloat::Significand", i32, i32 }
%"struct.llvm::fltSemantics" = type opaque
%"union.llvm::detail::IEEEFloat::Significand" = type { i64 }
%"class.llvm::ConstantFP" = type { %"class.llvm::ConstantData", %"class.llvm::APFloat" }
%"class.llvm::ConstantData" = type { %"class.llvm::Constant" }
%"struct.llvm::APFloatBase" = type { i8 }
%"class.llvm::detail::DoubleAPFloat" = type { %"struct.llvm::fltSemantics"*, %"class.std::unique_ptr.345" }
%"class.std::unique_ptr.345" = type { %"struct.std::__uniq_ptr_data.346" }
%"struct.std::__uniq_ptr_data.346" = type { %"class.std::__uniq_ptr_impl.347" }
%"class.std::__uniq_ptr_impl.347" = type { %"class.std::tuple.348" }
%"class.std::tuple.348" = type { %"struct.std::_Tuple_impl.349" }
%"struct.std::_Tuple_impl.349" = type { %"struct.std::_Head_base.352" }
%"struct.std::_Head_base.352" = type { %"class.llvm::APFloat"* }
%"struct.std::default_delete.353" = type { i8 }
%"struct.std::_Tuple_impl.350" = type { i8 }
%"struct.std::_Head_base.351" = type { i8 }
%"struct.std::_Tuple_impl.342" = type { i8 }
%"struct.std::_Head_base.343" = type { i8 }
%"struct.std::default_delete.366" = type { i8 }
%"class.llvm::PHINode" = type { %"class.llvm::Instruction.base", i32 }
%"class.llvm::BranchInst" = type { %"class.llvm::Instruction.base", [4 x i8] }
%"class.llvm::ilist_iterator.365" = type { %"class.llvm::ilist_node_impl.124"* }
%"class.llvm::SymbolTableListTraits.119" = type { i8 }
%"struct.llvm::ilist_detail::SpecificNodeAccess.122" = type { i8 }
%"struct.std::_Tuple_impl.362" = type { i8 }
%"struct.std::_Head_base.363" = type { i8 }
%"struct.std::default_delete.394" = type { i8 }
%"class.llvm::Optional.385" = type { %"class.llvm::optional_detail::OptionalStorage.386" }
%"class.llvm::optional_detail::OptionalStorage.386" = type { %union.anon.387, i8 }
%union.anon.387 = type { i8 }
%"class.llvm::Optional.388" = type { %"class.llvm::optional_detail::OptionalStorage.389" }
%"class.llvm::optional_detail::OptionalStorage.389" = type { %union.anon.390, i8 }
%union.anon.390 = type { i8 }
%"class.llvm::BinaryOperator" = type { %"class.llvm::Instruction.base", [4 x i8] }
%class.anon.376 = type { i32 }
%"struct.std::less.377" = type { i8 }
%"struct.std::less.378" = type { i8 }
%"struct.__gnu_cxx::__ops::_Iter_pred" = type { %class.anon.376 }
%"class.std::__pair_base.276" = type { i8 }
%"class.llvm::PointerUnion.380" = type { %"class.llvm::pointer_union_detail::PointerUnionMembers.381" }
%"class.llvm::pointer_union_detail::PointerUnionMembers.381" = type { %"class.llvm::pointer_union_detail::PointerUnionMembers.382" }
%"class.llvm::pointer_union_detail::PointerUnionMembers.382" = type { %"class.llvm::pointer_union_detail::PointerUnionMembers.383" }
%"class.llvm::pointer_union_detail::PointerUnionMembers.383" = type { %"class.llvm::PointerIntPair.384" }
%"class.llvm::PointerIntPair.384" = type { i64 }
%"struct.std::pair.391" = type { %"struct.std::_Rb_tree_iterator.320", %"struct.std::_Rb_tree_iterator.320" }
%"class.std::__pair_base.392" = type { i8 }
%"struct.std::_Tuple_impl.373" = type { i8 }
%"struct.std::_Head_base.374" = type { i8 }
%"struct.std::default_delete.419" = type { i8 }
%"class.std::allocator.398" = type { i8 }
%"class.__gnu_cxx::new_allocator.399" = type { i8 }
%"class.__gnu_cxx::__normal_iterator.412" = type { %"struct.std::pair.401"* }
%"class.std::__pair_base.402" = type { i8 }
%"class.std::vector.413" = type { %"struct.std::_Vector_base.414" }
%"struct.std::_Vector_base.414" = type { %"struct.std::_Vector_base<llvm::AllocaInst *, std::allocator<llvm::AllocaInst *>>::_Vector_impl" }
%"struct.std::_Vector_base<llvm::AllocaInst *, std::allocator<llvm::AllocaInst *>>::_Vector_impl" = type { %"struct.std::_Vector_base<llvm::AllocaInst *, std::allocator<llvm::AllocaInst *>>::_Vector_impl_data" }
%"struct.std::_Vector_base<llvm::AllocaInst *, std::allocator<llvm::AllocaInst *>>::_Vector_impl_data" = type { %"class.llvm::AllocaInst"**, %"class.llvm::AllocaInst"**, %"class.llvm::AllocaInst"** }
%"class.__gnu_cxx::__normal_iterator.418" = type { %"class.llvm::AllocaInst"** }
%"class.std::allocator.415" = type { i8 }
%"class.__gnu_cxx::new_allocator.416" = type { i8 }
%"struct.std::_Tuple_impl.409" = type { i8 }
%"struct.std::_Head_base.410" = type { i8 }
%"struct.std::_Tuple_impl.296" = type { i8 }
%"struct.std::_Head_base.297" = type { i8 }
%"struct.std::default_delete.431" = type { i8 }
%"class.llvm::CastInst" = type { %"class.llvm::UnaryInstruction.base", [4 x i8] }
%"struct.std::_Tuple_impl.428" = type { i8 }
%"struct.std::_Head_base.429" = type { i8 }
%"struct.std::_Rb_tree_const_iterator.433" = type { %"struct.std::_Rb_tree_node_base"* }
%"class.std::tuple.436" = type { %"struct.std::_Tuple_impl.437" }
%"struct.std::_Tuple_impl.437" = type { %"struct.std::_Head_base.438" }
%"struct.std::_Head_base.438" = type { %"class.std::__cxx11::basic_string"* }
%"struct.std::_Select1st.434" = type { i8 }
%"class.std::__pair_base" = type { i8 }
%"struct.std::pair.439" = type { %"struct.std::_Rb_tree_iterator.442", %"struct.std::_Rb_tree_iterator.442" }
%"struct.std::_Select1st.444" = type { i8 }
%"class.std::__pair_base.440" = type { i8 }
%"class.std::__pair_base.191" = type { i8 }
%"class.std::__shared_ptr_access" = type { i8 }
%"struct.llvm::PointerAlignElem" = type { %"struct.llvm::Align", %"struct.llvm::Align", i32, i32, i32 }
%"struct.llvm::LayoutAlignElem" = type <{ i32, %"struct.llvm::Align", %"struct.llvm::Align", [2 x i8] }>
%"class.std::__pair_base.252" = type { i8 }

$_ZNSt3mapIciSt4lessIcESaISt4pairIKciEEEC2Ev = comdat any

$_ZNSt3mapIciSt4lessIcESaISt4pairIKciEEED2Ev = comdat any

$_ZNSt10unique_ptrIN4llvm11LLVMContextESt14default_deleteIS1_EED2Ev = comdat any

$_ZNSt10unique_ptrIN4llvm6ModuleESt14default_deleteIS1_EED2Ev = comdat any

$_ZNSt10unique_ptrIN4llvm9IRBuilderINS0_14ConstantFolderENS0_24IRBuilderDefaultInserterEEESt14default_deleteIS4_EED2Ev = comdat any

$_ZNSt3mapINSt7__cxx1112basic_stringIcSt11char_traitsIcESaIcEEEPN4llvm10AllocaInstESt4lessIS5_ESaISt4pairIKS5_S8_EEEC2Ev = comdat any

$_ZNSt3mapINSt7__cxx1112basic_stringIcSt11char_traitsIcESaIcEEEPN4llvm10AllocaInstESt4lessIS5_ESaISt4pairIKS5_S8_EEED2Ev = comdat any

$_ZN4llvm11ExitOnErrorC2ENSt7__cxx1112basic_stringIcSt11char_traitsIcESaIcEEEi = comdat any

$_ZN4llvm11ExitOnErrorD2Ev = comdat any

$_ZNKSt10unique_ptrIN4llvm6ModuleESt14default_deleteIS1_EEptEv = comdat any

$_ZN4llvm9StringRefC2ERKNSt7__cxx1112basic_stringIcSt11char_traitsIcESaIcEEE = comdat any

$_ZNSt3mapIciSt4lessIcESaISt4pairIKciEEEixEOc = comdat any

$_ZN4llvm24InitializeAllTargetInfosEv = comdat any

$_ZN4llvm20InitializeAllTargetsEv = comdat any

$_ZN4llvm22InitializeAllTargetMCsEv = comdat any

$_ZN4llvm23InitializeAllAsmParsersEv = comdat any

$_ZN4llvm24InitializeAllAsmPrintersEv = comdat any

$_ZN4llvm6Module15setTargetTripleENS_9StringRefE = comdat any

$_ZN4llvm11raw_ostreamlsERKNSt7__cxx1112basic_stringIcSt11char_traitsIcESaIcEEE = comdat any

$_ZN4llvm13TargetOptionsC2Ev = comdat any

$_ZN4llvm8OptionalINS_5Reloc5ModelEEC2Ev = comdat any

$_ZNK4llvm6Target19createTargetMachineENS_9StringRefES1_S1_RKNS_13TargetOptionsENS_8OptionalINS_5Reloc5ModelEEENS5_INS_9CodeModel5ModelEEENS_10CodeGenOpt5LevelEb = comdat any

$_ZN4llvm9StringRefC2EPKc = comdat any

$_ZN4llvm8OptionalINS_9CodeModel5ModelEEC2ENS_8NoneTypeE = comdat any

$_ZNK4llvm13TargetMachine16createDataLayoutEv = comdat any

$_ZNSt10error_codeC2Ev = comdat any

$_ZNKSt10error_codecvbEv = comdat any

$_ZN4llvm11raw_ostreamlsEPKc = comdat any

$_ZNKSt10error_code7messageB5cxx11Ev = comdat any

$_ZNKSt10unique_ptrIN4llvm6ModuleESt14default_deleteIS1_EEdeEv = comdat any

$_ZN4llvm11raw_ostream5flushEv = comdat any

$_ZN4llvm13TargetOptionsD2Ev = comdat any

$_ZNSt8_Rb_treeIcSt4pairIKciESt10_Select1stIS2_ESt4lessIcESaIS2_EEC2Ev = comdat any

$_ZNSt8_Rb_treeIcSt4pairIKciESt10_Select1stIS2_ESt4lessIcESaIS2_EE13_Rb_tree_implIS6_Lb1EEC2Ev = comdat any

$_ZNSaISt13_Rb_tree_nodeISt4pairIKciEEEC2Ev = comdat any

$_ZNSt20_Rb_tree_key_compareISt4lessIcEEC2Ev = comdat any

$_ZNSt15_Rb_tree_headerC2Ev = comdat any

$_ZN9__gnu_cxx13new_allocatorISt13_Rb_tree_nodeISt4pairIKciEEEC2Ev = comdat any

$_ZNSt15_Rb_tree_header8_M_resetEv = comdat any

$__clang_call_terminate = comdat any

$_ZNSt8_Rb_treeIcSt4pairIKciESt10_Select1stIS2_ESt4lessIcESaIS2_EED2Ev = comdat any

$_ZNSt8_Rb_treeIcSt4pairIKciESt10_Select1stIS2_ESt4lessIcESaIS2_EE8_M_eraseEPSt13_Rb_tree_nodeIS2_E = comdat any

$_ZNSt8_Rb_treeIcSt4pairIKciESt10_Select1stIS2_ESt4lessIcESaIS2_EE8_M_beginEv = comdat any

$_ZNSt8_Rb_treeIcSt4pairIKciESt10_Select1stIS2_ESt4lessIcESaIS2_EE13_Rb_tree_implIS6_Lb1EED2Ev = comdat any

$_ZNSt8_Rb_treeIcSt4pairIKciESt10_Select1stIS2_ESt4lessIcESaIS2_EE8_S_rightEPSt18_Rb_tree_node_base = comdat any

$_ZNSt8_Rb_treeIcSt4pairIKciESt10_Select1stIS2_ESt4lessIcESaIS2_EE7_S_leftEPSt18_Rb_tree_node_base = comdat any

$_ZNSt8_Rb_treeIcSt4pairIKciESt10_Select1stIS2_ESt4lessIcESaIS2_EE12_M_drop_nodeEPSt13_Rb_tree_nodeIS2_E = comdat any

$_ZNSt8_Rb_treeIcSt4pairIKciESt10_Select1stIS2_ESt4lessIcESaIS2_EE15_M_destroy_nodeEPSt13_Rb_tree_nodeIS2_E = comdat any

$_ZNSt8_Rb_treeIcSt4pairIKciESt10_Select1stIS2_ESt4lessIcESaIS2_EE11_M_put_nodeEPSt13_Rb_tree_nodeIS2_E = comdat any

$_ZNSt16allocator_traitsISaISt13_Rb_tree_nodeISt4pairIKciEEEE7destroyIS3_EEvRS5_PT_ = comdat any

$_ZNSt8_Rb_treeIcSt4pairIKciESt10_Select1stIS2_ESt4lessIcESaIS2_EE21_M_get_Node_allocatorEv = comdat any

$_ZNSt13_Rb_tree_nodeISt4pairIKciEE9_M_valptrEv = comdat any

$_ZN9__gnu_cxx13new_allocatorISt13_Rb_tree_nodeISt4pairIKciEEE7destroyIS4_EEvPT_ = comdat any

$_ZN9__gnu_cxx16__aligned_membufISt4pairIKciEE6_M_ptrEv = comdat any

$_ZN9__gnu_cxx16__aligned_membufISt4pairIKciEE7_M_addrEv = comdat any

$_ZNSt16allocator_traitsISaISt13_Rb_tree_nodeISt4pairIKciEEEE10deallocateERS5_PS4_y = comdat any

$_ZN9__gnu_cxx13new_allocatorISt13_Rb_tree_nodeISt4pairIKciEEE10deallocateEPS5_y = comdat any

$_ZNKSt8_Rb_treeIcSt4pairIKciESt10_Select1stIS2_ESt4lessIcESaIS2_EE9_M_mbeginEv = comdat any

$_ZNSaISt13_Rb_tree_nodeISt4pairIKciEEED2Ev = comdat any

$_ZN9__gnu_cxx13new_allocatorISt13_Rb_tree_nodeISt4pairIKciEEED2Ev = comdat any

$_ZNSt8_Rb_treeINSt7__cxx1112basic_stringIcSt11char_traitsIcESaIcEEESt4pairIKS5_PN4llvm10AllocaInstEESt10_Select1stISB_ESt4lessIS5_ESaISB_EEC2Ev = comdat any

$_ZNSt8_Rb_treeINSt7__cxx1112basic_stringIcSt11char_traitsIcESaIcEEESt4pairIKS5_PN4llvm10AllocaInstEESt10_Select1stISB_ESt4lessIS5_ESaISB_EE13_Rb_tree_implISF_Lb1EEC2Ev = comdat any

$_ZNSaISt13_Rb_tree_nodeISt4pairIKNSt7__cxx1112basic_stringIcSt11char_traitsIcESaIcEEEPN4llvm10AllocaInstEEEEC2Ev = comdat any

$_ZNSt20_Rb_tree_key_compareISt4lessINSt7__cxx1112basic_stringIcSt11char_traitsIcESaIcEEEEEC2Ev = comdat any

$_ZN9__gnu_cxx13new_allocatorISt13_Rb_tree_nodeISt4pairIKNSt7__cxx1112basic_stringIcSt11char_traitsIcESaIcEEEPN4llvm10AllocaInstEEEEC2Ev = comdat any

$_ZNSt8_Rb_treeINSt7__cxx1112basic_stringIcSt11char_traitsIcESaIcEEESt4pairIKS5_PN4llvm10AllocaInstEESt10_Select1stISB_ESt4lessIS5_ESaISB_EED2Ev = comdat any

$_ZNSt8_Rb_treeINSt7__cxx1112basic_stringIcSt11char_traitsIcESaIcEEESt4pairIKS5_PN4llvm10AllocaInstEESt10_Select1stISB_ESt4lessIS5_ESaISB_EE8_M_eraseEPSt13_Rb_tree_nodeISB_E = comdat any

$_ZNSt8_Rb_treeINSt7__cxx1112basic_stringIcSt11char_traitsIcESaIcEEESt4pairIKS5_PN4llvm10AllocaInstEESt10_Select1stISB_ESt4lessIS5_ESaISB_EE8_M_beginEv = comdat any

$_ZNSt8_Rb_treeINSt7__cxx1112basic_stringIcSt11char_traitsIcESaIcEEESt4pairIKS5_PN4llvm10AllocaInstEESt10_Select1stISB_ESt4lessIS5_ESaISB_EE13_Rb_tree_implISF_Lb1EED2Ev = comdat any

$_ZNSt8_Rb_treeINSt7__cxx1112basic_stringIcSt11char_traitsIcESaIcEEESt4pairIKS5_PN4llvm10AllocaInstEESt10_Select1stISB_ESt4lessIS5_ESaISB_EE8_S_rightEPSt18_Rb_tree_node_base = comdat any

$_ZNSt8_Rb_treeINSt7__cxx1112basic_stringIcSt11char_traitsIcESaIcEEESt4pairIKS5_PN4llvm10AllocaInstEESt10_Select1stISB_ESt4lessIS5_ESaISB_EE7_S_leftEPSt18_Rb_tree_node_base = comdat any

$_ZNSt8_Rb_treeINSt7__cxx1112basic_stringIcSt11char_traitsIcESaIcEEESt4pairIKS5_PN4llvm10AllocaInstEESt10_Select1stISB_ESt4lessIS5_ESaISB_EE12_M_drop_nodeEPSt13_Rb_tree_nodeISB_E = comdat any

$_ZNSt8_Rb_treeINSt7__cxx1112basic_stringIcSt11char_traitsIcESaIcEEESt4pairIKS5_PN4llvm10AllocaInstEESt10_Select1stISB_ESt4lessIS5_ESaISB_EE15_M_destroy_nodeEPSt13_Rb_tree_nodeISB_E = comdat any

$_ZNSt8_Rb_treeINSt7__cxx1112basic_stringIcSt11char_traitsIcESaIcEEESt4pairIKS5_PN4llvm10AllocaInstEESt10_Select1stISB_ESt4lessIS5_ESaISB_EE11_M_put_nodeEPSt13_Rb_tree_nodeISB_E = comdat any

$_ZNSt16allocator_traitsISaISt13_Rb_tree_nodeISt4pairIKNSt7__cxx1112basic_stringIcSt11char_traitsIcESaIcEEEPN4llvm10AllocaInstEEEEE7destroyISC_EEvRSE_PT_ = comdat any

$_ZNSt8_Rb_treeINSt7__cxx1112basic_stringIcSt11char_traitsIcESaIcEEESt4pairIKS5_PN4llvm10AllocaInstEESt10_Select1stISB_ESt4lessIS5_ESaISB_EE21_M_get_Node_allocatorEv = comdat any

$_ZNSt13_Rb_tree_nodeISt4pairIKNSt7__cxx1112basic_stringIcSt11char_traitsIcESaIcEEEPN4llvm10AllocaInstEEE9_M_valptrEv = comdat any

$_ZN9__gnu_cxx13new_allocatorISt13_Rb_tree_nodeISt4pairIKNSt7__cxx1112basic_stringIcSt11char_traitsIcESaIcEEEPN4llvm10AllocaInstEEEE7destroyISD_EEvPT_ = comdat any

$_ZNSt4pairIKNSt7__cxx1112basic_stringIcSt11char_traitsIcESaIcEEEPN4llvm10AllocaInstEED2Ev = comdat any

$_ZN9__gnu_cxx16__aligned_membufISt4pairIKNSt7__cxx1112basic_stringIcSt11char_traitsIcESaIcEEEPN4llvm10AllocaInstEEE6_M_ptrEv = comdat any

$_ZN9__gnu_cxx16__aligned_membufISt4pairIKNSt7__cxx1112basic_stringIcSt11char_traitsIcESaIcEEEPN4llvm10AllocaInstEEE7_M_addrEv = comdat any

$_ZNSt16allocator_traitsISaISt13_Rb_tree_nodeISt4pairIKNSt7__cxx1112basic_stringIcSt11char_traitsIcESaIcEEEPN4llvm10AllocaInstEEEEE10deallocateERSE_PSD_y = comdat any

$_ZN9__gnu_cxx13new_allocatorISt13_Rb_tree_nodeISt4pairIKNSt7__cxx1112basic_stringIcSt11char_traitsIcESaIcEEEPN4llvm10AllocaInstEEEE10deallocateEPSE_y = comdat any

$_ZNKSt8_Rb_treeINSt7__cxx1112basic_stringIcSt11char_traitsIcESaIcEEESt4pairIKS5_PN4llvm10AllocaInstEESt10_Select1stISB_ESt4lessIS5_ESaISB_EE9_M_mbeginEv = comdat any

$_ZNSaISt13_Rb_tree_nodeISt4pairIKNSt7__cxx1112basic_stringIcSt11char_traitsIcESaIcEEEPN4llvm10AllocaInstEEEED2Ev = comdat any

$_ZN9__gnu_cxx13new_allocatorISt13_Rb_tree_nodeISt4pairIKNSt7__cxx1112basic_stringIcSt11char_traitsIcESaIcEEEPN4llvm10AllocaInstEEEED2Ev = comdat any

$_ZNSt6vectorINSt7__cxx1112basic_stringIcSt11char_traitsIcESaIcEEESaIS5_EED2Ev = comdat any

$_ZSt8_DestroyIPNSt7__cxx1112basic_stringIcSt11char_traitsIcESaIcEEES5_EvT_S7_RSaIT0_E = comdat any

$_ZNSt12_Vector_baseINSt7__cxx1112basic_stringIcSt11char_traitsIcESaIcEEESaIS5_EE19_M_get_Tp_allocatorEv = comdat any

$_ZNSt12_Vector_baseINSt7__cxx1112basic_stringIcSt11char_traitsIcESaIcEEESaIS5_EED2Ev = comdat any

$_ZSt8_DestroyIPNSt7__cxx1112basic_stringIcSt11char_traitsIcESaIcEEEEvT_S7_ = comdat any

$_ZNSt12_Destroy_auxILb0EE9__destroyIPNSt7__cxx1112basic_stringIcSt11char_traitsIcESaIcEEEEEvT_S9_ = comdat any

$_ZSt8_DestroyINSt7__cxx1112basic_stringIcSt11char_traitsIcESaIcEEEEvPT_ = comdat any

$_ZSt11__addressofINSt7__cxx1112basic_stringIcSt11char_traitsIcESaIcEEEEPT_RS6_ = comdat any

$_ZNSt12_Vector_baseINSt7__cxx1112basic_stringIcSt11char_traitsIcESaIcEEESaIS5_EE13_M_deallocateEPS5_y = comdat any

$_ZNSt12_Vector_baseINSt7__cxx1112basic_stringIcSt11char_traitsIcESaIcEEESaIS5_EE12_Vector_implD2Ev = comdat any

$_ZNSt16allocator_traitsISaINSt7__cxx1112basic_stringIcSt11char_traitsIcESaIcEEEEE10deallocateERS6_PS5_y = comdat any

$_ZN9__gnu_cxx13new_allocatorINSt7__cxx1112basic_stringIcSt11char_traitsIcESaIcEEEE10deallocateEPS6_y = comdat any

$_ZN9__gnu_cxx13new_allocatorINSt7__cxx1112basic_stringIcSt11char_traitsIcESaIcEEEED2Ev = comdat any

$_ZSt4moveIRNSt7__cxx1112basic_stringIcSt11char_traitsIcESaIcEEEEONSt16remove_referenceIT_E4typeEOS8_ = comdat any

$_ZNSt8functionIFiRKN4llvm5ErrorEEEC2IZNS0_11ExitOnErrorC1ENSt7__cxx1112basic_stringIcSt11char_traitsIcESaIcEEEiEUlS3_E_vvEET_ = comdat any

$_ZNSt14_Function_baseC2Ev = comdat any

$_ZNSt14_Function_base13_Base_managerIZN4llvm11ExitOnErrorC1ENSt7__cxx1112basic_stringIcSt11char_traitsIcESaIcEEEiEUlRKNS1_5ErrorEE_E21_M_not_empty_functionISC_EEbRKT_ = comdat any

$_ZNSt14_Function_base13_Base_managerIZN4llvm11ExitOnErrorC1ENSt7__cxx1112basic_stringIcSt11char_traitsIcESaIcEEEiEUlRKNS1_5ErrorEE_E15_M_init_functorERSt9_Any_dataOSC_ = comdat any

$_ZSt4moveIRZN4llvm11ExitOnErrorC1ENSt7__cxx1112basic_stringIcSt11char_traitsIcESaIcEEEiEUlRKNS0_5ErrorEE_EONSt16remove_referenceIT_E4typeEOSE_ = comdat any

$_ZNSt17_Function_handlerIFiRKN4llvm5ErrorEEZNS0_11ExitOnErrorC1ENSt7__cxx1112basic_stringIcSt11char_traitsIcESaIcEEEiEUlS3_E_E9_M_invokeERKSt9_Any_dataS3_ = comdat any

$_ZNSt17_Function_handlerIFiRKN4llvm5ErrorEEZNS0_11ExitOnErrorC1ENSt7__cxx1112basic_stringIcSt11char_traitsIcESaIcEEEiEUlS3_E_E10_M_managerERSt9_Any_dataRKSE_St18_Manager_operation = comdat any

$_ZNSt14_Function_baseD2Ev = comdat any

$_ZNSt14_Function_base13_Base_managerIZN4llvm11ExitOnErrorC1ENSt7__cxx1112basic_stringIcSt11char_traitsIcESaIcEEEiEUlRKNS1_5ErrorEE_E15_M_init_functorERSt9_Any_dataOSC_St17integral_constantIbLb1EE = comdat any

$_ZNSt9_Any_data9_M_accessEv = comdat any

$_ZSt10__invoke_rIiRZN4llvm11ExitOnErrorC1ENSt7__cxx1112basic_stringIcSt11char_traitsIcESaIcEEEiEUlRKNS0_5ErrorEE_JSA_EENSt9enable_ifIXsr6__and_ISt6__not_ISt7is_voidIT_EESt14is_convertibleINSt15__invoke_resultIT0_JDpT1_EE4typeESG_EEE5valueESG_E4typeEOSL_DpOSM_ = comdat any

$_ZNSt14_Function_base13_Base_managerIZN4llvm11ExitOnErrorC1ENSt7__cxx1112basic_stringIcSt11char_traitsIcESaIcEEEiEUlRKNS1_5ErrorEE_E14_M_get_pointerERKSt9_Any_data = comdat any

$_ZSt7forwardIRKN4llvm5ErrorEEOT_RNSt16remove_referenceIS4_E4typeE = comdat any

$_ZSt13__invoke_implIiRZN4llvm11ExitOnErrorC1ENSt7__cxx1112basic_stringIcSt11char_traitsIcESaIcEEEiEUlRKNS0_5ErrorEE_JSA_EET_St14__invoke_otherOT0_DpOT1_ = comdat any

$_ZSt7forwardIRZN4llvm11ExitOnErrorC1ENSt7__cxx1112basic_stringIcSt11char_traitsIcESaIcEEEiEUlRKNS0_5ErrorEE_EOT_RNSt16remove_referenceISD_E4typeE = comdat any

$_ZZN4llvm11ExitOnErrorC1ENSt7__cxx1112basic_stringIcSt11char_traitsIcESaIcEEEiENKUlRKNS_5ErrorEE_clES9_ = comdat any

$_ZNKSt9_Any_data9_M_accessIZN4llvm11ExitOnErrorC1ENSt7__cxx1112basic_stringIcSt11char_traitsIcESaIcEEEiEUlRKNS1_5ErrorEE_EERKT_v = comdat any

$_ZSt11__addressofIKZN4llvm11ExitOnErrorC1ENSt7__cxx1112basic_stringIcSt11char_traitsIcESaIcEEEiEUlRKNS0_5ErrorEE_EPT_RSD_ = comdat any

$_ZNKSt9_Any_data9_M_accessEv = comdat any

$_ZNSt9_Any_data9_M_accessIPKSt9type_infoEERT_v = comdat any

$_ZNSt9_Any_data9_M_accessIPZN4llvm11ExitOnErrorC1ENSt7__cxx1112basic_stringIcSt11char_traitsIcESaIcEEEiEUlRKNS1_5ErrorEE_EERT_v = comdat any

$_ZNSt14_Function_base13_Base_managerIZN4llvm11ExitOnErrorC1ENSt7__cxx1112basic_stringIcSt11char_traitsIcESaIcEEEiEUlRKNS1_5ErrorEE_E10_M_managerERSt9_Any_dataRKSE_St18_Manager_operation = comdat any

$_ZNSt14_Function_base13_Base_managerIZN4llvm11ExitOnErrorC1ENSt7__cxx1112basic_stringIcSt11char_traitsIcESaIcEEEiEUlRKNS1_5ErrorEE_E8_M_cloneERSt9_Any_dataRKSE_St17integral_constantIbLb1EE = comdat any

$_ZNSt14_Function_base13_Base_managerIZN4llvm11ExitOnErrorC1ENSt7__cxx1112basic_stringIcSt11char_traitsIcESaIcEEEiEUlRKNS1_5ErrorEE_E10_M_destroyERSt9_Any_dataSt17integral_constantIbLb1EE = comdat any

$_ZNSt9_Any_data9_M_accessIZN4llvm11ExitOnErrorC1ENSt7__cxx1112basic_stringIcSt11char_traitsIcESaIcEEEiEUlRKNS1_5ErrorEE_EERT_v = comdat any

$_ZNSt8functionIFiRKN4llvm5ErrorEEED2Ev = comdat any

$_ZNKSt6vectorINSt7__cxx1112basic_stringIcSt11char_traitsIcESaIcEEESaIS5_EE4sizeEv = comdat any

$_ZNKSt10unique_ptrIN4llvm11LLVMContextESt14default_deleteIS1_EEdeEv = comdat any

$_ZNSaIPN4llvm4TypeEEC2Ev = comdat any

$_ZNSt6vectorIPN4llvm4TypeESaIS2_EEC2EyRKS2_RKS3_ = comdat any

$_ZNSaIPN4llvm4TypeEED2Ev = comdat any

$_ZN4llvm8ArrayRefIPNS_4TypeEEC2ISaIS2_EEERKSt6vectorIS2_T_E = comdat any

$_ZN4llvm8Function6CreateEPNS_12FunctionTypeENS_11GlobalValue12LinkageTypesERKNS_5TwineEPNS_6ModuleE = comdat any

$_ZN4llvm5TwineC2ERKNSt7__cxx1112basic_stringIcSt11char_traitsIcESaIcEEE = comdat any

$_ZNKSt10unique_ptrIN4llvm6ModuleESt14default_deleteIS1_EE3getEv = comdat any

$_ZN4llvm8Function4argsEv = comdat any

$_ZNK4llvm14iterator_rangeIPNS_8ArgumentEE5beginEv = comdat any

$_ZNK4llvm14iterator_rangeIPNS_8ArgumentEE3endEv = comdat any

$_ZNSt6vectorINSt7__cxx1112basic_stringIcSt11char_traitsIcESaIcEEESaIS5_EEixEy = comdat any

$_ZNSt6vectorIPN4llvm4TypeESaIS2_EED2Ev = comdat any

$_ZNKSt10unique_ptrIN4llvm11LLVMContextESt14default_deleteIS1_EE3getEv = comdat any

$_ZNKSt15__uniq_ptr_implIN4llvm11LLVMContextESt14default_deleteIS1_EE6_M_ptrEv = comdat any

$_ZSt3getILy0EJPN4llvm11LLVMContextESt14default_deleteIS1_EEERKNSt13tuple_elementIXT_ESt5tupleIJDpT0_EEE4typeERKS9_ = comdat any

$_ZSt12__get_helperILy0EPN4llvm11LLVMContextEJSt14default_deleteIS1_EEERKT0_RKSt11_Tuple_implIXT_EJS5_DpT1_EE = comdat any

$_ZNSt11_Tuple_implILy0EJPN4llvm11LLVMContextESt14default_deleteIS1_EEE7_M_headERKS5_ = comdat any

$_ZNSt10_Head_baseILy0EPN4llvm11LLVMContextELb0EE7_M_headERKS3_ = comdat any

$_ZN9__gnu_cxx13new_allocatorIPN4llvm4TypeEEC2Ev = comdat any

$_ZNSt6vectorIPN4llvm4TypeESaIS2_EE17_S_check_init_lenEyRKS3_ = comdat any

$_ZNSt12_Vector_baseIPN4llvm4TypeESaIS2_EEC2EyRKS3_ = comdat any

$_ZNSt6vectorIPN4llvm4TypeESaIS2_EE18_M_fill_initializeEyRKS2_ = comdat any

$_ZNSt12_Vector_baseIPN4llvm4TypeESaIS2_EED2Ev = comdat any

$_ZNSt6vectorIPN4llvm4TypeESaIS2_EE11_S_max_sizeERKS3_ = comdat any

$_ZNSaIPN4llvm4TypeEEC2ERKS2_ = comdat any

$_ZNSt16allocator_traitsISaIPN4llvm4TypeEEE8max_sizeERKS3_ = comdat any

$_ZSt3minIyERKT_S2_S2_ = comdat any

$_ZNK9__gnu_cxx13new_allocatorIPN4llvm4TypeEE8max_sizeEv = comdat any

$_ZNK9__gnu_cxx13new_allocatorIPN4llvm4TypeEE11_M_max_sizeEv = comdat any

$_ZN9__gnu_cxx13new_allocatorIPN4llvm4TypeEEC2ERKS4_ = comdat any

$_ZNSt12_Vector_baseIPN4llvm4TypeESaIS2_EE12_Vector_implC2ERKS3_ = comdat any

$_ZNSt12_Vector_baseIPN4llvm4TypeESaIS2_EE17_M_create_storageEy = comdat any

$_ZNSt12_Vector_baseIPN4llvm4TypeESaIS2_EE12_Vector_implD2Ev = comdat any

$_ZNSt12_Vector_baseIPN4llvm4TypeESaIS2_EE17_Vector_impl_dataC2Ev = comdat any

$_ZNSt12_Vector_baseIPN4llvm4TypeESaIS2_EE11_M_allocateEy = comdat any

$_ZNSt16allocator_traitsISaIPN4llvm4TypeEEE8allocateERS3_y = comdat any

$_ZN9__gnu_cxx13new_allocatorIPN4llvm4TypeEE8allocateEyPKv = comdat any

$_ZN9__gnu_cxx13new_allocatorIPN4llvm4TypeEED2Ev = comdat any

$_ZSt24__uninitialized_fill_n_aIPPN4llvm4TypeEyS2_S2_ET_S4_T0_RKT1_RSaIT2_E = comdat any

$_ZNSt12_Vector_baseIPN4llvm4TypeESaIS2_EE19_M_get_Tp_allocatorEv = comdat any

$_ZSt20uninitialized_fill_nIPPN4llvm4TypeEyS2_ET_S4_T0_RKT1_ = comdat any

$_ZNSt22__uninitialized_fill_nILb1EE15__uninit_fill_nIPPN4llvm4TypeEyS4_EET_S6_T0_RKT1_ = comdat any

$_ZSt6fill_nIPPN4llvm4TypeEyS2_ET_S4_T0_RKT1_ = comdat any

$_ZSt10__fill_n_aIPPN4llvm4TypeEyS2_ET_S4_T0_RKT1_St26random_access_iterator_tag = comdat any

$_ZSt17__size_to_integery = comdat any

$_ZSt19__iterator_categoryIPPN4llvm4TypeEENSt15iterator_traitsIT_E17iterator_categoryERKS5_ = comdat any

$_ZSt8__fill_aIPPN4llvm4TypeES2_EvT_S4_RKT0_ = comdat any

$_ZSt9__fill_a1IPPN4llvm4TypeES2_EN9__gnu_cxx11__enable_ifIXsr11__is_scalarIT0_EE7__valueEvE6__typeET_S9_RKS6_ = comdat any

$_ZNSt12_Vector_baseIPN4llvm4TypeESaIS2_EE13_M_deallocateEPS2_y = comdat any

$_ZNSt16allocator_traitsISaIPN4llvm4TypeEEE10deallocateERS3_PS2_y = comdat any

$_ZN9__gnu_cxx13new_allocatorIPN4llvm4TypeEE10deallocateEPS3_y = comdat any

$_ZNKSt6vectorIPN4llvm4TypeESaIS2_EE4dataEv = comdat any

$_ZNKSt6vectorIPN4llvm4TypeESaIS2_EE4sizeEv = comdat any

$_ZNKSt6vectorIPN4llvm4TypeESaIS2_EE11_M_data_ptrIS2_EEPT_S7_ = comdat any

$_ZNK4llvm5Twine7isValidEv = comdat any

$_ZNK4llvm5Twine9isNullaryEv = comdat any

$_ZNK4llvm5Twine10getRHSKindEv = comdat any

$_ZNK4llvm5Twine10getLHSKindEv = comdat any

$_ZNK4llvm5Twine8isBinaryEv = comdat any

$_ZNK4llvm5Twine6isNullEv = comdat any

$_ZNK4llvm5Twine7isEmptyEv = comdat any

$_ZNKSt15__uniq_ptr_implIN4llvm6ModuleESt14default_deleteIS1_EE6_M_ptrEv = comdat any

$_ZSt3getILy0EJPN4llvm6ModuleESt14default_deleteIS1_EEERKNSt13tuple_elementIXT_ESt5tupleIJDpT0_EEE4typeERKS9_ = comdat any

$_ZSt12__get_helperILy0EPN4llvm6ModuleEJSt14default_deleteIS1_EEERKT0_RKSt11_Tuple_implIXT_EJS5_DpT1_EE = comdat any

$_ZNSt11_Tuple_implILy0EJPN4llvm6ModuleESt14default_deleteIS1_EEE7_M_headERKS5_ = comdat any

$_ZNSt10_Head_baseILy0EPN4llvm6ModuleELb0EE7_M_headERKS3_ = comdat any

$_ZN4llvm10make_rangeIPNS_8ArgumentEEENS_14iterator_rangeIT_EES4_S4_ = comdat any

$_ZN4llvm8Function9arg_beginEv = comdat any

$_ZN4llvm8Function7arg_endEv = comdat any

$_ZSt4moveIRPN4llvm8ArgumentEEONSt16remove_referenceIT_E4typeEOS5_ = comdat any

$_ZN4llvm14iterator_rangeIPNS_8ArgumentEEC2ES2_S2_ = comdat any

$_ZNK4llvm8Function18CheckLazyArgumentsEv = comdat any

$_ZNK4llvm8Function16hasLazyArgumentsEv = comdat any

$_ZNK4llvm5Value24getSubclassDataFromValueEv = comdat any

$_ZSt8_DestroyIPPN4llvm4TypeES2_EvT_S4_RSaIT0_E = comdat any

$_ZSt8_DestroyIPPN4llvm4TypeEEvT_S4_ = comdat any

$_ZNSt12_Destroy_auxILb1EE9__destroyIPPN4llvm4TypeEEEvT_S6_ = comdat any

$_ZSteqIcSt11char_traitsIcESaIcEEbRKNSt7__cxx1112basic_stringIT_T0_T1_EEPKS5_ = comdat any

$strtod = comdat any

$_ZSt11make_uniqueIN4llvm11LLVMContextEJEENSt9_MakeUniqIT_E15__single_objectEDpOT0_ = comdat any

$_ZNSt10unique_ptrIN4llvm11LLVMContextESt14default_deleteIS1_EEaSEOS4_ = comdat any

$_ZSt11make_uniqueIN4llvm6ModuleEJRA12_KcRNS0_11LLVMContextEEENSt9_MakeUniqIT_E15__single_objectEDpOT0_ = comdat any

$_ZNSt10unique_ptrIN4llvm6ModuleESt14default_deleteIS1_EEaSEOS4_ = comdat any

$_ZSt11make_uniqueIN4llvm9IRBuilderINS0_14ConstantFolderENS0_24IRBuilderDefaultInserterEEEJRNS0_11LLVMContextEEENSt9_MakeUniqIT_E15__single_objectEDpOT0_ = comdat any

$_ZNSt10unique_ptrIN4llvm9IRBuilderINS0_14ConstantFolderENS0_24IRBuilderDefaultInserterEEESt14default_deleteIS4_EEaSEOS7_ = comdat any

$_ZNSt10unique_ptrIN4llvm11LLVMContextESt14default_deleteIS1_EEC2IS3_vEEPS1_ = comdat any

$_ZNSt15__uniq_ptr_dataIN4llvm11LLVMContextESt14default_deleteIS1_ELb1ELb1EECI2St15__uniq_ptr_implIS1_S3_EEPS1_ = comdat any

$_ZNSt15__uniq_ptr_implIN4llvm11LLVMContextESt14default_deleteIS1_EEC2EPS1_ = comdat any

$_ZNSt5tupleIJPN4llvm11LLVMContextESt14default_deleteIS1_EEEC2ILb1ELb1EEEv = comdat any

$_ZNSt15__uniq_ptr_implIN4llvm11LLVMContextESt14default_deleteIS1_EE6_M_ptrEv = comdat any

$_ZNSt11_Tuple_implILy0EJPN4llvm11LLVMContextESt14default_deleteIS1_EEEC2Ev = comdat any

$_ZNSt11_Tuple_implILy1EJSt14default_deleteIN4llvm11LLVMContextEEEEC2Ev = comdat any

$_ZNSt10_Head_baseILy0EPN4llvm11LLVMContextELb0EEC2Ev = comdat any

$_ZNSt10_Head_baseILy1ESt14default_deleteIN4llvm11LLVMContextEELb1EEC2Ev = comdat any

$_ZSt3getILy0EJPN4llvm11LLVMContextESt14default_deleteIS1_EEERNSt13tuple_elementIXT_ESt5tupleIJDpT0_EEE4typeERS9_ = comdat any

$_ZSt12__get_helperILy0EPN4llvm11LLVMContextEJSt14default_deleteIS1_EEERT0_RSt11_Tuple_implIXT_EJS5_DpT1_EE = comdat any

$_ZNSt11_Tuple_implILy0EJPN4llvm11LLVMContextESt14default_deleteIS1_EEE7_M_headERS5_ = comdat any

$_ZNSt10_Head_baseILy0EPN4llvm11LLVMContextELb0EE7_M_headERS3_ = comdat any

$_ZNSt15__uniq_ptr_dataIN4llvm11LLVMContextESt14default_deleteIS1_ELb1ELb1EEaSEOS4_ = comdat any

$_ZNSt15__uniq_ptr_implIN4llvm11LLVMContextESt14default_deleteIS1_EEaSEOS4_ = comdat any

$_ZNSt15__uniq_ptr_implIN4llvm11LLVMContextESt14default_deleteIS1_EE5resetEPS1_ = comdat any

$_ZNSt15__uniq_ptr_implIN4llvm11LLVMContextESt14default_deleteIS1_EE7releaseEv = comdat any

$_ZSt7forwardISt14default_deleteIN4llvm11LLVMContextEEEOT_RNSt16remove_referenceIS4_E4typeE = comdat any

$_ZNSt15__uniq_ptr_implIN4llvm11LLVMContextESt14default_deleteIS1_EE10_M_deleterEv = comdat any

$_ZNKSt14default_deleteIN4llvm11LLVMContextEEclEPS1_ = comdat any

$_ZSt3getILy1EJPN4llvm11LLVMContextESt14default_deleteIS1_EEERNSt13tuple_elementIXT_ESt5tupleIJDpT0_EEE4typeERS9_ = comdat any

$_ZSt12__get_helperILy1ESt14default_deleteIN4llvm11LLVMContextEEJEERT0_RSt11_Tuple_implIXT_EJS4_DpT1_EE = comdat any

$_ZNSt11_Tuple_implILy1EJSt14default_deleteIN4llvm11LLVMContextEEEE7_M_headERS4_ = comdat any

$_ZNSt10_Head_baseILy1ESt14default_deleteIN4llvm11LLVMContextEELb1EE7_M_headERS4_ = comdat any

$_ZSt7forwardIRA12_KcEOT_RNSt16remove_referenceIS3_E4typeE = comdat any

$_ZSt7forwardIRN4llvm11LLVMContextEEOT_RNSt16remove_referenceIS3_E4typeE = comdat any

$_ZNSt10unique_ptrIN4llvm6ModuleESt14default_deleteIS1_EEC2IS3_vEEPS1_ = comdat any

$_ZNSt15__uniq_ptr_dataIN4llvm6ModuleESt14default_deleteIS1_ELb1ELb1EECI2St15__uniq_ptr_implIS1_S3_EEPS1_ = comdat any

$_ZNSt15__uniq_ptr_implIN4llvm6ModuleESt14default_deleteIS1_EEC2EPS1_ = comdat any

$_ZNSt5tupleIJPN4llvm6ModuleESt14default_deleteIS1_EEEC2ILb1ELb1EEEv = comdat any

$_ZNSt15__uniq_ptr_implIN4llvm6ModuleESt14default_deleteIS1_EE6_M_ptrEv = comdat any

$_ZNSt11_Tuple_implILy0EJPN4llvm6ModuleESt14default_deleteIS1_EEEC2Ev = comdat any

$_ZNSt11_Tuple_implILy1EJSt14default_deleteIN4llvm6ModuleEEEEC2Ev = comdat any

$_ZNSt10_Head_baseILy0EPN4llvm6ModuleELb0EEC2Ev = comdat any

$_ZNSt10_Head_baseILy1ESt14default_deleteIN4llvm6ModuleEELb1EEC2Ev = comdat any

$_ZSt3getILy0EJPN4llvm6ModuleESt14default_deleteIS1_EEERNSt13tuple_elementIXT_ESt5tupleIJDpT0_EEE4typeERS9_ = comdat any

$_ZSt12__get_helperILy0EPN4llvm6ModuleEJSt14default_deleteIS1_EEERT0_RSt11_Tuple_implIXT_EJS5_DpT1_EE = comdat any

$_ZNSt11_Tuple_implILy0EJPN4llvm6ModuleESt14default_deleteIS1_EEE7_M_headERS5_ = comdat any

$_ZNSt10_Head_baseILy0EPN4llvm6ModuleELb0EE7_M_headERS3_ = comdat any

$_ZNSt15__uniq_ptr_dataIN4llvm6ModuleESt14default_deleteIS1_ELb1ELb1EEaSEOS4_ = comdat any

$_ZNSt15__uniq_ptr_implIN4llvm6ModuleESt14default_deleteIS1_EEaSEOS4_ = comdat any

$_ZNSt15__uniq_ptr_implIN4llvm6ModuleESt14default_deleteIS1_EE5resetEPS1_ = comdat any

$_ZNSt15__uniq_ptr_implIN4llvm6ModuleESt14default_deleteIS1_EE7releaseEv = comdat any

$_ZSt7forwardISt14default_deleteIN4llvm6ModuleEEEOT_RNSt16remove_referenceIS4_E4typeE = comdat any

$_ZNSt15__uniq_ptr_implIN4llvm6ModuleESt14default_deleteIS1_EE10_M_deleterEv = comdat any

$_ZNKSt14default_deleteIN4llvm6ModuleEEclEPS1_ = comdat any

$_ZSt3getILy1EJPN4llvm6ModuleESt14default_deleteIS1_EEERNSt13tuple_elementIXT_ESt5tupleIJDpT0_EEE4typeERS9_ = comdat any

$_ZSt12__get_helperILy1ESt14default_deleteIN4llvm6ModuleEEJEERT0_RSt11_Tuple_implIXT_EJS4_DpT1_EE = comdat any

$_ZNSt11_Tuple_implILy1EJSt14default_deleteIN4llvm6ModuleEEEE7_M_headERS4_ = comdat any

$_ZNSt10_Head_baseILy1ESt14default_deleteIN4llvm6ModuleEELb1EE7_M_headERS4_ = comdat any

$_ZN4llvm8ArrayRefINS_17OperandBundleDefTIPNS_5ValueEEEEC2ENS_8NoneTypeE = comdat any

$_ZN4llvm9IRBuilderINS_14ConstantFolderENS_24IRBuilderDefaultInserterEEC2ERNS_11LLVMContextEPNS_6MDNodeENS_8ArrayRefINS_17OperandBundleDefTIPNS_5ValueEEEEE = comdat any

$_ZNSt10unique_ptrIN4llvm9IRBuilderINS0_14ConstantFolderENS0_24IRBuilderDefaultInserterEEESt14default_deleteIS4_EEC2IS6_vEEPS4_ = comdat any

$_ZN4llvm13IRBuilderBaseC2ERNS_11LLVMContextERKNS_15IRBuilderFolderERKNS_24IRBuilderDefaultInserterEPNS_6MDNodeENS_8ArrayRefINS_17OperandBundleDefTIPNS_5ValueEEEEE = comdat any

$_ZN4llvm14ConstantFolderC2Ev = comdat any

$_ZN4llvm24IRBuilderDefaultInserterC2Ev = comdat any

$_ZN4llvm11SmallVectorISt4pairIjPNS_6MDNodeEELj2EEC2Ev = comdat any

$_ZN4llvm14ilist_iteratorINS_12ilist_detail12node_optionsINS_11InstructionELb0ELb0EvEELb0ELb0EEC2Ev = comdat any

$_ZN4llvm13FastMathFlagsC2Ev = comdat any

$_ZN4llvm13IRBuilderBase19ClearInsertionPointEv = comdat any

$_ZN4llvm11SmallVectorISt4pairIjPNS_6MDNodeEELj2EED2Ev = comdat any

$_ZN4llvm15SmallVectorImplISt4pairIjPNS_6MDNodeEEEC2Ej = comdat any

$_ZN4llvm23SmallVectorTemplateBaseISt4pairIjPNS_6MDNodeEELb1EEC2Ey = comdat any

$_ZN4llvm25SmallVectorTemplateCommonISt4pairIjPNS_6MDNodeEEvEC2Ey = comdat any

$_ZNK4llvm25SmallVectorTemplateCommonISt4pairIjPNS_6MDNodeEEvE10getFirstElEv = comdat any

$_ZN4llvm15SmallVectorBaseIjEC2EPvy = comdat any

$_ZN4llvm23SmallVectorTemplateBaseISt4pairIjPNS_6MDNodeEELb1EE13destroy_rangeEPS4_S6_ = comdat any

$_ZN4llvm25SmallVectorTemplateCommonISt4pairIjPNS_6MDNodeEEvE5beginEv = comdat any

$_ZN4llvm25SmallVectorTemplateCommonISt4pairIjPNS_6MDNodeEEvE3endEv = comdat any

$_ZN4llvm15SmallVectorImplISt4pairIjPNS_6MDNodeEEED2Ev = comdat any

$_ZNK4llvm15SmallVectorBaseIjE4sizeEv = comdat any

$_ZNK4llvm25SmallVectorTemplateCommonISt4pairIjPNS_6MDNodeEEvE7isSmallEv = comdat any

$_ZN4llvm15IRBuilderFolderC2Ev = comdat any

$_ZNSt15__uniq_ptr_dataIN4llvm9IRBuilderINS0_14ConstantFolderENS0_24IRBuilderDefaultInserterEEESt14default_deleteIS4_ELb1ELb1EECI2St15__uniq_ptr_implIS4_S6_EEPS4_ = comdat any

$_ZNSt15__uniq_ptr_implIN4llvm9IRBuilderINS0_14ConstantFolderENS0_24IRBuilderDefaultInserterEEESt14default_deleteIS4_EEC2EPS4_ = comdat any

$_ZNSt5tupleIJPN4llvm9IRBuilderINS0_14ConstantFolderENS0_24IRBuilderDefaultInserterEEESt14default_deleteIS4_EEEC2ILb1ELb1EEEv = comdat any

$_ZNSt15__uniq_ptr_implIN4llvm9IRBuilderINS0_14ConstantFolderENS0_24IRBuilderDefaultInserterEEESt14default_deleteIS4_EE6_M_ptrEv = comdat any

$_ZNSt11_Tuple_implILy0EJPN4llvm9IRBuilderINS0_14ConstantFolderENS0_24IRBuilderDefaultInserterEEESt14default_deleteIS4_EEEC2Ev = comdat any

$_ZNSt11_Tuple_implILy1EJSt14default_deleteIN4llvm9IRBuilderINS1_14ConstantFolderENS1_24IRBuilderDefaultInserterEEEEEEC2Ev = comdat any

$_ZNSt10_Head_baseILy0EPN4llvm9IRBuilderINS0_14ConstantFolderENS0_24IRBuilderDefaultInserterEEELb0EEC2Ev = comdat any

$_ZNSt10_Head_baseILy1ESt14default_deleteIN4llvm9IRBuilderINS1_14ConstantFolderENS1_24IRBuilderDefaultInserterEEEELb1EEC2Ev = comdat any

$_ZSt3getILy0EJPN4llvm9IRBuilderINS0_14ConstantFolderENS0_24IRBuilderDefaultInserterEEESt14default_deleteIS4_EEERNSt13tuple_elementIXT_ESt5tupleIJDpT0_EEE4typeERSC_ = comdat any

$_ZSt12__get_helperILy0EPN4llvm9IRBuilderINS0_14ConstantFolderENS0_24IRBuilderDefaultInserterEEEJSt14default_deleteIS4_EEERT0_RSt11_Tuple_implIXT_EJS8_DpT1_EE = comdat any

$_ZNSt11_Tuple_implILy0EJPN4llvm9IRBuilderINS0_14ConstantFolderENS0_24IRBuilderDefaultInserterEEESt14default_deleteIS4_EEE7_M_headERS8_ = comdat any

$_ZNSt10_Head_baseILy0EPN4llvm9IRBuilderINS0_14ConstantFolderENS0_24IRBuilderDefaultInserterEEELb0EE7_M_headERS6_ = comdat any

$_ZNSt15__uniq_ptr_dataIN4llvm9IRBuilderINS0_14ConstantFolderENS0_24IRBuilderDefaultInserterEEESt14default_deleteIS4_ELb1ELb1EEaSEOS7_ = comdat any

$_ZNSt15__uniq_ptr_implIN4llvm9IRBuilderINS0_14ConstantFolderENS0_24IRBuilderDefaultInserterEEESt14default_deleteIS4_EEaSEOS7_ = comdat any

$_ZNSt15__uniq_ptr_implIN4llvm9IRBuilderINS0_14ConstantFolderENS0_24IRBuilderDefaultInserterEEESt14default_deleteIS4_EE5resetEPS4_ = comdat any

$_ZNSt15__uniq_ptr_implIN4llvm9IRBuilderINS0_14ConstantFolderENS0_24IRBuilderDefaultInserterEEESt14default_deleteIS4_EE7releaseEv = comdat any

$_ZSt7forwardISt14default_deleteIN4llvm9IRBuilderINS1_14ConstantFolderENS1_24IRBuilderDefaultInserterEEEEEOT_RNSt16remove_referenceIS7_E4typeE = comdat any

$_ZNSt15__uniq_ptr_implIN4llvm9IRBuilderINS0_14ConstantFolderENS0_24IRBuilderDefaultInserterEEESt14default_deleteIS4_EE10_M_deleterEv = comdat any

$_ZNKSt14default_deleteIN4llvm9IRBuilderINS0_14ConstantFolderENS0_24IRBuilderDefaultInserterEEEEclEPS4_ = comdat any

$_ZN4llvm9IRBuilderINS_14ConstantFolderENS_24IRBuilderDefaultInserterEED2Ev = comdat any

$_ZN4llvm14ConstantFolderD2Ev = comdat any

$_ZN4llvm13IRBuilderBaseD2Ev = comdat any

$_ZSt3getILy1EJPN4llvm9IRBuilderINS0_14ConstantFolderENS0_24IRBuilderDefaultInserterEEESt14default_deleteIS4_EEERNSt13tuple_elementIXT_ESt5tupleIJDpT0_EEE4typeERSC_ = comdat any

$_ZSt12__get_helperILy1ESt14default_deleteIN4llvm9IRBuilderINS1_14ConstantFolderENS1_24IRBuilderDefaultInserterEEEEJEERT0_RSt11_Tuple_implIXT_EJS7_DpT1_EE = comdat any

$_ZNSt11_Tuple_implILy1EJSt14default_deleteIN4llvm9IRBuilderINS1_14ConstantFolderENS1_24IRBuilderDefaultInserterEEEEEE7_M_headERS7_ = comdat any

$_ZNSt10_Head_baseILy1ESt14default_deleteIN4llvm9IRBuilderINS1_14ConstantFolderENS1_24IRBuilderDefaultInserterEEEELb1EE7_M_headERS7_ = comdat any

$_ZNSt6vectorINSt7__cxx1112basic_stringIcSt11char_traitsIcESaIcEEESaIS5_EEC2Ev = comdat any

$_ZNSt6vectorINSt7__cxx1112basic_stringIcSt11char_traitsIcESaIcEEESaIS5_EE9push_backERKS5_ = comdat any

$_ZNSt12_Vector_baseINSt7__cxx1112basic_stringIcSt11char_traitsIcESaIcEEESaIS5_EEC2Ev = comdat any

$_ZNSt12_Vector_baseINSt7__cxx1112basic_stringIcSt11char_traitsIcESaIcEEESaIS5_EE12_Vector_implC2Ev = comdat any

$_ZNSaINSt7__cxx1112basic_stringIcSt11char_traitsIcESaIcEEEEC2Ev = comdat any

$_ZNSt12_Vector_baseINSt7__cxx1112basic_stringIcSt11char_traitsIcESaIcEEESaIS5_EE17_Vector_impl_dataC2Ev = comdat any

$_ZN9__gnu_cxx13new_allocatorINSt7__cxx1112basic_stringIcSt11char_traitsIcESaIcEEEEC2Ev = comdat any

$_ZNSt16allocator_traitsISaINSt7__cxx1112basic_stringIcSt11char_traitsIcESaIcEEEEE9constructIS5_JRKS5_EEEvRS6_PT_DpOT0_ = comdat any

$_ZNSt6vectorINSt7__cxx1112basic_stringIcSt11char_traitsIcESaIcEEESaIS5_EE17_M_realloc_insertIJRKS5_EEEvN9__gnu_cxx17__normal_iteratorIPS5_S7_EEDpOT_ = comdat any

$_ZNSt6vectorINSt7__cxx1112basic_stringIcSt11char_traitsIcESaIcEEESaIS5_EE3endEv = comdat any

$_ZN9__gnu_cxx13new_allocatorINSt7__cxx1112basic_stringIcSt11char_traitsIcESaIcEEEE9constructIS6_JRKS6_EEEvPT_DpOT0_ = comdat any

$_ZSt7forwardIRKNSt7__cxx1112basic_stringIcSt11char_traitsIcESaIcEEEEOT_RNSt16remove_referenceIS8_E4typeE = comdat any

$_ZNKSt6vectorINSt7__cxx1112basic_stringIcSt11char_traitsIcESaIcEEESaIS5_EE12_M_check_lenEyPKc = comdat any

$_ZN9__gnu_cxxmiIPNSt7__cxx1112basic_stringIcSt11char_traitsIcESaIcEEESt6vectorIS6_SaIS6_EEEENS_17__normal_iteratorIT_T0_E15difference_typeERKSE_SH_ = comdat any

$_ZNSt6vectorINSt7__cxx1112basic_stringIcSt11char_traitsIcESaIcEEESaIS5_EE5beginEv = comdat any

$_ZNSt12_Vector_baseINSt7__cxx1112basic_stringIcSt11char_traitsIcESaIcEEESaIS5_EE11_M_allocateEy = comdat any

$_ZNSt6vectorINSt7__cxx1112basic_stringIcSt11char_traitsIcESaIcEEESaIS5_EE11_S_relocateEPS5_S8_S8_RS6_ = comdat any

$_ZNK9__gnu_cxx17__normal_iteratorIPNSt7__cxx1112basic_stringIcSt11char_traitsIcESaIcEEESt6vectorIS6_SaIS6_EEE4baseEv = comdat any

$_ZNSt16allocator_traitsISaINSt7__cxx1112basic_stringIcSt11char_traitsIcESaIcEEEEE7destroyIS5_EEvRS6_PT_ = comdat any

$_ZNKSt6vectorINSt7__cxx1112basic_stringIcSt11char_traitsIcESaIcEEESaIS5_EE8max_sizeEv = comdat any

$_ZSt3maxIyERKT_S2_S2_ = comdat any

$_ZNSt6vectorINSt7__cxx1112basic_stringIcSt11char_traitsIcESaIcEEESaIS5_EE11_S_max_sizeERKS6_ = comdat any

$_ZNKSt12_Vector_baseINSt7__cxx1112basic_stringIcSt11char_traitsIcESaIcEEESaIS5_EE19_M_get_Tp_allocatorEv = comdat any

$_ZNSt16allocator_traitsISaINSt7__cxx1112basic_stringIcSt11char_traitsIcESaIcEEEEE8max_sizeERKS6_ = comdat any

$_ZNK9__gnu_cxx13new_allocatorINSt7__cxx1112basic_stringIcSt11char_traitsIcESaIcEEEE8max_sizeEv = comdat any

$_ZNK9__gnu_cxx13new_allocatorINSt7__cxx1112basic_stringIcSt11char_traitsIcESaIcEEEE11_M_max_sizeEv = comdat any

$_ZN9__gnu_cxx17__normal_iteratorIPNSt7__cxx1112basic_stringIcSt11char_traitsIcESaIcEEESt6vectorIS6_SaIS6_EEEC2ERKS7_ = comdat any

$_ZNSt16allocator_traitsISaINSt7__cxx1112basic_stringIcSt11char_traitsIcESaIcEEEEE8allocateERS6_y = comdat any

$_ZN9__gnu_cxx13new_allocatorINSt7__cxx1112basic_stringIcSt11char_traitsIcESaIcEEEE8allocateEyPKv = comdat any

$_ZNSt6vectorINSt7__cxx1112basic_stringIcSt11char_traitsIcESaIcEEESaIS5_EE14_S_do_relocateEPS5_S8_S8_RS6_St17integral_constantIbLb1EE = comdat any

$_ZSt12__relocate_aIPNSt7__cxx1112basic_stringIcSt11char_traitsIcESaIcEEES6_SaIS5_EET0_T_S9_S8_RT1_ = comdat any

$_ZSt14__relocate_a_1IPNSt7__cxx1112basic_stringIcSt11char_traitsIcESaIcEEES6_SaIS5_EET0_T_S9_S8_RT1_ = comdat any

$_ZSt12__niter_baseIPNSt7__cxx1112basic_stringIcSt11char_traitsIcESaIcEEEET_S7_ = comdat any

$_ZSt19__relocate_object_aINSt7__cxx1112basic_stringIcSt11char_traitsIcESaIcEEES5_SaIS5_EEvPT_PT0_RT1_ = comdat any

$_ZNSt16allocator_traitsISaINSt7__cxx1112basic_stringIcSt11char_traitsIcESaIcEEEEE9constructIS5_JS5_EEEvRS6_PT_DpOT0_ = comdat any

$_ZN9__gnu_cxx13new_allocatorINSt7__cxx1112basic_stringIcSt11char_traitsIcESaIcEEEE9constructIS6_JS6_EEEvPT_DpOT0_ = comdat any

$_ZSt7forwardINSt7__cxx1112basic_stringIcSt11char_traitsIcESaIcEEEEOT_RNSt16remove_referenceIS6_E4typeE = comdat any

$_ZN9__gnu_cxx13new_allocatorINSt7__cxx1112basic_stringIcSt11char_traitsIcESaIcEEEE7destroyIS6_EEvPT_ = comdat any

$_ZSt7forwardIRNSt7__cxx1112basic_stringIcSt11char_traitsIcESaIcEEEEOT_RNSt16remove_referenceIS7_E4typeE = comdat any

$_ZSt7forwardIRSt6vectorINSt7__cxx1112basic_stringIcSt11char_traitsIcESaIcEEESaIS6_EEEOT_RNSt16remove_referenceISA_E4typeE = comdat any

$_ZNSt6vectorINSt7__cxx1112basic_stringIcSt11char_traitsIcESaIcEEESaIS5_EEC2ERKS7_ = comdat any

$_ZSt7forwardIbEOT_RNSt16remove_referenceIS0_E4typeE = comdat any

$_ZSt7forwardIRjEOT_RNSt16remove_referenceIS1_E4typeE = comdat any

$_ZN9__gnu_cxx14__alloc_traitsISaINSt7__cxx1112basic_stringIcSt11char_traitsIcESaIcEEEES6_E17_S_select_on_copyERKS7_ = comdat any

$_ZNSt12_Vector_baseINSt7__cxx1112basic_stringIcSt11char_traitsIcESaIcEEESaIS5_EEC2EyRKS6_ = comdat any

$_ZNSaINSt7__cxx1112basic_stringIcSt11char_traitsIcESaIcEEEED2Ev = comdat any

$_ZSt22__uninitialized_copy_aIN9__gnu_cxx17__normal_iteratorIPKNSt7__cxx1112basic_stringIcSt11char_traitsIcESaIcEEESt6vectorIS7_SaIS7_EEEEPS7_S7_ET0_T_SG_SF_RSaIT1_E = comdat any

$_ZNKSt6vectorINSt7__cxx1112basic_stringIcSt11char_traitsIcESaIcEEESaIS5_EE5beginEv = comdat any

$_ZNKSt6vectorINSt7__cxx1112basic_stringIcSt11char_traitsIcESaIcEEESaIS5_EE3endEv = comdat any

$_ZNSt16allocator_traitsISaINSt7__cxx1112basic_stringIcSt11char_traitsIcESaIcEEEEE37select_on_container_copy_constructionERKS6_ = comdat any

$_ZNSaINSt7__cxx1112basic_stringIcSt11char_traitsIcESaIcEEEEC2ERKS5_ = comdat any

$_ZN9__gnu_cxx13new_allocatorINSt7__cxx1112basic_stringIcSt11char_traitsIcESaIcEEEEC2ERKS7_ = comdat any

$_ZNSt12_Vector_baseINSt7__cxx1112basic_stringIcSt11char_traitsIcESaIcEEESaIS5_EE12_Vector_implC2ERKS6_ = comdat any

$_ZNSt12_Vector_baseINSt7__cxx1112basic_stringIcSt11char_traitsIcESaIcEEESaIS5_EE17_M_create_storageEy = comdat any

$_ZSt18uninitialized_copyIN9__gnu_cxx17__normal_iteratorIPKNSt7__cxx1112basic_stringIcSt11char_traitsIcESaIcEEESt6vectorIS7_SaIS7_EEEEPS7_ET0_T_SG_SF_ = comdat any

$_ZNSt20__uninitialized_copyILb0EE13__uninit_copyIN9__gnu_cxx17__normal_iteratorIPKNSt7__cxx1112basic_stringIcSt11char_traitsIcESaIcEEESt6vectorIS9_SaIS9_EEEEPS9_EET0_T_SI_SH_ = comdat any

$_ZN9__gnu_cxxneIPKNSt7__cxx1112basic_stringIcSt11char_traitsIcESaIcEEESt6vectorIS6_SaIS6_EEEEbRKNS_17__normal_iteratorIT_T0_EESH_ = comdat any

$_ZSt10_ConstructINSt7__cxx1112basic_stringIcSt11char_traitsIcESaIcEEEJRKS5_EEvPT_DpOT0_ = comdat any

$_ZNK9__gnu_cxx17__normal_iteratorIPKNSt7__cxx1112basic_stringIcSt11char_traitsIcESaIcEEESt6vectorIS6_SaIS6_EEEdeEv = comdat any

$_ZN9__gnu_cxx17__normal_iteratorIPKNSt7__cxx1112basic_stringIcSt11char_traitsIcESaIcEEESt6vectorIS6_SaIS6_EEEppEv = comdat any

$_ZNK9__gnu_cxx17__normal_iteratorIPKNSt7__cxx1112basic_stringIcSt11char_traitsIcESaIcEEESt6vectorIS6_SaIS6_EEE4baseEv = comdat any

$_ZN9__gnu_cxx17__normal_iteratorIPKNSt7__cxx1112basic_stringIcSt11char_traitsIcESaIcEEESt6vectorIS6_SaIS6_EEEC2ERKS8_ = comdat any

$_ZSt4moveIRSt6vectorINSt7__cxx1112basic_stringIcSt11char_traitsIcESaIcEEESaIS6_EEEONSt16remove_referenceIT_E4typeEOSB_ = comdat any

$_ZNSt6vectorINSt7__cxx1112basic_stringIcSt11char_traitsIcESaIcEEESaIS5_EEC2EOS7_ = comdat any

$_ZNSt12_Vector_baseINSt7__cxx1112basic_stringIcSt11char_traitsIcESaIcEEESaIS5_EEC2EOS7_ = comdat any

$_ZNSt12_Vector_baseINSt7__cxx1112basic_stringIcSt11char_traitsIcESaIcEEESaIS5_EE12_Vector_implC2EOS8_ = comdat any

$_ZSt4moveIRNSt12_Vector_baseINSt7__cxx1112basic_stringIcSt11char_traitsIcESaIcEEESaIS6_EE12_Vector_implEEONSt16remove_referenceIT_E4typeEOSC_ = comdat any

$_ZNSt12_Vector_baseINSt7__cxx1112basic_stringIcSt11char_traitsIcESaIcEEESaIS5_EE17_Vector_impl_dataC2EOS8_ = comdat any

$_ZNSt3mapINSt7__cxx1112basic_stringIcSt11char_traitsIcESaIcEEEPN4llvm10AllocaInstESt4lessIS5_ESaISt4pairIKS5_S8_EEEixERSC_ = comdat any

$_ZNKSt10unique_ptrIN4llvm9IRBuilderINS0_14ConstantFolderENS0_24IRBuilderDefaultInserterEEESt14default_deleteIS4_EEptEv = comdat any

$_ZN4llvm13IRBuilderBase10CreateLoadEPNS_5ValueEPKc = comdat any

$_ZNSt3mapINSt7__cxx1112basic_stringIcSt11char_traitsIcESaIcEEEPN4llvm10AllocaInstESt4lessIS5_ESaISt4pairIKS5_S8_EEE11lower_boundERSC_ = comdat any

$_ZSteqRKSt17_Rb_tree_iteratorISt4pairIKNSt7__cxx1112basic_stringIcSt11char_traitsIcESaIcEEEPN4llvm10AllocaInstEEESE_ = comdat any

$_ZNSt3mapINSt7__cxx1112basic_stringIcSt11char_traitsIcESaIcEEEPN4llvm10AllocaInstESt4lessIS5_ESaISt4pairIKS5_S8_EEE3endEv = comdat any

$_ZNKSt3mapINSt7__cxx1112basic_stringIcSt11char_traitsIcESaIcEEEPN4llvm10AllocaInstESt4lessIS5_ESaISt4pairIKS5_S8_EEE8key_compEv = comdat any

$_ZNKSt4lessINSt7__cxx1112basic_stringIcSt11char_traitsIcESaIcEEEEclERKS5_S8_ = comdat any

$_ZNKSt17_Rb_tree_iteratorISt4pairIKNSt7__cxx1112basic_stringIcSt11char_traitsIcESaIcEEEPN4llvm10AllocaInstEEEdeEv = comdat any

$_ZNSt8_Rb_treeINSt7__cxx1112basic_stringIcSt11char_traitsIcESaIcEEESt4pairIKS5_PN4llvm10AllocaInstEESt10_Select1stISB_ESt4lessIS5_ESaISB_EE22_M_emplace_hint_uniqueIJRKSt21piecewise_construct_tSt5tupleIJRS7_EESM_IJEEEEESt17_Rb_tree_iteratorISB_ESt23_Rb_tree_const_iteratorISB_EDpOT_ = comdat any

$_ZNSt23_Rb_tree_const_iteratorISt4pairIKNSt7__cxx1112basic_stringIcSt11char_traitsIcESaIcEEEPN4llvm10AllocaInstEEEC2ERKSt17_Rb_tree_iteratorISB_E = comdat any

$_ZNSt5tupleIJRKNSt7__cxx1112basic_stringIcSt11char_traitsIcESaIcEEEEEC2ILb1ELb1EEES7_ = comdat any

$_ZNSt8_Rb_treeINSt7__cxx1112basic_stringIcSt11char_traitsIcESaIcEEESt4pairIKS5_PN4llvm10AllocaInstEESt10_Select1stISB_ESt4lessIS5_ESaISB_EE11lower_boundERS7_ = comdat any

$_ZNSt8_Rb_treeINSt7__cxx1112basic_stringIcSt11char_traitsIcESaIcEEESt4pairIKS5_PN4llvm10AllocaInstEESt10_Select1stISB_ESt4lessIS5_ESaISB_EE14_M_lower_boundEPSt13_Rb_tree_nodeISB_EPSt18_Rb_tree_node_baseRS7_ = comdat any

$_ZNSt8_Rb_treeINSt7__cxx1112basic_stringIcSt11char_traitsIcESaIcEEESt4pairIKS5_PN4llvm10AllocaInstEESt10_Select1stISB_ESt4lessIS5_ESaISB_EE6_M_endEv = comdat any

$_ZNSt8_Rb_treeINSt7__cxx1112basic_stringIcSt11char_traitsIcESaIcEEESt4pairIKS5_PN4llvm10AllocaInstEESt10_Select1stISB_ESt4lessIS5_ESaISB_EE6_S_keyEPKSt13_Rb_tree_nodeISB_E = comdat any

$_ZNSt17_Rb_tree_iteratorISt4pairIKNSt7__cxx1112basic_stringIcSt11char_traitsIcESaIcEEEPN4llvm10AllocaInstEEEC2EPSt18_Rb_tree_node_base = comdat any

$_ZNKSt10_Select1stISt4pairIKNSt7__cxx1112basic_stringIcSt11char_traitsIcESaIcEEEPN4llvm10AllocaInstEEEclERKSB_ = comdat any

$_ZNKSt13_Rb_tree_nodeISt4pairIKNSt7__cxx1112basic_stringIcSt11char_traitsIcESaIcEEEPN4llvm10AllocaInstEEE9_M_valptrEv = comdat any

$_ZNK9__gnu_cxx16__aligned_membufISt4pairIKNSt7__cxx1112basic_stringIcSt11char_traitsIcESaIcEEEPN4llvm10AllocaInstEEE6_M_ptrEv = comdat any

$_ZNK9__gnu_cxx16__aligned_membufISt4pairIKNSt7__cxx1112basic_stringIcSt11char_traitsIcESaIcEEEPN4llvm10AllocaInstEEE7_M_addrEv = comdat any

$_ZNSt8_Rb_treeINSt7__cxx1112basic_stringIcSt11char_traitsIcESaIcEEESt4pairIKS5_PN4llvm10AllocaInstEESt10_Select1stISB_ESt4lessIS5_ESaISB_EE3endEv = comdat any

$_ZNKSt8_Rb_treeINSt7__cxx1112basic_stringIcSt11char_traitsIcESaIcEEESt4pairIKS5_PN4llvm10AllocaInstEESt10_Select1stISB_ESt4lessIS5_ESaISB_EE8key_compEv = comdat any

$_ZStltIcSt11char_traitsIcESaIcEEbRKNSt7__cxx1112basic_stringIT_T0_T1_EESA_ = comdat any

$_ZNSt8_Rb_treeINSt7__cxx1112basic_stringIcSt11char_traitsIcESaIcEEESt4pairIKS5_PN4llvm10AllocaInstEESt10_Select1stISB_ESt4lessIS5_ESaISB_EE14_M_create_nodeIJRKSt21piecewise_construct_tSt5tupleIJRS7_EESM_IJEEEEEPSt13_Rb_tree_nodeISB_EDpOT_ = comdat any

$_ZSt7forwardIRKSt21piecewise_construct_tEOT_RNSt16remove_referenceIS3_E4typeE = comdat any

$_ZSt7forwardISt5tupleIJRKNSt7__cxx1112basic_stringIcSt11char_traitsIcESaIcEEEEEEOT_RNSt16remove_referenceISA_E4typeE = comdat any

$_ZSt7forwardISt5tupleIJEEEOT_RNSt16remove_referenceIS2_E4typeE = comdat any

$_ZNSt8_Rb_treeINSt7__cxx1112basic_stringIcSt11char_traitsIcESaIcEEESt4pairIKS5_PN4llvm10AllocaInstEESt10_Select1stISB_ESt4lessIS5_ESaISB_EE29_M_get_insert_hint_unique_posESt23_Rb_tree_const_iteratorISB_ERS7_ = comdat any

$_ZNSt8_Rb_treeINSt7__cxx1112basic_stringIcSt11char_traitsIcESaIcEEESt4pairIKS5_PN4llvm10AllocaInstEESt10_Select1stISB_ESt4lessIS5_ESaISB_EE14_M_insert_nodeEPSt18_Rb_tree_node_baseSJ_PSt13_Rb_tree_nodeISB_E = comdat any

$_ZNSt8_Rb_treeINSt7__cxx1112basic_stringIcSt11char_traitsIcESaIcEEESt4pairIKS5_PN4llvm10AllocaInstEESt10_Select1stISB_ESt4lessIS5_ESaISB_EE11_M_get_nodeEv = comdat any

$_ZNSt8_Rb_treeINSt7__cxx1112basic_stringIcSt11char_traitsIcESaIcEEESt4pairIKS5_PN4llvm10AllocaInstEESt10_Select1stISB_ESt4lessIS5_ESaISB_EE17_M_construct_nodeIJRKSt21piecewise_construct_tSt5tupleIJRS7_EESM_IJEEEEEvPSt13_Rb_tree_nodeISB_EDpOT_ = comdat any

$_ZNSt16allocator_traitsISaISt13_Rb_tree_nodeISt4pairIKNSt7__cxx1112basic_stringIcSt11char_traitsIcESaIcEEEPN4llvm10AllocaInstEEEEE8allocateERSE_y = comdat any

$_ZN9__gnu_cxx13new_allocatorISt13_Rb_tree_nodeISt4pairIKNSt7__cxx1112basic_stringIcSt11char_traitsIcESaIcEEEPN4llvm10AllocaInstEEEE8allocateEyPKv = comdat any

$_ZNK9__gnu_cxx13new_allocatorISt13_Rb_tree_nodeISt4pairIKNSt7__cxx1112basic_stringIcSt11char_traitsIcESaIcEEEPN4llvm10AllocaInstEEEE11_M_max_sizeEv = comdat any

$_ZNSt16allocator_traitsISaISt13_Rb_tree_nodeISt4pairIKNSt7__cxx1112basic_stringIcSt11char_traitsIcESaIcEEEPN4llvm10AllocaInstEEEEE9constructISC_JRKSt21piecewise_construct_tSt5tupleIJRS8_EESK_IJEEEEEvRSE_PT_DpOT0_ = comdat any

$_ZN9__gnu_cxx13new_allocatorISt13_Rb_tree_nodeISt4pairIKNSt7__cxx1112basic_stringIcSt11char_traitsIcESaIcEEEPN4llvm10AllocaInstEEEE9constructISD_JRKSt21piecewise_construct_tSt5tupleIJRS9_EESK_IJEEEEEvPT_DpOT0_ = comdat any

$_ZNSt5tupleIJRKNSt7__cxx1112basic_stringIcSt11char_traitsIcESaIcEEEEEC2EOS8_ = comdat any

$_ZNSt4pairIKNSt7__cxx1112basic_stringIcSt11char_traitsIcESaIcEEEPN4llvm10AllocaInstEEC2IJRS6_EJEEESt21piecewise_construct_tSt5tupleIJDpT_EESE_IJDpT0_EE = comdat any

$_ZNSt11_Tuple_implILy0EJRKNSt7__cxx1112basic_stringIcSt11char_traitsIcESaIcEEEEEC2EOS8_ = comdat any

$_ZNSt11_Tuple_implILy0EJRKNSt7__cxx1112basic_stringIcSt11char_traitsIcESaIcEEEEE7_M_headERS8_ = comdat any

$_ZNSt10_Head_baseILy0ERKNSt7__cxx1112basic_stringIcSt11char_traitsIcESaIcEEELb0EEC2ES7_ = comdat any

$_ZNSt10_Head_baseILy0ERKNSt7__cxx1112basic_stringIcSt11char_traitsIcESaIcEEELb0EE7_M_headERS8_ = comdat any

$_ZNSt4pairIKNSt7__cxx1112basic_stringIcSt11char_traitsIcESaIcEEEPN4llvm10AllocaInstEEC2IJRS6_EJLy0EEJEJEEERSt5tupleIJDpT_EERSD_IJDpT1_EESt12_Index_tupleIJXspT0_EEESM_IJXspT2_EEE = comdat any

$_ZSt3getILy0EJRKNSt7__cxx1112basic_stringIcSt11char_traitsIcESaIcEEEEERNSt13tuple_elementIXT_ESt5tupleIJDpT0_EEE4typeERSC_ = comdat any

$_ZSt12__get_helperILy0ERKNSt7__cxx1112basic_stringIcSt11char_traitsIcESaIcEEEJEERT0_RSt11_Tuple_implIXT_EJS8_DpT1_EE = comdat any

$_ZNKSt23_Rb_tree_const_iteratorISt4pairIKNSt7__cxx1112basic_stringIcSt11char_traitsIcESaIcEEEPN4llvm10AllocaInstEEE13_M_const_castEv = comdat any

$_ZNKSt8_Rb_treeINSt7__cxx1112basic_stringIcSt11char_traitsIcESaIcEEESt4pairIKS5_PN4llvm10AllocaInstEESt10_Select1stISB_ESt4lessIS5_ESaISB_EE4sizeEv = comdat any

$_ZNSt8_Rb_treeINSt7__cxx1112basic_stringIcSt11char_traitsIcESaIcEEESt4pairIKS5_PN4llvm10AllocaInstEESt10_Select1stISB_ESt4lessIS5_ESaISB_EE6_S_keyEPKSt18_Rb_tree_node_base = comdat any

$_ZNSt8_Rb_treeINSt7__cxx1112basic_stringIcSt11char_traitsIcESaIcEEESt4pairIKS5_PN4llvm10AllocaInstEESt10_Select1stISB_ESt4lessIS5_ESaISB_EE12_M_rightmostEv = comdat any

$_ZNSt4pairIPSt18_Rb_tree_node_baseS1_EC2IRS1_Lb1EEERKS1_OT_ = comdat any

$_ZNSt8_Rb_treeINSt7__cxx1112basic_stringIcSt11char_traitsIcESaIcEEESt4pairIKS5_PN4llvm10AllocaInstEESt10_Select1stISB_ESt4lessIS5_ESaISB_EE24_M_get_insert_unique_posERS7_ = comdat any

$_ZNSt8_Rb_treeINSt7__cxx1112basic_stringIcSt11char_traitsIcESaIcEEESt4pairIKS5_PN4llvm10AllocaInstEESt10_Select1stISB_ESt4lessIS5_ESaISB_EE11_M_leftmostEv = comdat any

$_ZNSt4pairIPSt18_Rb_tree_node_baseS1_EC2IRS1_S4_Lb1EEEOT_OT0_ = comdat any

$_ZNSt17_Rb_tree_iteratorISt4pairIKNSt7__cxx1112basic_stringIcSt11char_traitsIcESaIcEEEPN4llvm10AllocaInstEEEmmEv = comdat any

$_ZNSt17_Rb_tree_iteratorISt4pairIKNSt7__cxx1112basic_stringIcSt11char_traitsIcESaIcEEEPN4llvm10AllocaInstEEEppEv = comdat any

$_ZNSt4pairIPSt18_Rb_tree_node_baseS1_EC2IRS1_Lb1EEEOT_RKS1_ = comdat any

$_ZSt7forwardIRPSt18_Rb_tree_node_baseEOT_RNSt16remove_referenceIS3_E4typeE = comdat any

$_ZNSt8_Rb_treeINSt7__cxx1112basic_stringIcSt11char_traitsIcESaIcEEESt4pairIKS5_PN4llvm10AllocaInstEESt10_Select1stISB_ESt4lessIS5_ESaISB_EE5beginEv = comdat any

$_ZNSt4pairIPSt18_Rb_tree_node_baseS1_EC2IRPSt13_Rb_tree_nodeIS_IKNSt7__cxx1112basic_stringIcSt11char_traitsIcESaIcEEEPN4llvm10AllocaInstEEERS1_Lb1EEEOT_OT0_ = comdat any

$_ZSt7forwardIRPSt13_Rb_tree_nodeISt4pairIKNSt7__cxx1112basic_stringIcSt11char_traitsIcESaIcEEEPN4llvm10AllocaInstEEEEOT_RNSt16remove_referenceISG_E4typeE = comdat any

$_ZNSt11_Tuple_implILy0EJRKNSt7__cxx1112basic_stringIcSt11char_traitsIcESaIcEEEEEC2ES7_ = comdat any

$_ZNKSt10unique_ptrIN4llvm9IRBuilderINS0_14ConstantFolderENS0_24IRBuilderDefaultInserterEEESt14default_deleteIS4_EE3getEv = comdat any

$_ZNKSt15__uniq_ptr_implIN4llvm9IRBuilderINS0_14ConstantFolderENS0_24IRBuilderDefaultInserterEEESt14default_deleteIS4_EE6_M_ptrEv = comdat any

$_ZSt3getILy0EJPN4llvm9IRBuilderINS0_14ConstantFolderENS0_24IRBuilderDefaultInserterEEESt14default_deleteIS4_EEERKNSt13tuple_elementIXT_ESt5tupleIJDpT0_EEE4typeERKSC_ = comdat any

$_ZSt12__get_helperILy0EPN4llvm9IRBuilderINS0_14ConstantFolderENS0_24IRBuilderDefaultInserterEEEJSt14default_deleteIS4_EEERKT0_RKSt11_Tuple_implIXT_EJS8_DpT1_EE = comdat any

$_ZNSt11_Tuple_implILy0EJPN4llvm9IRBuilderINS0_14ConstantFolderENS0_24IRBuilderDefaultInserterEEESt14default_deleteIS4_EEE7_M_headERKS8_ = comdat any

$_ZNSt10_Head_baseILy0EPN4llvm9IRBuilderINS0_14ConstantFolderENS0_24IRBuilderDefaultInserterEEELb0EE7_M_headERKS6_ = comdat any

$_ZN4llvm13IRBuilderBase10CreateLoadEPNS_4TypeEPNS_5ValueEPKc = comdat any

$_ZNK4llvm5Value7getTypeEv = comdat any

$_ZNK4llvm4Type21getPointerElementTypeEv = comdat any

$_ZN4llvm13IRBuilderBase17CreateAlignedLoadEPNS_4TypeEPNS_5ValueENS_10MaybeAlignEPKc = comdat any

$_ZN4llvm10MaybeAlignC2Ev = comdat any

$_ZN4llvm13IRBuilderBase17CreateAlignedLoadEPNS_4TypeEPNS_5ValueENS_10MaybeAlignEbRKNS_5TwineE = comdat any

$_ZN4llvm5TwineC2EPKc = comdat any

$_ZNK4llvm8OptionalINS_5AlignEEcvbEv = comdat any

$_ZN4llvm10BasicBlock9getModuleEv = comdat any

$_ZN4llvm10MaybeAlignCI2NS_8OptionalINS_5AlignEEEEOS2_ = comdat any

$_ZNK4llvm13IRBuilderBase6InsertINS_8LoadInstEEEPT_S4_RKNS_5TwineE = comdat any

$_ZN4llvm16UnaryInstructionnwEy = comdat any

$_ZN4llvm5TwineC2Ev = comdat any

$_ZNR4llvm8OptionalINS_5AlignEEdeEv = comdat any

$_ZN4llvm16UnaryInstructiondlEPv = comdat any

$_ZNK4llvm8OptionalINS_5AlignEE8hasValueEv = comdat any

$_ZNK4llvm15optional_detail15OptionalStorageINS_5AlignELb1EE8hasValueEv = comdat any

$_ZN4llvm8OptionalINS_5AlignEEC2EOS1_ = comdat any

$_ZSt4moveIRN4llvm5AlignEEONSt16remove_referenceIT_E4typeEOS4_ = comdat any

$_ZN4llvm15optional_detail15OptionalStorageINS_5AlignELb1EEC2IJS2_EEENS_10in_place_tEDpOT_ = comdat any

$_ZSt7forwardIN4llvm5AlignEEOT_RNSt16remove_referenceIS2_E4typeE = comdat any

$_ZNK4llvm13IRBuilderBase17AddMetadataToInstEPNS_11InstructionE = comdat any

$_ZNK4llvm25SmallVectorTemplateCommonISt4pairIjPNS_6MDNodeEEvE5beginEv = comdat any

$_ZNK4llvm25SmallVectorTemplateCommonISt4pairIjPNS_6MDNodeEEvE3endEv = comdat any

$_ZNR4llvm8OptionalINS_5AlignEE8getValueEv = comdat any

$_ZNR4llvm15optional_detail15OptionalStorageINS_5AlignELb1EE8getValueEv = comdat any

$_ZN4llvm8OptionalINS_5AlignEEC2Ev = comdat any

$_ZN4llvm15optional_detail15OptionalStorageINS_5AlignELb1EEC2Ev = comdat any

$_ZNK4llvm4Type9getTypeIDEv = comdat any

$_ZNK4llvm8Function8arg_sizeEv = comdat any

$_ZNSt6vectorIPN4llvm5ValueESaIS2_EEC2Ev = comdat any

$_ZNSt6vectorIPN4llvm5ValueESaIS2_EE9push_backEOS2_ = comdat any

$_ZNSt6vectorIPN4llvm5ValueESaIS2_EE4backEv = comdat any

$_ZN4llvm13IRBuilderBase10CreateCallENS_14FunctionCalleeENS_8ArrayRefIPNS_5ValueEEERKNS_5TwineEPNS_6MDNodeE = comdat any

$_ZN4llvm14FunctionCalleeC2INS_8FunctionEMS2_KFPNS_12FunctionTypeEvEEEPT_ = comdat any

$_ZN4llvm8ArrayRefIPNS_5ValueEEC2ISaIS2_EEERKSt6vectorIS2_T_E = comdat any

$_ZNSt6vectorIPN4llvm5ValueESaIS2_EED2Ev = comdat any

$_ZNSt12_Vector_baseIPN4llvm5ValueESaIS2_EEC2Ev = comdat any

$_ZNSt12_Vector_baseIPN4llvm5ValueESaIS2_EE12_Vector_implC2Ev = comdat any

$_ZNSaIPN4llvm5ValueEEC2Ev = comdat any

$_ZNSt12_Vector_baseIPN4llvm5ValueESaIS2_EE17_Vector_impl_dataC2Ev = comdat any

$_ZN9__gnu_cxx13new_allocatorIPN4llvm5ValueEEC2Ev = comdat any

$_ZNSt6vectorIPN4llvm5ValueESaIS2_EE12emplace_backIJS2_EEEvDpOT_ = comdat any

$_ZSt4moveIRPN4llvm5ValueEEONSt16remove_referenceIT_E4typeEOS5_ = comdat any

$_ZNSt16allocator_traitsISaIPN4llvm5ValueEEE9constructIS2_JS2_EEEvRS3_PT_DpOT0_ = comdat any

$_ZSt7forwardIPN4llvm5ValueEEOT_RNSt16remove_referenceIS3_E4typeE = comdat any

$_ZNSt6vectorIPN4llvm5ValueESaIS2_EE17_M_realloc_insertIJS2_EEEvN9__gnu_cxx17__normal_iteratorIPS2_S4_EEDpOT_ = comdat any

$_ZNSt6vectorIPN4llvm5ValueESaIS2_EE3endEv = comdat any

$_ZN9__gnu_cxx13new_allocatorIPN4llvm5ValueEE9constructIS3_JS3_EEEvPT_DpOT0_ = comdat any

$_ZNKSt6vectorIPN4llvm5ValueESaIS2_EE12_M_check_lenEyPKc = comdat any

$_ZN9__gnu_cxxmiIPPN4llvm5ValueESt6vectorIS3_SaIS3_EEEENS_17__normal_iteratorIT_T0_E15difference_typeERKSB_SE_ = comdat any

$_ZNSt6vectorIPN4llvm5ValueESaIS2_EE5beginEv = comdat any

$_ZNSt12_Vector_baseIPN4llvm5ValueESaIS2_EE11_M_allocateEy = comdat any

$_ZNSt6vectorIPN4llvm5ValueESaIS2_EE11_S_relocateEPS2_S5_S5_RS3_ = comdat any

$_ZNK9__gnu_cxx17__normal_iteratorIPPN4llvm5ValueESt6vectorIS3_SaIS3_EEE4baseEv = comdat any

$_ZNSt12_Vector_baseIPN4llvm5ValueESaIS2_EE19_M_get_Tp_allocatorEv = comdat any

$_ZNSt12_Vector_baseIPN4llvm5ValueESaIS2_EE13_M_deallocateEPS2_y = comdat any

$_ZNKSt6vectorIPN4llvm5ValueESaIS2_EE8max_sizeEv = comdat any

$_ZNKSt6vectorIPN4llvm5ValueESaIS2_EE4sizeEv = comdat any

$_ZNSt6vectorIPN4llvm5ValueESaIS2_EE11_S_max_sizeERKS3_ = comdat any

$_ZNKSt12_Vector_baseIPN4llvm5ValueESaIS2_EE19_M_get_Tp_allocatorEv = comdat any

$_ZNSt16allocator_traitsISaIPN4llvm5ValueEEE8max_sizeERKS3_ = comdat any

$_ZNK9__gnu_cxx13new_allocatorIPN4llvm5ValueEE8max_sizeEv = comdat any

$_ZNK9__gnu_cxx13new_allocatorIPN4llvm5ValueEE11_M_max_sizeEv = comdat any

$_ZN9__gnu_cxx17__normal_iteratorIPPN4llvm5ValueESt6vectorIS3_SaIS3_EEEC2ERKS4_ = comdat any

$_ZNSt16allocator_traitsISaIPN4llvm5ValueEEE8allocateERS3_y = comdat any

$_ZN9__gnu_cxx13new_allocatorIPN4llvm5ValueEE8allocateEyPKv = comdat any

$_ZNSt6vectorIPN4llvm5ValueESaIS2_EE14_S_do_relocateEPS2_S5_S5_RS3_St17integral_constantIbLb1EE = comdat any

$_ZSt12__relocate_aIPPN4llvm5ValueES3_SaIS2_EET0_T_S6_S5_RT1_ = comdat any

$_ZSt14__relocate_a_1IPN4llvm5ValueES2_ENSt9enable_ifIXsr3std24__is_bitwise_relocatableIT_EE5valueEPS4_E4typeES5_S5_S5_RSaIT0_E = comdat any

$_ZSt12__niter_baseIPPN4llvm5ValueEET_S4_ = comdat any

$_ZNSt16allocator_traitsISaIPN4llvm5ValueEEE10deallocateERS3_PS2_y = comdat any

$_ZN9__gnu_cxx13new_allocatorIPN4llvm5ValueEE10deallocateEPS3_y = comdat any

$_ZNK9__gnu_cxx17__normal_iteratorIPPN4llvm5ValueESt6vectorIS3_SaIS3_EEEmiEx = comdat any

$_ZNK9__gnu_cxx17__normal_iteratorIPPN4llvm5ValueESt6vectorIS3_SaIS3_EEEdeEv = comdat any

$_ZN4llvm13IRBuilderBase10CreateCallEPNS_12FunctionTypeEPNS_5ValueENS_8ArrayRefIS4_EERKNS_5TwineEPNS_6MDNodeE = comdat any

$_ZN4llvm14FunctionCallee15getFunctionTypeEv = comdat any

$_ZN4llvm14FunctionCallee9getCalleeEv = comdat any

$_ZN4llvm8CallInst6CreateEPNS_12FunctionTypeEPNS_5ValueENS_8ArrayRefIS4_EENS5_INS_17OperandBundleDefTIS4_EEEERKNS_5TwineEPNS_11InstructionE = comdat any

$_ZN4llvm13IRBuilderBase24setConstrainedFPCallAttrEPNS_8CallBaseE = comdat any

$_ZN4llvm3isaINS_14FPMathOperatorEPNS_8CallInstEEEbRKT0_ = comdat any

$_ZNK4llvm13IRBuilderBase10setFPAttrsEPNS_11InstructionEPNS_6MDNodeENS_13FastMathFlagsE = comdat any

$_ZNK4llvm13IRBuilderBase6InsertINS_8CallInstEEEPT_S4_RKNS_5TwineE = comdat any

$_ZN4llvm8CallInst18ComputeNumOperandsEii = comdat any

$_ZNK4llvm8ArrayRefIPNS_5ValueEE4sizeEv = comdat any

$_ZN4llvm8CallBase17CountBundleInputsENS_8ArrayRefINS_17OperandBundleDefTIPNS_5ValueEEEEE = comdat any

$_ZNK4llvm8ArrayRefINS_17OperandBundleDefTIPNS_5ValueEEEE4sizeEv = comdat any

$_ZN4llvm8CallInstC2EPNS_12FunctionTypeEPNS_5ValueENS_8ArrayRefIS4_EENS5_INS_17OperandBundleDefTIS4_EEEERKNS_5TwineEPNS_11InstructionE = comdat any

$_ZN4llvm4UserdlEPvjj = comdat any

$_ZNK4llvm8ArrayRefINS_17OperandBundleDefTIPNS_5ValueEEEE5beginEv = comdat any

$_ZNK4llvm8ArrayRefINS_17OperandBundleDefTIPNS_5ValueEEEE3endEv = comdat any

$_ZNK4llvm17OperandBundleDefTIPNS_5ValueEE10input_sizeEv = comdat any

$_ZNK4llvm12FunctionType13getReturnTypeEv = comdat any

$_ZN4llvm21VariadicOperandTraitsINS_8CallBaseELj1EE6op_endEPS1_ = comdat any

$_ZN4llvm8CallBaseCI2NS_11InstructionEEPNS_4TypeEjPNS_3UseEjPNS_11InstructionE = comdat any

$_ZN4llvm8CallBaseD2Ev = comdat any

$_ZN4llvm13AttributeListC2Ev = comdat any

$_ZN4llvm8CallBase12addAttributeEjNS_9Attribute8AttrKindE = comdat any

$_ZNK4llvm8CallBase13getAttributesEv = comdat any

$_ZN4llvm8CallBase13setAttributesENS_13AttributeListE = comdat any

$_ZN4llvm13isa_impl_wrapINS_14FPMathOperatorEKPNS_8CallInstEPKS2_E4doitERS4_ = comdat any

$_ZN4llvm13isa_impl_wrapINS_14FPMathOperatorEPKNS_8CallInstES4_E4doitERKS4_ = comdat any

$_ZN4llvm13simplify_typeIKPNS_8CallInstEE18getSimplifiedValueERS3_ = comdat any

$_ZN4llvm11isa_impl_clINS_14FPMathOperatorEPKNS_8CallInstEE4doitES4_ = comdat any

$_ZN4llvm8isa_implINS_14FPMathOperatorENS_8CallInstEvE4doitERKS2_ = comdat any

$_ZN4llvm14FPMathOperator7classofEPKNS_5ValueE = comdat any

$_ZN4llvm8dyn_castINS_11InstructionEKNS_5ValueEEENS_10cast_rettyIT_PT0_E8ret_typeES7_ = comdat any

$_ZNK4llvm11Instruction9getOpcodeEv = comdat any

$_ZN4llvm8dyn_castINS_12ConstantExprEKNS_5ValueEEENS_10cast_rettyIT_PT0_E8ret_typeES7_ = comdat any

$_ZNK4llvm12ConstantExpr9getOpcodeEv = comdat any

$_ZN4llvm8dyn_castINS_9ArrayTypeENS_4TypeEEENS_10cast_rettyIT_PT0_E8ret_typeES6_ = comdat any

$_ZNK4llvm9ArrayType14getElementTypeEv = comdat any

$_ZNK4llvm4Type16isFPOrFPVectorTyEv = comdat any

$_ZN4llvm3isaINS_11InstructionEPKNS_5ValueEEEbRKT0_ = comdat any

$_ZN4llvm4castINS_11InstructionEKNS_5ValueEEENS_10cast_rettyIT_PT0_E8ret_typeES7_ = comdat any

$_ZN4llvm13isa_impl_wrapINS_11InstructionEKPKNS_5ValueES4_E4doitERS5_ = comdat any

$_ZN4llvm13isa_impl_wrapINS_11InstructionEPKNS_5ValueES4_E4doitERKS4_ = comdat any

$_ZN4llvm13simplify_typeIKPKNS_5ValueEE18getSimplifiedValueERS4_ = comdat any

$_ZN4llvm11isa_impl_clINS_11InstructionEPKNS_5ValueEE4doitES4_ = comdat any

$_ZN4llvm8isa_implINS_11InstructionENS_5ValueEvE4doitERKS2_ = comdat any

$_ZNK4llvm5Value10getValueIDEv = comdat any

$_ZN4llvm13simplify_typeIPKNS_5ValueEE18getSimplifiedValueERS3_ = comdat any

$_ZN4llvm16cast_convert_valINS_11InstructionEPKNS_5ValueES4_E4doitERKS4_ = comdat any

$_ZN4llvm3isaINS_12ConstantExprEPKNS_5ValueEEEbRKT0_ = comdat any

$_ZN4llvm4castINS_12ConstantExprEKNS_5ValueEEENS_10cast_rettyIT_PT0_E8ret_typeES7_ = comdat any

$_ZN4llvm13isa_impl_wrapINS_12ConstantExprEKPKNS_5ValueES4_E4doitERS5_ = comdat any

$_ZN4llvm13isa_impl_wrapINS_12ConstantExprEPKNS_5ValueES4_E4doitERKS4_ = comdat any

$_ZN4llvm11isa_impl_clINS_12ConstantExprEPKNS_5ValueEE4doitES4_ = comdat any

$_ZN4llvm8isa_implINS_12ConstantExprENS_5ValueEvE4doitERKS2_ = comdat any

$_ZN4llvm12ConstantExpr7classofEPKNS_5ValueE = comdat any

$_ZN4llvm16cast_convert_valINS_12ConstantExprEPKNS_5ValueES4_E4doitERKS4_ = comdat any

$_ZN4llvm3isaINS_9ArrayTypeEPNS_4TypeEEEbRKT0_ = comdat any

$_ZN4llvm4castINS_9ArrayTypeENS_4TypeEEENS_10cast_rettyIT_PT0_E8ret_typeES6_ = comdat any

$_ZN4llvm13isa_impl_wrapINS_9ArrayTypeEKPNS_4TypeEPKS2_E4doitERS4_ = comdat any

$_ZN4llvm13isa_impl_wrapINS_9ArrayTypeEPKNS_4TypeES4_E4doitERKS4_ = comdat any

$_ZN4llvm13simplify_typeIKPNS_4TypeEE18getSimplifiedValueERS3_ = comdat any

$_ZN4llvm11isa_impl_clINS_9ArrayTypeEPKNS_4TypeEE4doitES4_ = comdat any

$_ZN4llvm8isa_implINS_9ArrayTypeENS_4TypeEvE4doitERKS2_ = comdat any

$_ZN4llvm9ArrayType7classofEPKNS_4TypeE = comdat any

$_ZN4llvm13simplify_typeIPNS_4TypeEE18getSimplifiedValueERS2_ = comdat any

$_ZN4llvm16cast_convert_valINS_9ArrayTypeEPNS_4TypeES3_E4doitERKS3_ = comdat any

$_ZNK4llvm4Type13getScalarTypeEv = comdat any

$_ZNK4llvm4Type17isFloatingPointTyEv = comdat any

$_ZNK4llvm4Type10isVectorTyEv = comdat any

$_ZNK4llvm4Type16getContainedTypeEj = comdat any

$_ZN4llvm13simplify_typeIPNS_8CallInstEE18getSimplifiedValueERS2_ = comdat any

$_ZNK4llvm8Function15getFunctionTypeEv = comdat any

$_ZN4llvm4castINS_12FunctionTypeENS_4TypeEEENS_10cast_rettyIT_PT0_E8ret_typeES6_ = comdat any

$_ZNK4llvm11GlobalValue12getValueTypeEv = comdat any

$_ZN4llvm3isaINS_12FunctionTypeEPNS_4TypeEEEbRKT0_ = comdat any

$_ZN4llvm16cast_convert_valINS_12FunctionTypeEPNS_4TypeES3_E4doitERKS3_ = comdat any

$_ZN4llvm13isa_impl_wrapINS_12FunctionTypeEKPNS_4TypeEPKS2_E4doitERS4_ = comdat any

$_ZN4llvm13isa_impl_wrapINS_12FunctionTypeEPKNS_4TypeES4_E4doitERKS4_ = comdat any

$_ZN4llvm11isa_impl_clINS_12FunctionTypeEPKNS_4TypeEE4doitES4_ = comdat any

$_ZN4llvm8isa_implINS_12FunctionTypeENS_4TypeEvE4doitERKS2_ = comdat any

$_ZN4llvm12FunctionType7classofEPKNS_4TypeE = comdat any

$_ZNKSt6vectorIPN4llvm5ValueESaIS2_EE4dataEv = comdat any

$_ZNKSt6vectorIPN4llvm5ValueESaIS2_EE11_M_data_ptrIS2_EEPT_S7_ = comdat any

$_ZSt8_DestroyIPPN4llvm5ValueES2_EvT_S4_RSaIT0_E = comdat any

$_ZNSt12_Vector_baseIPN4llvm5ValueESaIS2_EED2Ev = comdat any

$_ZSt8_DestroyIPPN4llvm5ValueEEvT_S4_ = comdat any

$_ZNSt12_Destroy_auxILb1EE9__destroyIPPN4llvm5ValueEEEvT_S6_ = comdat any

$_ZNSt12_Vector_baseIPN4llvm5ValueESaIS2_EE12_Vector_implD2Ev = comdat any

$_ZNSaIPN4llvm5ValueEED2Ev = comdat any

$_ZN9__gnu_cxx13new_allocatorIPN4llvm5ValueEED2Ev = comdat any

$_ZSt7forwardIRdEOT_RNSt16remove_referenceIS1_E4typeE = comdat any

$_ZN4llvm7APFloatC2Ed = comdat any

$_ZN4llvm7APFloatD2Ev = comdat any

$_ZN4llvm7APFloat7StorageD2Ev = comdat any

$_ZN4llvm7APFloat10usesLayoutINS_6detail9IEEEFloatEEEbRKNS_12fltSemanticsE = comdat any

$_ZN4llvm7APFloat10usesLayoutINS_6detail13DoubleAPFloatEEEbRKNS_12fltSemanticsE = comdat any

$_ZN4llvm6detail13DoubleAPFloatD2Ev = comdat any

$_ZNSt10unique_ptrIA_N4llvm7APFloatESt14default_deleteIS2_EED2Ev = comdat any

$_ZNSt15__uniq_ptr_implIN4llvm7APFloatESt14default_deleteIA_S1_EE6_M_ptrEv = comdat any

$_ZNSt10unique_ptrIA_N4llvm7APFloatESt14default_deleteIS2_EE11get_deleterEv = comdat any

$_ZNKSt14default_deleteIA_N4llvm7APFloatEEclIS1_EENSt9enable_ifIXsr14is_convertibleIPA_T_PS2_EE5valueEvE4typeEPS6_ = comdat any

$_ZSt3getILy0EJPN4llvm7APFloatESt14default_deleteIA_S1_EEERNSt13tuple_elementIXT_ESt5tupleIJDpT0_EEE4typeERSA_ = comdat any

$_ZSt12__get_helperILy0EPN4llvm7APFloatEJSt14default_deleteIA_S1_EEERT0_RSt11_Tuple_implIXT_EJS6_DpT1_EE = comdat any

$_ZNSt11_Tuple_implILy0EJPN4llvm7APFloatESt14default_deleteIA_S1_EEE7_M_headERS6_ = comdat any

$_ZNSt10_Head_baseILy0EPN4llvm7APFloatELb0EE7_M_headERS3_ = comdat any

$_ZNSt15__uniq_ptr_implIN4llvm7APFloatESt14default_deleteIA_S1_EE10_M_deleterEv = comdat any

$_ZSt3getILy1EJPN4llvm7APFloatESt14default_deleteIA_S1_EEERNSt13tuple_elementIXT_ESt5tupleIJDpT0_EEE4typeERSA_ = comdat any

$_ZSt12__get_helperILy1ESt14default_deleteIA_N4llvm7APFloatEEJEERT0_RSt11_Tuple_implIXT_EJS5_DpT1_EE = comdat any

$_ZNSt11_Tuple_implILy1EJSt14default_deleteIA_N4llvm7APFloatEEEE7_M_headERS5_ = comdat any

$_ZNSt10_Head_baseILy1ESt14default_deleteIA_N4llvm7APFloatEELb1EE7_M_headERS5_ = comdat any

$_ZN4llvm13IRBuilderBase13CreateFCmpONEEPNS_5ValueES2_RKNS_5TwineEPNS_6MDNodeE = comdat any

$_ZNK4llvm13IRBuilderBase14GetInsertBlockEv = comdat any

$_ZN4llvm10BasicBlock9getParentEv = comdat any

$_ZN4llvm10BasicBlock6CreateERNS_11LLVMContextERKNS_5TwineEPNS_8FunctionEPS0_ = comdat any

$_ZN4llvm13IRBuilderBase12CreateCondBrEPNS_5ValueEPNS_10BasicBlockES4_PNS_6MDNodeES6_ = comdat any

$_ZN4llvm13IRBuilderBase14SetInsertPointEPNS_10BasicBlockE = comdat any

$_ZN4llvm13IRBuilderBase8CreateBrEPNS_10BasicBlockE = comdat any

$_ZN4llvm8Function17getBasicBlockListEv = comdat any

$_ZN4llvm11iplist_implINS_12simple_ilistINS_10BasicBlockEJEEENS_21SymbolTableListTraitsIS2_EEE9push_backEPS2_ = comdat any

$_ZN4llvm13IRBuilderBase9CreatePHIEPNS_4TypeEjRKNS_5TwineE = comdat any

$_ZN4llvm7PHINode11addIncomingEPNS_5ValueEPNS_10BasicBlockE = comdat any

$_ZN4llvm13IRBuilderBase10CreateFCmpENS_7CmpInst9PredicateEPNS_5ValueES4_RKNS_5TwineEPNS_6MDNodeE = comdat any

$_ZNK4llvm13IRBuilderBase6InsertINS_10BranchInstEEEPT_S4_RKNS_5TwineE = comdat any

$_ZN4llvm13IRBuilderBase17addBranchMetadataINS_10BranchInstEEEPT_S4_PNS_6MDNodeES6_ = comdat any

$_ZN4llvm10BranchInst6CreateEPNS_10BasicBlockES2_PNS_5ValueEPNS_11InstructionE = comdat any

$_ZN4llvm4UserdlEPvj = comdat any

$_ZN4llvm10BasicBlock3endEv = comdat any

$_ZN4llvm12simple_ilistINS_11InstructionEJEE3endEv = comdat any

$_ZN4llvm14ilist_iteratorINS_12ilist_detail12node_optionsINS_11InstructionELb0ELb0EvEELb0ELb0EEC2ERNS_15ilist_node_implIS4_EE = comdat any

$_ZN4llvm10BranchInst6CreateEPNS_10BasicBlockEPNS_11InstructionE = comdat any

$_ZN4llvm11iplist_implINS_12simple_ilistINS_10BasicBlockEJEEENS_21SymbolTableListTraitsIS2_EEE6insertENS_14ilist_iteratorINS_12ilist_detail12node_optionsIS2_Lb0ELb0EvEELb0ELb0EEEPS2_ = comdat any

$_ZN4llvm12simple_ilistINS_10BasicBlockEJEE3endEv = comdat any

$_ZN4llvm12simple_ilistINS_10BasicBlockEJEE6insertENS_14ilist_iteratorINS_12ilist_detail12node_optionsIS1_Lb0ELb0EvEELb0ELb0EEERS1_ = comdat any

$_ZN4llvm10ilist_baseILb0EE12insertBeforeINS_15ilist_node_implINS_12ilist_detail12node_optionsINS_10BasicBlockELb0ELb0EvEEEEEEvRT_SA_ = comdat any

$_ZNK4llvm14ilist_iteratorINS_12ilist_detail12node_optionsINS_10BasicBlockELb0ELb0EvEELb0ELb0EE10getNodePtrEv = comdat any

$_ZN4llvm12ilist_detail18SpecificNodeAccessINS0_12node_optionsINS_10BasicBlockELb0ELb0EvEEE10getNodePtrEPS3_ = comdat any

$_ZN4llvm14ilist_iteratorINS_12ilist_detail12node_optionsINS_10BasicBlockELb0ELb0EvEELb0ELb0EEC2EPS3_ = comdat any

$_ZN4llvm10ilist_baseILb0EE16insertBeforeImplERNS_15ilist_node_baseILb0EEES4_ = comdat any

$_ZNK4llvm15ilist_node_baseILb0EE7getPrevEv = comdat any

$_ZN4llvm15ilist_node_baseILb0EE7setNextEPS1_ = comdat any

$_ZN4llvm15ilist_node_baseILb0EE7setPrevEPS1_ = comdat any

$_ZN4llvm12ilist_detail10NodeAccess10getNodePtrINS0_12node_optionsINS_10BasicBlockELb0ELb0EvEEEEPNS_15ilist_node_implIT_EENS7_7pointerE = comdat any

$_ZN4llvm14ilist_iteratorINS_12ilist_detail12node_optionsINS_10BasicBlockELb0ELb0EvEELb0ELb0EEC2ERNS_15ilist_node_implIS4_EE = comdat any

$_ZN4llvm7PHINode6CreateEPNS_4TypeEjRKNS_5TwineEPNS_11InstructionE = comdat any

$_ZN4llvm3isaINS_14FPMathOperatorEPNS_7PHINodeEEEbRKT0_ = comdat any

$_ZNK4llvm13IRBuilderBase6InsertINS_7PHINodeEEEPT_S4_RKNS_5TwineE = comdat any

$_ZN4llvm7PHINodeC2EPNS_4TypeEjRKNS_5TwineEPNS_11InstructionE = comdat any

$_ZNK4llvm4Type9isTokenTyEv = comdat any

$_ZN4llvm7PHINode16allocHungoffUsesEj = comdat any

$_ZN4llvm13isa_impl_wrapINS_14FPMathOperatorEKPNS_7PHINodeEPKS2_E4doitERS4_ = comdat any

$_ZN4llvm13isa_impl_wrapINS_14FPMathOperatorEPKNS_7PHINodeES4_E4doitERKS4_ = comdat any

$_ZN4llvm13simplify_typeIKPNS_7PHINodeEE18getSimplifiedValueERS3_ = comdat any

$_ZN4llvm11isa_impl_clINS_14FPMathOperatorEPKNS_7PHINodeEE4doitES4_ = comdat any

$_ZN4llvm8isa_implINS_14FPMathOperatorENS_7PHINodeEvE4doitERKS2_ = comdat any

$_ZN4llvm13simplify_typeIPNS_7PHINodeEE18getSimplifiedValueERS2_ = comdat any

$_ZNK4llvm7PHINode14getNumOperandsEv = comdat any

$_ZN4llvm4User24setNumHungOffUseOperandsEj = comdat any

$_ZN4llvm7PHINode16setIncomingValueEjPNS_5ValueE = comdat any

$_ZN4llvm7PHINode16setIncomingBlockEjPNS_10BasicBlockE = comdat any

$_ZN4llvm20HungoffOperandTraitsILj2EE8operandsEPKNS_4UserE = comdat any

$_ZNK4llvm4User14getNumOperandsEv = comdat any

$_ZN4llvm7PHINode10setOperandEjPNS_5ValueE = comdat any

$_ZN4llvm20HungoffOperandTraitsILj2EE8op_beginEPNS_4UserE = comdat any

$_ZN4llvm3UseaSEPNS_5ValueE = comdat any

$_ZN4llvm4User14getOperandListEv = comdat any

$_ZNK4llvm4User14getOperandListEv = comdat any

$_ZNK4llvm4User18getHungOffOperandsEv = comdat any

$_ZNK4llvm4User20getIntrusiveOperandsEv = comdat any

$_ZN4llvm3Use3setEPNS_5ValueE = comdat any

$_ZN4llvm3Use14removeFromListEv = comdat any

$_ZN4llvm5Value6addUseERNS_3UseE = comdat any

$_ZN4llvm3Use9addToListEPPS0_ = comdat any

$_ZN4llvm7PHINode11block_beginEv = comdat any

$_ZN4llvm7PHINode8op_beginEv = comdat any

$_ZN4llvm13IRBuilderBase11CreateStoreEPNS_5ValueES2_b = comdat any

$_ZN4llvm13IRBuilderBase10CreateFAddEPNS_5ValueES2_RKNS_5TwineEPNS_6MDNodeE = comdat any

$_ZNSt3mapINSt7__cxx1112basic_stringIcSt11char_traitsIcESaIcEEEPN4llvm10AllocaInstESt4lessIS5_ESaISt4pairIKS5_S8_EEE5eraseERSC_ = comdat any

$_ZN4llvm8Function13getEntryBlockEv = comdat any

$_ZN4llvm10BasicBlock5beginEv = comdat any

$_ZN4llvm9IRBuilderINS_14ConstantFolderENS_24IRBuilderDefaultInserterEEC2EPNS_10BasicBlockENS_14ilist_iteratorINS_12ilist_detail12node_optionsINS_11InstructionELb0ELb0EvEELb0ELb0EEEPNS_6MDNodeENS_8ArrayRefINS_17OperandBundleDefTIPNS_5ValueEEEEE = comdat any

$_ZN4llvm13IRBuilderBase12CreateAllocaEPNS_4TypeEPNS_5ValueERKNS_5TwineE = comdat any

$_ZN4llvm5TwineC2ERKNS_9StringRefE = comdat any

$_ZN4llvm8Function5frontEv = comdat any

$_ZN4llvm12simple_ilistINS_10BasicBlockEJEE5frontEv = comdat any

$_ZN4llvm12simple_ilistINS_10BasicBlockEJEE5beginEv = comdat any

$_ZNK4llvm14ilist_iteratorINS_12ilist_detail12node_optionsINS_10BasicBlockELb0ELb0EvEELb0ELb0EEdeEv = comdat any

$_ZN4llvm14ilist_iteratorINS_12ilist_detail12node_optionsINS_10BasicBlockELb0ELb0EvEELb0ELb0EEppEv = comdat any

$_ZN4llvm15ilist_node_implINS_12ilist_detail12node_optionsINS_10BasicBlockELb0ELb0EvEEE7getNextEv = comdat any

$_ZNK4llvm15ilist_node_baseILb0EE7getNextEv = comdat any

$_ZNK4llvm15ilist_node_baseILb0EE15isKnownSentinelEv = comdat any

$_ZN4llvm12ilist_detail18SpecificNodeAccessINS0_12node_optionsINS_10BasicBlockELb0ELb0EvEEE11getValuePtrEPNS_15ilist_node_implIS4_EE = comdat any

$_ZN4llvm12ilist_detail10NodeAccess11getValuePtrINS0_12node_optionsINS_10BasicBlockELb0ELb0EvEEEENT_7pointerEPNS_15ilist_node_implIS6_EE = comdat any

$_ZN4llvm12simple_ilistINS_11InstructionEJEE5beginEv = comdat any

$_ZN4llvm14ilist_iteratorINS_12ilist_detail12node_optionsINS_11InstructionELb0ELb0EvEELb0ELb0EEppEv = comdat any

$_ZN4llvm15ilist_node_implINS_12ilist_detail12node_optionsINS_11InstructionELb0ELb0EvEEE7getNextEv = comdat any

$_ZN4llvm13IRBuilderBase14SetInsertPointEPNS_10BasicBlockENS_14ilist_iteratorINS_12ilist_detail12node_optionsINS_11InstructionELb0ELb0EvEELb0ELb0EEE = comdat any

$_ZN4llvmneERKNS_14ilist_iteratorINS_12ilist_detail12node_optionsINS_11InstructionELb0ELb0EvEELb0ELb0EEES7_ = comdat any

$_ZN4llvm13IRBuilderBase23SetCurrentDebugLocationENS_8DebugLocE = comdat any

$_ZNK4llvm14ilist_iteratorINS_12ilist_detail12node_optionsINS_11InstructionELb0ELb0EvEELb0ELb0EEptEv = comdat any

$_ZNK4llvm11Instruction11getDebugLocEv = comdat any

$_ZN4llvm8DebugLocC2ERKS0_ = comdat any

$_ZN4llvm8DebugLocD2Ev = comdat any

$_ZN4llvm13IRBuilderBase25AddOrRemoveMetadataToCopyEjPNS_6MDNodeE = comdat any

$_ZNK4llvm8DebugLoc11getAsMDNodeEv = comdat any

$_ZN4llvm8erase_ifINS_11SmallVectorISt4pairIjPNS_6MDNodeEELj2EEEZNS_13IRBuilderBase25AddOrRemoveMetadataToCopyEjS4_EUlRKS5_E_EEvRT_T0_ = comdat any

$_ZN4llvm15SmallVectorImplISt4pairIjPNS_6MDNodeEEE12emplace_backIJRjRS3_EEERS4_DpOT_ = comdat any

$_ZN4llvm15SmallVectorImplISt4pairIjPNS_6MDNodeEEE5eraseEPKS4_S7_ = comdat any

$_ZN4llvm9remove_ifIRNS_11SmallVectorISt4pairIjPNS_6MDNodeEELj2EEEZNS_13IRBuilderBase25AddOrRemoveMetadataToCopyEjS4_EUlRKS5_E_EEDaOT_T0_ = comdat any

$_ZNK4llvm25SmallVectorTemplateCommonISt4pairIjPNS_6MDNodeEEvE16isRangeInStorageEPKvS7_ = comdat any

$_ZSt4moveIPSt4pairIjPN4llvm6MDNodeEES5_ET0_T_S7_S6_ = comdat any

$_ZN4llvm15SmallVectorBaseIjE8set_sizeEy = comdat any

$_ZNKSt4lessIvEclIKvKSt4pairIjPN4llvm6MDNodeEEEEbPT_PT0_ = comdat any

$_ZNKSt4lessIvEclIKvS2_EEbPT_PT0_ = comdat any

$_ZNKSt4lessIvEclIKSt4pairIjPN4llvm6MDNodeEEKvEEbPT_PT0_ = comdat any

$_ZNKSt4lessIPKvEclES1_S1_ = comdat any

$_ZSt13__copy_move_aILb1EPSt4pairIjPN4llvm6MDNodeEES5_ET1_T0_S7_S6_ = comdat any

$_ZSt12__miter_baseIPSt4pairIjPN4llvm6MDNodeEEET_S6_ = comdat any

$_ZSt12__niter_wrapIPSt4pairIjPN4llvm6MDNodeEEET_RKS6_S6_ = comdat any

$_ZSt14__copy_move_a1ILb1EPSt4pairIjPN4llvm6MDNodeEES5_ET1_T0_S7_S6_ = comdat any

$_ZSt12__niter_baseIPSt4pairIjPN4llvm6MDNodeEEET_S6_ = comdat any

$_ZSt14__copy_move_a2ILb1EPSt4pairIjPN4llvm6MDNodeEES5_ET1_T0_S7_S6_ = comdat any

$_ZNSt11__copy_moveILb1ELb0ESt26random_access_iterator_tagE8__copy_mIPSt4pairIjPN4llvm6MDNodeEES8_EET0_T_SA_S9_ = comdat any

$_ZSt4moveIRSt4pairIjPN4llvm6MDNodeEEEONSt16remove_referenceIT_E4typeEOS7_ = comdat any

$_ZNSt4pairIjPN4llvm6MDNodeEEaSEOS3_ = comdat any

$_ZSt7forwardIjEOT_RNSt16remove_referenceIS0_E4typeE = comdat any

$_ZSt7forwardIPN4llvm6MDNodeEEOT_RNSt16remove_referenceIS3_E4typeE = comdat any

$_ZNK4llvm15SmallVectorBaseIjE8capacityEv = comdat any

$_ZSt9remove_ifIPSt4pairIjPN4llvm6MDNodeEEZNS1_13IRBuilderBase25AddOrRemoveMetadataToCopyEjS3_EUlRKS4_E_ET_SA_SA_T0_ = comdat any

$_ZN4llvm9adl_beginIRNS_11SmallVectorISt4pairIjPNS_6MDNodeEELj2EEEEEDcOT_ = comdat any

$_ZN4llvm7adl_endIRNS_11SmallVectorISt4pairIjPNS_6MDNodeEELj2EEEEEDcOT_ = comdat any

$_ZSt11__remove_ifIPSt4pairIjPN4llvm6MDNodeEEN9__gnu_cxx5__ops10_Iter_predIZNS1_13IRBuilderBase25AddOrRemoveMetadataToCopyEjS3_EUlRKS4_E_EEET_SE_SE_T0_ = comdat any

$_ZN9__gnu_cxx5__ops11__pred_iterIZN4llvm13IRBuilderBase25AddOrRemoveMetadataToCopyEjPNS2_6MDNodeEEUlRKSt4pairIjS5_EE_EENS0_10_Iter_predIT_EESC_ = comdat any

$_ZSt9__find_ifIPSt4pairIjPN4llvm6MDNodeEEN9__gnu_cxx5__ops10_Iter_predIZNS1_13IRBuilderBase25AddOrRemoveMetadataToCopyEjS3_EUlRKS4_E_EEET_SE_SE_T0_ = comdat any

$_ZN9__gnu_cxx5__ops10_Iter_predIZN4llvm13IRBuilderBase25AddOrRemoveMetadataToCopyEjPNS2_6MDNodeEEUlRKSt4pairIjS5_EE_EclIPS7_EEbT_ = comdat any

$_ZSt9__find_ifIPSt4pairIjPN4llvm6MDNodeEEN9__gnu_cxx5__ops10_Iter_predIZNS1_13IRBuilderBase25AddOrRemoveMetadataToCopyEjS3_EUlRKS4_E_EEET_SE_SE_T0_St26random_access_iterator_tag = comdat any

$_ZSt19__iterator_categoryIPSt4pairIjPN4llvm6MDNodeEEENSt15iterator_traitsIT_E17iterator_categoryERKS7_ = comdat any

$_ZZN4llvm13IRBuilderBase25AddOrRemoveMetadataToCopyEjPNS_6MDNodeEENKUlRKSt4pairIjS2_EE_clES6_ = comdat any

$_ZSt4moveIRZN4llvm13IRBuilderBase25AddOrRemoveMetadataToCopyEjPNS0_6MDNodeEEUlRKSt4pairIjS3_EE_EONSt16remove_referenceIT_E4typeEOSB_ = comdat any

$_ZN9__gnu_cxx5__ops10_Iter_predIZN4llvm13IRBuilderBase25AddOrRemoveMetadataToCopyEjPNS2_6MDNodeEEUlRKSt4pairIjS5_EE_EC2ESA_ = comdat any

$_ZN4llvm10adl_detail9adl_beginIRNS_11SmallVectorISt4pairIjPNS_6MDNodeEELj2EEEEEDcOT_ = comdat any

$_ZSt7forwardIRN4llvm11SmallVectorISt4pairIjPNS0_6MDNodeEELj2EEEEOT_RNSt16remove_referenceIS8_E4typeE = comdat any

$_ZSt5beginIN4llvm11SmallVectorISt4pairIjPNS0_6MDNodeEELj2EEEEDTcldtfp_5beginEERT_ = comdat any

$_ZN4llvm10adl_detail7adl_endIRNS_11SmallVectorISt4pairIjPNS_6MDNodeEELj2EEEEEDcOT_ = comdat any

$_ZSt3endIN4llvm11SmallVectorISt4pairIjPNS0_6MDNodeEELj2EEEEDTcldtfp_3endEERT_ = comdat any

$_ZN4llvm23SmallVectorTemplateBaseISt4pairIjPNS_6MDNodeEELb1EE18growAndEmplaceBackIJRjRS3_EEERS4_DpOT_ = comdat any

$_ZSt7forwardIRPN4llvm6MDNodeEEOT_RNSt16remove_referenceIS4_E4typeE = comdat any

$_ZNSt4pairIjPN4llvm6MDNodeEEC2IRjRS2_Lb1EEEOT_OT0_ = comdat any

$_ZN4llvm25SmallVectorTemplateCommonISt4pairIjPNS_6MDNodeEEvE4backEv = comdat any

$_ZN4llvm23SmallVectorTemplateBaseISt4pairIjPNS_6MDNodeEELb1EE9push_backES4_ = comdat any

$_ZN4llvm23SmallVectorTemplateBaseISt4pairIjPNS_6MDNodeEELb1EE28reserveForParamAndGetAddressERS4_y = comdat any

$_ZN4llvm25SmallVectorTemplateCommonISt4pairIjPNS_6MDNodeEEvE32reserveForParamAndGetAddressImplINS_23SmallVectorTemplateBaseIS4_Lb1EEEEEPKS4_PT_RS9_y = comdat any

$_ZN4llvm23SmallVectorTemplateBaseISt4pairIjPNS_6MDNodeEELb1EE4growEy = comdat any

$_ZN4llvm25SmallVectorTemplateCommonISt4pairIjPNS_6MDNodeEEvE8grow_podEyy = comdat any

$_ZNK4llvm15SmallVectorBaseIjE5emptyEv = comdat any

$_ZNK4llvm18TypedTrackingMDRefINS_6MDNodeEEcvPS1_Ev = comdat any

$_ZNK4llvm18TypedTrackingMDRefINS_6MDNodeEE3getEv = comdat any

$_ZNK4llvm13TrackingMDRef3getEv = comdat any

$_ZNK4llvm14ilist_iteratorINS_12ilist_detail12node_optionsINS_11InstructionELb0ELb0EvEELb0ELb0EEdeEv = comdat any

$_ZN4llvm12ilist_detail18SpecificNodeAccessINS0_12node_optionsINS_11InstructionELb0ELb0EvEEE11getValuePtrEPNS_15ilist_node_implIS4_EE = comdat any

$_ZN4llvm12ilist_detail10NodeAccess11getValuePtrINS0_12node_optionsINS_11InstructionELb0ELb0EvEEEENT_7pointerEPNS_15ilist_node_implIS6_EE = comdat any

$_ZN4llvm18TypedTrackingMDRefINS_6MDNodeEEC2ERKS2_ = comdat any

$_ZN4llvm13TrackingMDRefC2ERKS0_ = comdat any

$_ZN4llvm13TrackingMDRef5trackEv = comdat any

$_ZN4llvm16MetadataTracking5trackERPNS_8MetadataE = comdat any

$_ZN4llvm12PointerUnionIJPNS_15MetadataAsValueEPNS_8MetadataEEECI2NS_20pointer_union_detail19PointerUnionMembersIS5_NS_14PointerIntPairIPvLj1EiNS6_22PointerUnionUIntTraitsIJS2_S4_EEENS_18PointerIntPairInfoIS9_Lj1ESB_EEEELi1EJS4_EEEES4_ = comdat any

$_ZN4llvm20pointer_union_detail19PointerUnionMembersINS_12PointerUnionIJPNS_15MetadataAsValueEPNS_8MetadataEEEENS_14PointerIntPairIPvLj1EiNS0_22PointerUnionUIntTraitsIJS4_S6_EEENS_18PointerIntPairInfoIS9_Lj1ESB_EEEELi0EJS4_S6_EECI2NS1_IS7_SE_Li1EJS6_EEEES6_ = comdat any

$_ZN4llvm20pointer_union_detail19PointerUnionMembersINS_12PointerUnionIJPNS_15MetadataAsValueEPNS_8MetadataEEEENS_14PointerIntPairIPvLj1EiNS0_22PointerUnionUIntTraitsIJS4_S6_EEENS_18PointerIntPairInfoIS9_Lj1ESB_EEEELi1EJS6_EEC2ES6_ = comdat any

$_ZN4llvm21PointerLikeTypeTraitsIPNS_8MetadataEE16getAsVoidPointerES2_ = comdat any

$_ZN4llvm14PointerIntPairIPvLj1EiNS_20pointer_union_detail22PointerUnionUIntTraitsIJPNS_15MetadataAsValueEPNS_8MetadataEEEENS_18PointerIntPairInfoIS1_Lj1ES8_EEEC2ES1_i = comdat any

$_ZN4llvm20pointer_union_detail19PointerUnionMembersINS_12PointerUnionIJPNS_15MetadataAsValueEPNS_8MetadataEEEENS_14PointerIntPairIPvLj1EiNS0_22PointerUnionUIntTraitsIJS4_S6_EEENS_18PointerIntPairInfoIS9_Lj1ESB_EEEELi2EJEEC2ESE_ = comdat any

$_ZNR4llvm14PointerIntPairIPvLj1EiNS_20pointer_union_detail22PointerUnionUIntTraitsIJPNS_15MetadataAsValueEPNS_8MetadataEEEENS_18PointerIntPairInfoIS1_Lj1ES8_EEE16setPointerAndIntES1_i = comdat any

$_ZN4llvm18PointerIntPairInfoIPvLj1ENS_20pointer_union_detail22PointerUnionUIntTraitsIJPNS_15MetadataAsValueEPNS_8MetadataEEEEE9updateIntExx = comdat any

$_ZN4llvm18PointerIntPairInfoIPvLj1ENS_20pointer_union_detail22PointerUnionUIntTraitsIJPNS_15MetadataAsValueEPNS_8MetadataEEEEE13updatePointerExS1_ = comdat any

$_ZN4llvm20pointer_union_detail22PointerUnionUIntTraitsIJPNS_15MetadataAsValueEPNS_8MetadataEEE16getAsVoidPointerEPv = comdat any

$_ZN4llvm18TypedTrackingMDRefINS_6MDNodeEED2Ev = comdat any

$_ZN4llvm13TrackingMDRefD2Ev = comdat any

$_ZN4llvm13TrackingMDRef7untrackEv = comdat any

$_ZN4llvm16MetadataTracking7untrackERPNS_8MetadataE = comdat any

$_ZNK4llvm10DataLayout18getAllocaAddrSpaceEv = comdat any

$_ZNK4llvm13IRBuilderBase6InsertINS_10AllocaInstEEEPT_S4_RKNS_5TwineE = comdat any

$_ZNK4llvm9StringRef4dataEv = comdat any

$_ZNK4llvm9StringRef4sizeEv = comdat any

$_ZN4llvm13IRBuilderBase18CreateAlignedStoreEPNS_5ValueES2_NS_10MaybeAlignEb = comdat any

$_ZNK4llvm13IRBuilderBase6InsertINS_9StoreInstEEEPT_S4_RKNS_5TwineE = comdat any

$_ZN4llvm9StoreInstnwEy = comdat any

$_ZN4llvm9StoreInstdlEPv = comdat any

$_ZN4llvm8OptionalINS_12RoundingModeEEC2ENS_8NoneTypeE = comdat any

$_ZN4llvm8OptionalINS_2fp17ExceptionBehaviorEEC2ENS_8NoneTypeE = comdat any

$_ZNK4llvm13IRBuilderBase12foldConstantENS_11Instruction9BinaryOpsEPNS_5ValueES4_RKNS_5TwineE = comdat any

$_ZN4llvm14BinaryOperator10CreateFAddEPNS_5ValueES2_RKNS_5TwineE = comdat any

$_ZNK4llvm13IRBuilderBase6InsertINS_11InstructionEEEPT_S4_RKNS_5TwineE = comdat any

$_ZN4llvm15optional_detail15OptionalStorageINS_12RoundingModeELb1EEC2Ev = comdat any

$_ZN4llvm15optional_detail15OptionalStorageINS_2fp17ExceptionBehaviorELb1EEC2Ev = comdat any

$_ZN4llvm8dyn_castINS_8ConstantENS_5ValueEEENS_10cast_rettyIT_PT0_E8ret_typeES6_ = comdat any

$_ZNK4llvm13IRBuilderBase6InsertEPNS_5ValueERKNS_5TwineE = comdat any

$_ZN4llvm3isaINS_8ConstantEPNS_5ValueEEEbRKT0_ = comdat any

$_ZN4llvm4castINS_8ConstantENS_5ValueEEENS_10cast_rettyIT_PT0_E8ret_typeES6_ = comdat any

$_ZN4llvm13isa_impl_wrapINS_8ConstantEKPNS_5ValueEPKS2_E4doitERS4_ = comdat any

$_ZN4llvm13isa_impl_wrapINS_8ConstantEPKNS_5ValueES4_E4doitERKS4_ = comdat any

$_ZN4llvm13simplify_typeIKPNS_5ValueEE18getSimplifiedValueERS3_ = comdat any

$_ZN4llvm11isa_impl_clINS_8ConstantEPKNS_5ValueEE4doitES4_ = comdat any

$_ZN4llvm8isa_implINS_8ConstantENS_5ValueEvE4doitERKS2_ = comdat any

$_ZN4llvm13simplify_typeIPNS_5ValueEE18getSimplifiedValueERS2_ = comdat any

$_ZN4llvm16cast_convert_valINS_8ConstantEPNS_5ValueES3_E4doitERKS3_ = comdat any

$_ZN4llvm8dyn_castINS_11InstructionENS_5ValueEEENS_10cast_rettyIT_PT0_E8ret_typeES6_ = comdat any

$_ZN4llvm3isaINS_11InstructionEPNS_5ValueEEEbRKT0_ = comdat any

$_ZN4llvm4castINS_11InstructionENS_5ValueEEENS_10cast_rettyIT_PT0_E8ret_typeES6_ = comdat any

$_ZN4llvm13isa_impl_wrapINS_11InstructionEKPNS_5ValueEPKS2_E4doitERS4_ = comdat any

$_ZN4llvm16cast_convert_valINS_11InstructionEPNS_5ValueES3_E4doitERKS3_ = comdat any

$_ZNSt8_Rb_treeINSt7__cxx1112basic_stringIcSt11char_traitsIcESaIcEEESt4pairIKS5_PN4llvm10AllocaInstEESt10_Select1stISB_ESt4lessIS5_ESaISB_EE5eraseERS7_ = comdat any

$_ZNSt8_Rb_treeINSt7__cxx1112basic_stringIcSt11char_traitsIcESaIcEEESt4pairIKS5_PN4llvm10AllocaInstEESt10_Select1stISB_ESt4lessIS5_ESaISB_EE11equal_rangeERS7_ = comdat any

$_ZNSt8_Rb_treeINSt7__cxx1112basic_stringIcSt11char_traitsIcESaIcEEESt4pairIKS5_PN4llvm10AllocaInstEESt10_Select1stISB_ESt4lessIS5_ESaISB_EE12_M_erase_auxESt23_Rb_tree_const_iteratorISB_ESJ_ = comdat any

$_ZNSt8_Rb_treeINSt7__cxx1112basic_stringIcSt11char_traitsIcESaIcEEESt4pairIKS5_PN4llvm10AllocaInstEESt10_Select1stISB_ESt4lessIS5_ESaISB_EE14_M_upper_boundEPSt13_Rb_tree_nodeISB_EPSt18_Rb_tree_node_baseRS7_ = comdat any

$_ZNSt4pairISt17_Rb_tree_iteratorIS_IKNSt7__cxx1112basic_stringIcSt11char_traitsIcESaIcEEEPN4llvm10AllocaInstEEESC_EC2ISC_SC_Lb1EEEOT_OT0_ = comdat any

$_ZSt7forwardISt17_Rb_tree_iteratorISt4pairIKNSt7__cxx1112basic_stringIcSt11char_traitsIcESaIcEEEPN4llvm10AllocaInstEEEEOT_RNSt16remove_referenceISE_E4typeE = comdat any

$_ZSteqRKSt23_Rb_tree_const_iteratorISt4pairIKNSt7__cxx1112basic_stringIcSt11char_traitsIcESaIcEEEPN4llvm10AllocaInstEEESE_ = comdat any

$_ZNSt8_Rb_treeINSt7__cxx1112basic_stringIcSt11char_traitsIcESaIcEEESt4pairIKS5_PN4llvm10AllocaInstEESt10_Select1stISB_ESt4lessIS5_ESaISB_EE5clearEv = comdat any

$_ZStneRKSt23_Rb_tree_const_iteratorISt4pairIKNSt7__cxx1112basic_stringIcSt11char_traitsIcESaIcEEEPN4llvm10AllocaInstEEESE_ = comdat any

$_ZNSt8_Rb_treeINSt7__cxx1112basic_stringIcSt11char_traitsIcESaIcEEESt4pairIKS5_PN4llvm10AllocaInstEESt10_Select1stISB_ESt4lessIS5_ESaISB_EE12_M_erase_auxESt23_Rb_tree_const_iteratorISB_E = comdat any

$_ZNSt23_Rb_tree_const_iteratorISt4pairIKNSt7__cxx1112basic_stringIcSt11char_traitsIcESaIcEEEPN4llvm10AllocaInstEEEppEi = comdat any

$_ZNSt6vectorIPN4llvm10AllocaInstESaIS2_EEC2Ev = comdat any

$_ZNSt6vectorIPN4llvm10AllocaInstESaIS2_EE9push_backERKS2_ = comdat any

$_ZNSt6vectorIPN4llvm10AllocaInstESaIS2_EEixEy = comdat any

$_ZNSt6vectorIPN4llvm10AllocaInstESaIS2_EED2Ev = comdat any

$_ZNSt12_Vector_baseIPN4llvm10AllocaInstESaIS2_EEC2Ev = comdat any

$_ZNSt12_Vector_baseIPN4llvm10AllocaInstESaIS2_EE12_Vector_implC2Ev = comdat any

$_ZNSaIPN4llvm10AllocaInstEEC2Ev = comdat any

$_ZNSt12_Vector_baseIPN4llvm10AllocaInstESaIS2_EE17_Vector_impl_dataC2Ev = comdat any

$_ZN9__gnu_cxx13new_allocatorIPN4llvm10AllocaInstEEC2Ev = comdat any

$_ZNSt16allocator_traitsISaIPN4llvm10AllocaInstEEE9constructIS2_JRKS2_EEEvRS3_PT_DpOT0_ = comdat any

$_ZNSt6vectorIPN4llvm10AllocaInstESaIS2_EE17_M_realloc_insertIJRKS2_EEEvN9__gnu_cxx17__normal_iteratorIPS2_S4_EEDpOT_ = comdat any

$_ZNSt6vectorIPN4llvm10AllocaInstESaIS2_EE3endEv = comdat any

$_ZN9__gnu_cxx13new_allocatorIPN4llvm10AllocaInstEE9constructIS3_JRKS3_EEEvPT_DpOT0_ = comdat any

$_ZSt7forwardIRKPN4llvm10AllocaInstEEOT_RNSt16remove_referenceIS5_E4typeE = comdat any

$_ZNKSt6vectorIPN4llvm10AllocaInstESaIS2_EE12_M_check_lenEyPKc = comdat any

$_ZN9__gnu_cxxmiIPPN4llvm10AllocaInstESt6vectorIS3_SaIS3_EEEENS_17__normal_iteratorIT_T0_E15difference_typeERKSB_SE_ = comdat any

$_ZNSt6vectorIPN4llvm10AllocaInstESaIS2_EE5beginEv = comdat any

$_ZNSt12_Vector_baseIPN4llvm10AllocaInstESaIS2_EE11_M_allocateEy = comdat any

$_ZNSt6vectorIPN4llvm10AllocaInstESaIS2_EE11_S_relocateEPS2_S5_S5_RS3_ = comdat any

$_ZNK9__gnu_cxx17__normal_iteratorIPPN4llvm10AllocaInstESt6vectorIS3_SaIS3_EEE4baseEv = comdat any

$_ZNSt12_Vector_baseIPN4llvm10AllocaInstESaIS2_EE19_M_get_Tp_allocatorEv = comdat any

$_ZNSt12_Vector_baseIPN4llvm10AllocaInstESaIS2_EE13_M_deallocateEPS2_y = comdat any

$_ZNKSt6vectorIPN4llvm10AllocaInstESaIS2_EE8max_sizeEv = comdat any

$_ZNKSt6vectorIPN4llvm10AllocaInstESaIS2_EE4sizeEv = comdat any

$_ZNSt6vectorIPN4llvm10AllocaInstESaIS2_EE11_S_max_sizeERKS3_ = comdat any

$_ZNKSt12_Vector_baseIPN4llvm10AllocaInstESaIS2_EE19_M_get_Tp_allocatorEv = comdat any

$_ZNSt16allocator_traitsISaIPN4llvm10AllocaInstEEE8max_sizeERKS3_ = comdat any

$_ZNK9__gnu_cxx13new_allocatorIPN4llvm10AllocaInstEE8max_sizeEv = comdat any

$_ZNK9__gnu_cxx13new_allocatorIPN4llvm10AllocaInstEE11_M_max_sizeEv = comdat any

$_ZN9__gnu_cxx17__normal_iteratorIPPN4llvm10AllocaInstESt6vectorIS3_SaIS3_EEEC2ERKS4_ = comdat any

$_ZNSt16allocator_traitsISaIPN4llvm10AllocaInstEEE8allocateERS3_y = comdat any

$_ZN9__gnu_cxx13new_allocatorIPN4llvm10AllocaInstEE8allocateEyPKv = comdat any

$_ZNSt6vectorIPN4llvm10AllocaInstESaIS2_EE14_S_do_relocateEPS2_S5_S5_RS3_St17integral_constantIbLb1EE = comdat any

$_ZSt12__relocate_aIPPN4llvm10AllocaInstES3_SaIS2_EET0_T_S6_S5_RT1_ = comdat any

$_ZSt14__relocate_a_1IPN4llvm10AllocaInstES2_ENSt9enable_ifIXsr3std24__is_bitwise_relocatableIT_EE5valueEPS4_E4typeES5_S5_S5_RSaIT0_E = comdat any

$_ZSt12__niter_baseIPPN4llvm10AllocaInstEET_S4_ = comdat any

$_ZNSt16allocator_traitsISaIPN4llvm10AllocaInstEEE10deallocateERS3_PS2_y = comdat any

$_ZN9__gnu_cxx13new_allocatorIPN4llvm10AllocaInstEE10deallocateEPS3_y = comdat any

$_ZSt8_DestroyIPPN4llvm10AllocaInstES2_EvT_S4_RSaIT0_E = comdat any

$_ZNSt12_Vector_baseIPN4llvm10AllocaInstESaIS2_EED2Ev = comdat any

$_ZSt8_DestroyIPPN4llvm10AllocaInstEEvT_S4_ = comdat any

$_ZNSt12_Destroy_auxILb1EE9__destroyIPPN4llvm10AllocaInstEEEvT_S6_ = comdat any

$_ZNSt12_Vector_baseIPN4llvm10AllocaInstESaIS2_EE12_Vector_implD2Ev = comdat any

$_ZNSaIPN4llvm10AllocaInstEED2Ev = comdat any

$_ZN9__gnu_cxx13new_allocatorIPN4llvm10AllocaInstEED2Ev = comdat any

$_ZSt7forwardIRiEOT_RNSt16remove_referenceIS1_E4typeE = comdat any

$_ZStplIcSt11char_traitsIcESaIcEENSt7__cxx1112basic_stringIT_T0_T1_EEOS8_S5_ = comdat any

$_ZN4llvm8ArrayRefIPNS_5ValueEEC2ERKS2_ = comdat any

$_ZN4llvm13IRBuilderBase10CreateFSubEPNS_5ValueES2_RKNS_5TwineEPNS_6MDNodeE = comdat any

$_ZN4llvm13IRBuilderBase10CreateFMulEPNS_5ValueES2_RKNS_5TwineEPNS_6MDNodeE = comdat any

$_ZN4llvm13IRBuilderBase13CreateFCmpULTEPNS_5ValueES2_RKNS_5TwineEPNS_6MDNodeE = comdat any

$_ZN4llvm13IRBuilderBase12CreateUIToFPEPNS_5ValueEPNS_4TypeERKNS_5TwineE = comdat any

$_ZN4llvm8ArrayRefIPNS_5ValueEEC2ILy2EEERAT__KS2_ = comdat any

$_ZN4llvm14BinaryOperator10CreateFSubEPNS_5ValueES2_RKNS_5TwineE = comdat any

$_ZN4llvm14BinaryOperator10CreateFMulEPNS_5ValueES2_RKNS_5TwineE = comdat any

$_ZN4llvm13IRBuilderBase10CreateCastENS_11Instruction7CastOpsEPNS_5ValueEPNS_4TypeERKNS_5TwineE = comdat any

$_ZNK4llvm13IRBuilderBase6InsertINS_8CastInstEEEPT_S4_RKNS_5TwineE = comdat any

$_ZNSt3mapINSt7__cxx1112basic_stringIcSt11char_traitsIcESaIcEEEPN4llvm10AllocaInstESt4lessIS5_ESaISt4pairIKS5_S8_EEE5clearEv = comdat any

$_ZNSt3mapINSt7__cxx1112basic_stringIcSt11char_traitsIcESaIcEEEPN4llvm10AllocaInstESt4lessIS5_ESaISt4pairIKS5_S8_EEEixEOS5_ = comdat any

$_ZNK4llvm9StringRefcvNSt7__cxx1112basic_stringIcSt11char_traitsIcESaIcEEEEv = comdat any

$_ZN4llvm13IRBuilderBase9CreateRetEPNS_5ValueE = comdat any

$_ZNSt3mapIciSt4lessIcESaISt4pairIKciEEE5eraseERS3_ = comdat any

$_ZNSt8_Rb_treeINSt7__cxx1112basic_stringIcSt11char_traitsIcESaIcEEESt4pairIKS5_PN4llvm10AllocaInstEESt10_Select1stISB_ESt4lessIS5_ESaISB_EE22_M_emplace_hint_uniqueIJRKSt21piecewise_construct_tSt5tupleIJOS5_EESM_IJEEEEESt17_Rb_tree_iteratorISB_ESt23_Rb_tree_const_iteratorISB_EDpOT_ = comdat any

$_ZSt16forward_as_tupleIJNSt7__cxx1112basic_stringIcSt11char_traitsIcESaIcEEEEESt5tupleIJDpOT_EES9_ = comdat any

$_ZNSt8_Rb_treeINSt7__cxx1112basic_stringIcSt11char_traitsIcESaIcEEESt4pairIKS5_PN4llvm10AllocaInstEESt10_Select1stISB_ESt4lessIS5_ESaISB_EE14_M_create_nodeIJRKSt21piecewise_construct_tSt5tupleIJOS5_EESM_IJEEEEEPSt13_Rb_tree_nodeISB_EDpOT_ = comdat any

$_ZSt7forwardISt5tupleIJONSt7__cxx1112basic_stringIcSt11char_traitsIcESaIcEEEEEEOT_RNSt16remove_referenceIS9_E4typeE = comdat any

$_ZNSt8_Rb_treeINSt7__cxx1112basic_stringIcSt11char_traitsIcESaIcEEESt4pairIKS5_PN4llvm10AllocaInstEESt10_Select1stISB_ESt4lessIS5_ESaISB_EE17_M_construct_nodeIJRKSt21piecewise_construct_tSt5tupleIJOS5_EESM_IJEEEEEvPSt13_Rb_tree_nodeISB_EDpOT_ = comdat any

$_ZNSt16allocator_traitsISaISt13_Rb_tree_nodeISt4pairIKNSt7__cxx1112basic_stringIcSt11char_traitsIcESaIcEEEPN4llvm10AllocaInstEEEEE9constructISC_JRKSt21piecewise_construct_tSt5tupleIJOS7_EESK_IJEEEEEvRSE_PT_DpOT0_ = comdat any

$_ZN9__gnu_cxx13new_allocatorISt13_Rb_tree_nodeISt4pairIKNSt7__cxx1112basic_stringIcSt11char_traitsIcESaIcEEEPN4llvm10AllocaInstEEEE9constructISD_JRKSt21piecewise_construct_tSt5tupleIJOS8_EESK_IJEEEEEvPT_DpOT0_ = comdat any

$_ZNSt5tupleIJONSt7__cxx1112basic_stringIcSt11char_traitsIcESaIcEEEEEC2EOS7_ = comdat any

$_ZNSt4pairIKNSt7__cxx1112basic_stringIcSt11char_traitsIcESaIcEEEPN4llvm10AllocaInstEEC2IJOS5_EJEEESt21piecewise_construct_tSt5tupleIJDpT_EESE_IJDpT0_EE = comdat any

$_ZNSt11_Tuple_implILy0EJONSt7__cxx1112basic_stringIcSt11char_traitsIcESaIcEEEEEC2EOS7_ = comdat any

$_ZSt7forwardIONSt7__cxx1112basic_stringIcSt11char_traitsIcESaIcEEEEOT_RNSt16remove_referenceIS7_E4typeE = comdat any

$_ZNSt11_Tuple_implILy0EJONSt7__cxx1112basic_stringIcSt11char_traitsIcESaIcEEEEE7_M_headERS7_ = comdat any

$_ZNSt10_Head_baseILy0EONSt7__cxx1112basic_stringIcSt11char_traitsIcESaIcEEELb0EEC2IS5_EEOT_ = comdat any

$_ZNSt10_Head_baseILy0EONSt7__cxx1112basic_stringIcSt11char_traitsIcESaIcEEELb0EE7_M_headERS7_ = comdat any

$_ZNSt4pairIKNSt7__cxx1112basic_stringIcSt11char_traitsIcESaIcEEEPN4llvm10AllocaInstEEC2IJOS5_EJLy0EEJEJEEERSt5tupleIJDpT_EERSD_IJDpT1_EESt12_Index_tupleIJXspT0_EEESM_IJXspT2_EEE = comdat any

$_ZSt3getILy0EJONSt7__cxx1112basic_stringIcSt11char_traitsIcESaIcEEEEERNSt13tuple_elementIXT_ESt5tupleIJDpT0_EEE4typeERSB_ = comdat any

$_ZSt12__get_helperILy0EONSt7__cxx1112basic_stringIcSt11char_traitsIcESaIcEEEJEERT0_RSt11_Tuple_implIXT_EJS7_DpT1_EE = comdat any

$_ZNSt5tupleIJONSt7__cxx1112basic_stringIcSt11char_traitsIcESaIcEEEEEC2IJS5_ELb1ELb1EEEDpOT_ = comdat any

$_ZNSt11_Tuple_implILy0EJONSt7__cxx1112basic_stringIcSt11char_traitsIcESaIcEEEEEC2IS5_EEOT_ = comdat any

$_ZNK4llvm9StringRef3strB5cxx11Ev = comdat any

$_ZNK4llvm13IRBuilderBase6InsertINS_10ReturnInstEEEPT_S4_RKNS_5TwineE = comdat any

$_ZN4llvm10ReturnInst6CreateERNS_11LLVMContextEPNS_5ValueEPNS_11InstructionE = comdat any

$_ZNSt8_Rb_treeIcSt4pairIKciESt10_Select1stIS2_ESt4lessIcESaIS2_EE5eraseERS1_ = comdat any

$_ZNSt8_Rb_treeIcSt4pairIKciESt10_Select1stIS2_ESt4lessIcESaIS2_EE11equal_rangeERS1_ = comdat any

$_ZNKSt8_Rb_treeIcSt4pairIKciESt10_Select1stIS2_ESt4lessIcESaIS2_EE4sizeEv = comdat any

$_ZNSt8_Rb_treeIcSt4pairIKciESt10_Select1stIS2_ESt4lessIcESaIS2_EE12_M_erase_auxESt23_Rb_tree_const_iteratorIS2_ESA_ = comdat any

$_ZNSt23_Rb_tree_const_iteratorISt4pairIKciEEC2ERKSt17_Rb_tree_iteratorIS2_E = comdat any

$_ZNSt8_Rb_treeIcSt4pairIKciESt10_Select1stIS2_ESt4lessIcESaIS2_EE6_M_endEv = comdat any

$_ZNKSt4lessIcEclERKcS2_ = comdat any

$_ZNSt8_Rb_treeIcSt4pairIKciESt10_Select1stIS2_ESt4lessIcESaIS2_EE6_S_keyEPKSt13_Rb_tree_nodeIS2_E = comdat any

$_ZNSt8_Rb_treeIcSt4pairIKciESt10_Select1stIS2_ESt4lessIcESaIS2_EE14_M_lower_boundEPSt13_Rb_tree_nodeIS2_EPSt18_Rb_tree_node_baseRS1_ = comdat any

$_ZNSt8_Rb_treeIcSt4pairIKciESt10_Select1stIS2_ESt4lessIcESaIS2_EE14_M_upper_boundEPSt13_Rb_tree_nodeIS2_EPSt18_Rb_tree_node_baseRS1_ = comdat any

$_ZNSt4pairISt17_Rb_tree_iteratorIS_IKciEES3_EC2IS3_S3_Lb1EEEOT_OT0_ = comdat any

$_ZNSt17_Rb_tree_iteratorISt4pairIKciEEC2EPSt18_Rb_tree_node_base = comdat any

$_ZNKSt10_Select1stISt4pairIKciEEclERKS2_ = comdat any

$_ZNKSt13_Rb_tree_nodeISt4pairIKciEE9_M_valptrEv = comdat any

$_ZNK9__gnu_cxx16__aligned_membufISt4pairIKciEE6_M_ptrEv = comdat any

$_ZNK9__gnu_cxx16__aligned_membufISt4pairIKciEE7_M_addrEv = comdat any

$_ZSt7forwardISt17_Rb_tree_iteratorISt4pairIKciEEEOT_RNSt16remove_referenceIS5_E4typeE = comdat any

$_ZSteqRKSt23_Rb_tree_const_iteratorISt4pairIKciEES5_ = comdat any

$_ZNSt8_Rb_treeIcSt4pairIKciESt10_Select1stIS2_ESt4lessIcESaIS2_EE5beginEv = comdat any

$_ZNSt8_Rb_treeIcSt4pairIKciESt10_Select1stIS2_ESt4lessIcESaIS2_EE3endEv = comdat any

$_ZNSt8_Rb_treeIcSt4pairIKciESt10_Select1stIS2_ESt4lessIcESaIS2_EE5clearEv = comdat any

$_ZStneRKSt23_Rb_tree_const_iteratorISt4pairIKciEES5_ = comdat any

$_ZNSt8_Rb_treeIcSt4pairIKciESt10_Select1stIS2_ESt4lessIcESaIS2_EE12_M_erase_auxESt23_Rb_tree_const_iteratorIS2_E = comdat any

$_ZNSt23_Rb_tree_const_iteratorISt4pairIKciEEppEi = comdat any

$_ZSt7forwardISt6vectorINSt7__cxx1112basic_stringIcSt11char_traitsIcESaIcEEESaIS6_EEEOT_RNSt16remove_referenceIS9_E4typeE = comdat any

$_ZNSt4pairIiiEC2IiiLb1EEEOT_OT0_ = comdat any

$_ZNSt10shared_ptrIN4llvm12MemoryBufferEEC2Ev = comdat any

$_ZN4llvm12DenormalModeC2ENS0_16DenormalModeKindES1_ = comdat any

$_ZN4llvm12DenormalModeC2Ev = comdat any

$_ZNSt10shared_ptrIN4llvm12MemoryBufferEED2Ev = comdat any

$_ZSt7forwardIiEOT_RNSt16remove_referenceIS0_E4typeE = comdat any

$_ZNSt12__shared_ptrIN4llvm12MemoryBufferELN9__gnu_cxx12_Lock_policyE2EEC2Ev = comdat any

$_ZNSt14__shared_countILN9__gnu_cxx12_Lock_policyE2EEC2Ev = comdat any

$_ZNSt12__shared_ptrIN4llvm12MemoryBufferELN9__gnu_cxx12_Lock_policyE2EED2Ev = comdat any

$_ZNSt14__shared_countILN9__gnu_cxx12_Lock_policyE2EED2Ev = comdat any

$_ZNSt16_Sp_counted_baseILN9__gnu_cxx12_Lock_policyE2EE10_M_releaseEv = comdat any

$_ZN4llvm15optional_detail15OptionalStorageINS_5Reloc5ModelELb1EEC2Ev = comdat any

$_ZN4llvm6TripleD2Ev = comdat any

$_ZN4llvm9StringRef6strLenEPKc = comdat any

$_ZN4llvm15optional_detail15OptionalStorageINS_9CodeModel5ModelELb1EEC2Ev = comdat any

$_ZN4llvm10DataLayoutC2ERKS0_ = comdat any

$_ZN4llvm11SmallVectorIhLj8EEC2Ev = comdat any

$_ZN4llvm11SmallVectorINS_15LayoutAlignElemELj16EEC2Ev = comdat any

$_ZN4llvm11SmallVectorINS_16PointerAlignElemELj8EEC2Ev = comdat any

$_ZN4llvm11SmallVectorIjLj8EEC2Ev = comdat any

$_ZN4llvm10DataLayoutaSERKS0_ = comdat any

$_ZN4llvm11SmallVectorIjLj8EED2Ev = comdat any

$_ZN4llvm11SmallVectorINS_16PointerAlignElemELj8EED2Ev = comdat any

$_ZN4llvm11SmallVectorINS_15LayoutAlignElemELj16EED2Ev = comdat any

$_ZN4llvm11SmallVectorIhLj8EED2Ev = comdat any

$_ZN4llvm15SmallVectorImplIhEC2Ej = comdat any

$_ZN4llvm23SmallVectorTemplateBaseIhLb1EEC2Ey = comdat any

$_ZN4llvm25SmallVectorTemplateCommonIhvEC2Ey = comdat any

$_ZNK4llvm25SmallVectorTemplateCommonIhvE10getFirstElEv = comdat any

$_ZN4llvm15SmallVectorBaseIyEC2EPvy = comdat any

$_ZN4llvm15SmallVectorImplINS_15LayoutAlignElemEEC2Ej = comdat any

$_ZN4llvm23SmallVectorTemplateBaseINS_15LayoutAlignElemELb1EEC2Ey = comdat any

$_ZN4llvm25SmallVectorTemplateCommonINS_15LayoutAlignElemEvEC2Ey = comdat any

$_ZNK4llvm25SmallVectorTemplateCommonINS_15LayoutAlignElemEvE10getFirstElEv = comdat any

$_ZN4llvm15SmallVectorImplINS_16PointerAlignElemEEC2Ej = comdat any

$_ZN4llvm23SmallVectorTemplateBaseINS_16PointerAlignElemELb1EEC2Ey = comdat any

$_ZN4llvm25SmallVectorTemplateCommonINS_16PointerAlignElemEvEC2Ey = comdat any

$_ZNK4llvm25SmallVectorTemplateCommonINS_16PointerAlignElemEvE10getFirstElEv = comdat any

$_ZN4llvm15SmallVectorImplIjEC2Ej = comdat any

$_ZN4llvm23SmallVectorTemplateBaseIjLb1EEC2Ey = comdat any

$_ZN4llvm25SmallVectorTemplateCommonIjvEC2Ey = comdat any

$_ZNK4llvm25SmallVectorTemplateCommonIjvE10getFirstElEv = comdat any

$_ZNK4llvm10DataLayout11isBigEndianEv = comdat any

$_ZN4llvm11SmallVectorIhLj8EEaSERKS1_ = comdat any

$_ZN4llvm11SmallVectorINS_15LayoutAlignElemELj16EEaSERKS2_ = comdat any

$_ZN4llvm11SmallVectorINS_16PointerAlignElemELj8EEaSERKS2_ = comdat any

$_ZN4llvm11SmallVectorIjLj8EEaSERKS1_ = comdat any

$_ZN4llvm15SmallVectorImplIhEaSERKS1_ = comdat any

$_ZNK4llvm15SmallVectorBaseIyE4sizeEv = comdat any

$_ZSt4copyIPKhPhET0_T_S4_S3_ = comdat any

$_ZNK4llvm25SmallVectorTemplateCommonIhvE5beginEv = comdat any

$_ZN4llvm25SmallVectorTemplateCommonIhvE5beginEv = comdat any

$_ZN4llvm23SmallVectorTemplateBaseIhLb1EE13destroy_rangeEPhS2_ = comdat any

$_ZN4llvm25SmallVectorTemplateCommonIhvE3endEv = comdat any

$_ZN4llvm15SmallVectorBaseIyE8set_sizeEy = comdat any

$_ZNK4llvm15SmallVectorBaseIyE8capacityEv = comdat any

$_ZN4llvm15SmallVectorImplIhE5clearEv = comdat any

$_ZN4llvm23SmallVectorTemplateBaseIhLb1EE4growEy = comdat any

$_ZN4llvm23SmallVectorTemplateBaseIhLb1EE18uninitialized_copyIKhhEEvPT_S5_PT0_PNSt9enable_ifIXsr3std7is_sameINSt12remove_constIS4_E4typeES6_EE5valueEvE4typeE = comdat any

$_ZNK4llvm25SmallVectorTemplateCommonIhvE3endEv = comdat any

$_ZSt13__copy_move_aILb0EPKhPhET1_T0_S4_S3_ = comdat any

$_ZSt12__miter_baseIPKhET_S2_ = comdat any

$_ZSt12__niter_wrapIPhET_RKS1_S1_ = comdat any

$_ZSt14__copy_move_a1ILb0EPKhPhET1_T0_S4_S3_ = comdat any

$_ZSt12__niter_baseIPKhET_S2_ = comdat any

$_ZSt12__niter_baseIPhET_S1_ = comdat any

$_ZSt14__copy_move_a2ILb0EPKhPhET1_T0_S4_S3_ = comdat any

$_ZNSt11__copy_moveILb0ELb1ESt26random_access_iterator_tagE8__copy_mIhEEPT_PKS3_S6_S4_ = comdat any

$_ZN4llvm25SmallVectorTemplateCommonIhvE8grow_podEyy = comdat any

$_ZN4llvm15SmallVectorImplINS_15LayoutAlignElemEEaSERKS2_ = comdat any

$_ZSt4copyIPKN4llvm15LayoutAlignElemEPS1_ET0_T_S6_S5_ = comdat any

$_ZNK4llvm25SmallVectorTemplateCommonINS_15LayoutAlignElemEvE5beginEv = comdat any

$_ZN4llvm25SmallVectorTemplateCommonINS_15LayoutAlignElemEvE5beginEv = comdat any

$_ZN4llvm23SmallVectorTemplateBaseINS_15LayoutAlignElemELb1EE13destroy_rangeEPS1_S3_ = comdat any

$_ZN4llvm25SmallVectorTemplateCommonINS_15LayoutAlignElemEvE3endEv = comdat any

$_ZN4llvm15SmallVectorImplINS_15LayoutAlignElemEE5clearEv = comdat any

$_ZN4llvm23SmallVectorTemplateBaseINS_15LayoutAlignElemELb1EE4growEy = comdat any

$_ZN4llvm23SmallVectorTemplateBaseINS_15LayoutAlignElemELb1EE18uninitialized_copyIKS1_S1_EEvPT_S6_PT0_PNSt9enable_ifIXsr3std7is_sameINSt12remove_constIS5_E4typeES7_EE5valueEvE4typeE = comdat any

$_ZNK4llvm25SmallVectorTemplateCommonINS_15LayoutAlignElemEvE3endEv = comdat any

$_ZSt13__copy_move_aILb0EPKN4llvm15LayoutAlignElemEPS1_ET1_T0_S6_S5_ = comdat any

$_ZSt12__miter_baseIPKN4llvm15LayoutAlignElemEET_S4_ = comdat any

$_ZSt12__niter_wrapIPN4llvm15LayoutAlignElemEET_RKS3_S3_ = comdat any

$_ZSt14__copy_move_a1ILb0EPKN4llvm15LayoutAlignElemEPS1_ET1_T0_S6_S5_ = comdat any

$_ZSt12__niter_baseIPKN4llvm15LayoutAlignElemEET_S4_ = comdat any

$_ZSt12__niter_baseIPN4llvm15LayoutAlignElemEET_S3_ = comdat any

$_ZSt14__copy_move_a2ILb0EPKN4llvm15LayoutAlignElemEPS1_ET1_T0_S6_S5_ = comdat any

$_ZNSt11__copy_moveILb0ELb1ESt26random_access_iterator_tagE8__copy_mIN4llvm15LayoutAlignElemEEEPT_PKS5_S8_S6_ = comdat any

$_ZN4llvm25SmallVectorTemplateCommonINS_15LayoutAlignElemEvE8grow_podEyy = comdat any

$_ZN4llvm15SmallVectorImplINS_16PointerAlignElemEEaSERKS2_ = comdat any

$_ZSt4copyIPKN4llvm16PointerAlignElemEPS1_ET0_T_S6_S5_ = comdat any

$_ZNK4llvm25SmallVectorTemplateCommonINS_16PointerAlignElemEvE5beginEv = comdat any

$_ZN4llvm25SmallVectorTemplateCommonINS_16PointerAlignElemEvE5beginEv = comdat any

$_ZN4llvm23SmallVectorTemplateBaseINS_16PointerAlignElemELb1EE13destroy_rangeEPS1_S3_ = comdat any

$_ZN4llvm25SmallVectorTemplateCommonINS_16PointerAlignElemEvE3endEv = comdat any

$_ZN4llvm15SmallVectorImplINS_16PointerAlignElemEE5clearEv = comdat any

$_ZN4llvm23SmallVectorTemplateBaseINS_16PointerAlignElemELb1EE4growEy = comdat any

$_ZN4llvm23SmallVectorTemplateBaseINS_16PointerAlignElemELb1EE18uninitialized_copyIKS1_S1_EEvPT_S6_PT0_PNSt9enable_ifIXsr3std7is_sameINSt12remove_constIS5_E4typeES7_EE5valueEvE4typeE = comdat any

$_ZNK4llvm25SmallVectorTemplateCommonINS_16PointerAlignElemEvE3endEv = comdat any

$_ZSt13__copy_move_aILb0EPKN4llvm16PointerAlignElemEPS1_ET1_T0_S6_S5_ = comdat any

$_ZSt12__miter_baseIPKN4llvm16PointerAlignElemEET_S4_ = comdat any

$_ZSt12__niter_wrapIPN4llvm16PointerAlignElemEET_RKS3_S3_ = comdat any

$_ZSt14__copy_move_a1ILb0EPKN4llvm16PointerAlignElemEPS1_ET1_T0_S6_S5_ = comdat any

$_ZSt12__niter_baseIPKN4llvm16PointerAlignElemEET_S4_ = comdat any

$_ZSt12__niter_baseIPN4llvm16PointerAlignElemEET_S3_ = comdat any

$_ZSt14__copy_move_a2ILb0EPKN4llvm16PointerAlignElemEPS1_ET1_T0_S6_S5_ = comdat any

$_ZNSt11__copy_moveILb0ELb1ESt26random_access_iterator_tagE8__copy_mIN4llvm16PointerAlignElemEEEPT_PKS5_S8_S6_ = comdat any

$_ZN4llvm25SmallVectorTemplateCommonINS_16PointerAlignElemEvE8grow_podEyy = comdat any

$_ZN4llvm15SmallVectorImplIjEaSERKS1_ = comdat any

$_ZSt4copyIPKjPjET0_T_S4_S3_ = comdat any

$_ZNK4llvm25SmallVectorTemplateCommonIjvE5beginEv = comdat any

$_ZN4llvm25SmallVectorTemplateCommonIjvE5beginEv = comdat any

$_ZN4llvm23SmallVectorTemplateBaseIjLb1EE13destroy_rangeEPjS2_ = comdat any

$_ZN4llvm25SmallVectorTemplateCommonIjvE3endEv = comdat any

$_ZN4llvm15SmallVectorImplIjE5clearEv = comdat any

$_ZN4llvm23SmallVectorTemplateBaseIjLb1EE4growEy = comdat any

$_ZN4llvm23SmallVectorTemplateBaseIjLb1EE18uninitialized_copyIKjjEEvPT_S5_PT0_PNSt9enable_ifIXsr3std7is_sameINSt12remove_constIS4_E4typeES6_EE5valueEvE4typeE = comdat any

$_ZNK4llvm25SmallVectorTemplateCommonIjvE3endEv = comdat any

$_ZSt13__copy_move_aILb0EPKjPjET1_T0_S4_S3_ = comdat any

$_ZSt12__miter_baseIPKjET_S2_ = comdat any

$_ZSt12__niter_wrapIPjET_RKS1_S1_ = comdat any

$_ZSt14__copy_move_a1ILb0EPKjPjET1_T0_S4_S3_ = comdat any

$_ZSt12__niter_baseIPKjET_S2_ = comdat any

$_ZSt12__niter_baseIPjET_S1_ = comdat any

$_ZSt14__copy_move_a2ILb0EPKjPjET1_T0_S4_S3_ = comdat any

$_ZNSt11__copy_moveILb0ELb1ESt26random_access_iterator_tagE8__copy_mIjEEPT_PKS3_S6_S4_ = comdat any

$_ZN4llvm25SmallVectorTemplateCommonIjvE8grow_podEyy = comdat any

$_ZN4llvm15SmallVectorImplIjED2Ev = comdat any

$_ZNK4llvm25SmallVectorTemplateCommonIjvE7isSmallEv = comdat any

$_ZN4llvm15SmallVectorImplINS_16PointerAlignElemEED2Ev = comdat any

$_ZNK4llvm25SmallVectorTemplateCommonINS_16PointerAlignElemEvE7isSmallEv = comdat any

$_ZN4llvm15SmallVectorImplINS_15LayoutAlignElemEED2Ev = comdat any

$_ZNK4llvm25SmallVectorTemplateCommonINS_15LayoutAlignElemEvE7isSmallEv = comdat any

$_ZN4llvm15SmallVectorImplIhED2Ev = comdat any

$_ZNK4llvm25SmallVectorTemplateCommonIhvE7isSmallEv = comdat any

$_ZN4llvm11raw_ostreamlsENS_9StringRefE = comdat any

$_ZNKSt10error_code8categoryEv = comdat any

$_ZNKSt10error_code5valueEv = comdat any

$_ZN4llvm15MCTargetOptionsD2Ev = comdat any

$_ZNSt3mapIciSt4lessIcESaISt4pairIKciEEE11lower_boundERS3_ = comdat any

$_ZSteqRKSt17_Rb_tree_iteratorISt4pairIKciEES5_ = comdat any

$_ZNSt3mapIciSt4lessIcESaISt4pairIKciEEE3endEv = comdat any

$_ZNKSt3mapIciSt4lessIcESaISt4pairIKciEEE8key_compEv = comdat any

$_ZNKSt17_Rb_tree_iteratorISt4pairIKciEEdeEv = comdat any

$_ZNSt8_Rb_treeIcSt4pairIKciESt10_Select1stIS2_ESt4lessIcESaIS2_EE22_M_emplace_hint_uniqueIJRKSt21piecewise_construct_tSt5tupleIJOcEESD_IJEEEEESt17_Rb_tree_iteratorIS2_ESt23_Rb_tree_const_iteratorIS2_EDpOT_ = comdat any

$_ZSt16forward_as_tupleIJcEESt5tupleIJDpOT_EES3_ = comdat any

$_ZSt4moveIRcEONSt16remove_referenceIT_E4typeEOS2_ = comdat any

$_ZNSt8_Rb_treeIcSt4pairIKciESt10_Select1stIS2_ESt4lessIcESaIS2_EE11lower_boundERS1_ = comdat any

$_ZNKSt8_Rb_treeIcSt4pairIKciESt10_Select1stIS2_ESt4lessIcESaIS2_EE8key_compEv = comdat any

$_ZNSt8_Rb_treeIcSt4pairIKciESt10_Select1stIS2_ESt4lessIcESaIS2_EE14_M_create_nodeIJRKSt21piecewise_construct_tSt5tupleIJOcEESD_IJEEEEEPSt13_Rb_tree_nodeIS2_EDpOT_ = comdat any

$_ZSt7forwardISt5tupleIJOcEEEOT_RNSt16remove_referenceIS3_E4typeE = comdat any

$_ZNSt8_Rb_treeIcSt4pairIKciESt10_Select1stIS2_ESt4lessIcESaIS2_EE29_M_get_insert_hint_unique_posESt23_Rb_tree_const_iteratorIS2_ERS1_ = comdat any

$_ZNSt8_Rb_treeIcSt4pairIKciESt10_Select1stIS2_ESt4lessIcESaIS2_EE14_M_insert_nodeEPSt18_Rb_tree_node_baseSA_PSt13_Rb_tree_nodeIS2_E = comdat any

$_ZNSt8_Rb_treeIcSt4pairIKciESt10_Select1stIS2_ESt4lessIcESaIS2_EE11_M_get_nodeEv = comdat any

$_ZNSt8_Rb_treeIcSt4pairIKciESt10_Select1stIS2_ESt4lessIcESaIS2_EE17_M_construct_nodeIJRKSt21piecewise_construct_tSt5tupleIJOcEESD_IJEEEEEvPSt13_Rb_tree_nodeIS2_EDpOT_ = comdat any

$_ZNSt16allocator_traitsISaISt13_Rb_tree_nodeISt4pairIKciEEEE8allocateERS5_y = comdat any

$_ZN9__gnu_cxx13new_allocatorISt13_Rb_tree_nodeISt4pairIKciEEE8allocateEyPKv = comdat any

$_ZNK9__gnu_cxx13new_allocatorISt13_Rb_tree_nodeISt4pairIKciEEE11_M_max_sizeEv = comdat any

$_ZNSt16allocator_traitsISaISt13_Rb_tree_nodeISt4pairIKciEEEE9constructIS3_JRKSt21piecewise_construct_tSt5tupleIJOcEESB_IJEEEEEvRS5_PT_DpOT0_ = comdat any

$_ZN9__gnu_cxx13new_allocatorISt13_Rb_tree_nodeISt4pairIKciEEE9constructIS4_JRKSt21piecewise_construct_tSt5tupleIJOcEESB_IJEEEEEvPT_DpOT0_ = comdat any

$_ZNSt5tupleIJOcEEC2EOS1_ = comdat any

$_ZNSt4pairIKciEC2IJOcEJEEESt21piecewise_construct_tSt5tupleIJDpT_EES5_IJDpT0_EE = comdat any

$_ZNSt11_Tuple_implILy0EJOcEEC2EOS1_ = comdat any

$_ZSt7forwardIOcEOT_RNSt16remove_referenceIS1_E4typeE = comdat any

$_ZNSt11_Tuple_implILy0EJOcEE7_M_headERS1_ = comdat any

$_ZNSt10_Head_baseILy0EOcLb0EEC2IcEEOT_ = comdat any

$_ZNSt10_Head_baseILy0EOcLb0EE7_M_headERS1_ = comdat any

$_ZSt7forwardIcEOT_RNSt16remove_referenceIS0_E4typeE = comdat any

$_ZNSt4pairIKciEC2IJOcEJLy0EEJEJEEERSt5tupleIJDpT_EERS4_IJDpT1_EESt12_Index_tupleIJXspT0_EEESD_IJXspT2_EEE = comdat any

$_ZSt3getILy0EJOcEERNSt13tuple_elementIXT_ESt5tupleIJDpT0_EEE4typeERS5_ = comdat any

$_ZSt12__get_helperILy0EOcJEERT0_RSt11_Tuple_implIXT_EJS1_DpT1_EE = comdat any

$_ZNKSt23_Rb_tree_const_iteratorISt4pairIKciEE13_M_const_castEv = comdat any

$_ZNSt8_Rb_treeIcSt4pairIKciESt10_Select1stIS2_ESt4lessIcESaIS2_EE6_S_keyEPKSt18_Rb_tree_node_base = comdat any

$_ZNSt8_Rb_treeIcSt4pairIKciESt10_Select1stIS2_ESt4lessIcESaIS2_EE12_M_rightmostEv = comdat any

$_ZNSt8_Rb_treeIcSt4pairIKciESt10_Select1stIS2_ESt4lessIcESaIS2_EE24_M_get_insert_unique_posERS1_ = comdat any

$_ZNSt8_Rb_treeIcSt4pairIKciESt10_Select1stIS2_ESt4lessIcESaIS2_EE11_M_leftmostEv = comdat any

$_ZNSt17_Rb_tree_iteratorISt4pairIKciEEmmEv = comdat any

$_ZNSt17_Rb_tree_iteratorISt4pairIKciEEppEv = comdat any

$_ZNSt4pairIPSt18_Rb_tree_node_baseS1_EC2IRPSt13_Rb_tree_nodeIS_IKciEERS1_Lb1EEEOT_OT0_ = comdat any

$_ZSt7forwardIRPSt13_Rb_tree_nodeISt4pairIKciEEEOT_RNSt16remove_referenceIS7_E4typeE = comdat any

$_ZNSt5tupleIJOcEEC2IJcELb1ELb1EEEDpOT_ = comdat any

$_ZNSt11_Tuple_implILy0EJOcEEC2IcEEOT_ = comdat any

$_ZNSt10unique_ptrIN4llvm11LLVMContextESt14default_deleteIS1_EE11get_deleterEv = comdat any

$_ZSt4moveIRPN4llvm11LLVMContextEEONSt16remove_referenceIT_E4typeEOS5_ = comdat any

$_ZNSt10unique_ptrIN4llvm6ModuleESt14default_deleteIS1_EE11get_deleterEv = comdat any

$_ZSt4moveIRPN4llvm6ModuleEEONSt16remove_referenceIT_E4typeEOS5_ = comdat any

$_ZNSt10unique_ptrIN4llvm9IRBuilderINS0_14ConstantFolderENS0_24IRBuilderDefaultInserterEEESt14default_deleteIS4_EE11get_deleterEv = comdat any

$_ZSt4moveIRPN4llvm9IRBuilderINS0_14ConstantFolderENS0_24IRBuilderDefaultInserterEEEEONSt16remove_referenceIT_E4typeEOS8_ = comdat any

$_ZTSZN4llvm11ExitOnErrorC1ENSt7__cxx1112basic_stringIcSt11char_traitsIcESaIcEEEiEUlRKNS_5ErrorEE_ = comdat any

$_ZTIZN4llvm11ExitOnErrorC1ENSt7__cxx1112basic_stringIcSt11char_traitsIcESaIcEEEiEUlRKNS_5ErrorEE_ = comdat any

@_ZL13IdentifierStrB5cxx11 = internal global %"class.std::__cxx11::basic_string" zeroinitializer, align 8
@_ZL15BinopPrecedence = internal global %"class.std::map" zeroinitializer, align 8
@_ZL10TheContext = internal global { { { %"class.llvm::LLVMContext"* } } } zeroinitializer, align 8
@_ZL9TheModule = internal global { { { %"class.llvm::Module"* } } } zeroinitializer, align 8
@_ZL7Builder = internal global { { { %"class.llvm::IRBuilder"* } } } zeroinitializer, align 8
@_ZL11NamedValuesB5cxx11 = internal global %"class.std::map.96" zeroinitializer, align 8
@_ZL14FunctionProtosB5cxx11 = internal global %"class.std::map.104" zeroinitializer, align 8
@_ZL9ExitOnErr = internal global %"class.llvm::ExitOnError" zeroinitializer, align 8
@.str = private unnamed_addr constant [1 x i8] zeroinitializer, align 1
@.str.8 = private unnamed_addr constant [4 x i8] c"%f\0A\00", align 1
@.str.9 = private unnamed_addr constant [8 x i8] c"ready> \00", align 1
@.str.10 = private unnamed_addr constant [8 x i8] c"generic\00", align 1
@.str.11 = private unnamed_addr constant [9 x i8] c"output.o\00", align 1
@.str.12 = private unnamed_addr constant [22 x i8] c"Could not open file: \00", align 1
@.str.13 = private unnamed_addr constant [48 x i8] c"TheTargetMachine can't emit a file of this type\00", align 1
@.str.14 = private unnamed_addr constant [7 x i8] c"Wrote \00", align 1
@.str.15 = private unnamed_addr constant [2 x i8] c"\0A\00", align 1
@_ZTVN10__cxxabiv117__class_type_infoE = external global i8*
@_ZTSZN4llvm11ExitOnErrorC1ENSt7__cxx1112basic_stringIcSt11char_traitsIcESaIcEEEiEUlRKNS_5ErrorEE_ = linkonce_odr dso_local constant [94 x i8] c"ZN4llvm11ExitOnErrorC1ENSt7__cxx1112basic_stringIcSt11char_traitsIcESaIcEEEiEUlRKNS_5ErrorEE_\00", comdat, align 1
@_ZTIZN4llvm11ExitOnErrorC1ENSt7__cxx1112basic_stringIcSt11char_traitsIcESaIcEEEiEUlRKNS_5ErrorEE_ = linkonce_odr dso_local constant { i8*, i8* } { i8* bitcast (i8** getelementptr inbounds (i8*, i8** @_ZTVN10__cxxabiv117__class_type_infoE, i64 2) to i8*), i8* getelementptr inbounds ([94 x i8], [94 x i8]* @_ZTSZN4llvm11ExitOnErrorC1ENSt7__cxx1112basic_stringIcSt11char_traitsIcESaIcEEEiEUlRKNS_5ErrorEE_, i32 0, i32 0) }, comdat, align 8
@.str.16 = private unnamed_addr constant [11 x i8] c"Error: %s\0A\00", align 1
@.str.17 = private unnamed_addr constant [49 x i8] c"cannot create std::vector larger than max_size()\00", align 1
@.str.18 = private unnamed_addr constant [30 x i8] c"isValid() && \22Invalid twine!\22\00", align 1
@.str.19 = private unnamed_addr constant [56 x i8] c"D:/msys64/installation/mingw64/include/llvm/ADT/Twine.h\00", align 1
@_ZL6CurTok = internal global i32 0, align 4
@_ZZL6gettokvE8LastChar = internal global i32 32, align 4
@.str.20 = private unnamed_addr constant [4 x i8] c"def\00", align 1
@.str.21 = private unnamed_addr constant [7 x i8] c"extern\00", align 1
@.str.22 = private unnamed_addr constant [3 x i8] c"if\00", align 1
@.str.23 = private unnamed_addr constant [5 x i8] c"then\00", align 1
@.str.24 = private unnamed_addr constant [5 x i8] c"else\00", align 1
@.str.25 = private unnamed_addr constant [4 x i8] c"for\00", align 1
@.str.26 = private unnamed_addr constant [3 x i8] c"in\00", align 1
@.str.27 = private unnamed_addr constant [7 x i8] c"binary\00", align 1
@.str.28 = private unnamed_addr constant [6 x i8] c"unary\00", align 1
@.str.29 = private unnamed_addr constant [4 x i8] c"var\00", align 1
@_ZL6NumVal = internal global double 0.000000e+00, align 8
@.str.30 = private unnamed_addr constant [12 x i8] c"my cool jit\00", align 1
@_ZTVN4llvm14ConstantFolderE = external unnamed_addr constant { [53 x i8*] }, align 8
@_ZTVN4llvm15IRBuilderFolderE = external unnamed_addr constant { [52 x i8*] }, align 8
@_ZTVN4llvm24IRBuilderDefaultInserterE = external unnamed_addr constant { [5 x i8*] }, align 8
@.str.31 = private unnamed_addr constant [26 x i8] c"Read function definition:\00", align 1
@.str.32 = private unnamed_addr constant [36 x i8] c"Expected function name in prototype\00", align 1
@.str.33 = private unnamed_addr constant [24 x i8] c"Expected unary operator\00", align 1
@.str.34 = private unnamed_addr constant [25 x i8] c"Expected binary operator\00", align 1
@.str.35 = private unnamed_addr constant [35 x i8] c"Invalid precedence: must be 1..100\00", align 1
@.str.36 = private unnamed_addr constant [26 x i8] c"Expected '(' in prototype\00", align 1
@.str.37 = private unnamed_addr constant [26 x i8] c"Expected ')' in prototype\00", align 1
@.str.38 = private unnamed_addr constant [40 x i8] c"Invalid number of operands for operator\00", align 1
@.str.39 = private unnamed_addr constant [26 x i8] c"vector::_M_realloc_insert\00", align 1
@.str.40 = private unnamed_addr constant [43 x i8] c"unknown token when expecting an expression\00", align 1
@.str.41 = private unnamed_addr constant [37 x i8] c"Expected ')' or ',' in argument list\00", align 1
@_ZTVN12_GLOBAL__N_115VariableExprASTE = internal unnamed_addr constant { [5 x i8*] } { [5 x i8*] [i8* null, i8* bitcast ({ i8*, i8*, i8* }* @_ZTIN12_GLOBAL__N_115VariableExprASTE to i8*), i8* bitcast (void (%"class.(anonymous namespace)::VariableExprAST"*)* @_ZN12_GLOBAL__N_115VariableExprASTD2Ev to i8*), i8* bitcast (void (%"class.(anonymous namespace)::VariableExprAST"*)* @_ZN12_GLOBAL__N_115VariableExprASTD0Ev to i8*), i8* bitcast (%"class.llvm::Value"* (%"class.(anonymous namespace)::VariableExprAST"*)* @_ZN12_GLOBAL__N_115VariableExprAST7codegenEv to i8*)] }, align 8
@_ZTVN10__cxxabiv120__si_class_type_infoE = external global i8*
@_ZTSN12_GLOBAL__N_115VariableExprASTE = internal constant [34 x i8] c"N12_GLOBAL__N_115VariableExprASTE\00", align 1
@_ZTSN12_GLOBAL__N_17ExprASTE = internal constant [25 x i8] c"N12_GLOBAL__N_17ExprASTE\00", align 1
@_ZTIN12_GLOBAL__N_17ExprASTE = internal constant { i8*, i8* } { i8* bitcast (i8** getelementptr inbounds (i8*, i8** @_ZTVN10__cxxabiv117__class_type_infoE, i64 2) to i8*), i8* getelementptr inbounds ([25 x i8], [25 x i8]* @_ZTSN12_GLOBAL__N_17ExprASTE, i32 0, i32 0) }, align 8
@_ZTIN12_GLOBAL__N_115VariableExprASTE = internal constant { i8*, i8*, i8* } { i8* bitcast (i8** getelementptr inbounds (i8*, i8** @_ZTVN10__cxxabiv120__si_class_type_infoE, i64 2) to i8*), i8* getelementptr inbounds ([34 x i8], [34 x i8]* @_ZTSN12_GLOBAL__N_115VariableExprASTE, i32 0, i32 0), i8* bitcast ({ i8*, i8* }* @_ZTIN12_GLOBAL__N_17ExprASTE to i8*) }, align 8
@_ZTVN12_GLOBAL__N_17ExprASTE = internal unnamed_addr constant { [5 x i8*] } { [5 x i8*] [i8* null, i8* bitcast ({ i8*, i8* }* @_ZTIN12_GLOBAL__N_17ExprASTE to i8*), i8* bitcast (void (%"class.(anonymous namespace)::ExprAST"*)* @_ZN12_GLOBAL__N_17ExprASTD2Ev to i8*), i8* bitcast (void (%"class.(anonymous namespace)::ExprAST"*)* @_ZN12_GLOBAL__N_17ExprASTD0Ev to i8*), i8* bitcast (void ()* @__cxa_pure_virtual to i8*)] }, align 8
@.str.42 = private unnamed_addr constant [22 x i8] c"Unknown variable name\00", align 1
@_ZStL19piecewise_construct = internal constant %"struct.std::piecewise_construct_t" undef, align 1
@_ZN4llvmL8in_placeE = internal constant %"struct.llvm::in_place_t" zeroinitializer, align 1
@.str.43 = private unnamed_addr constant [7 x i8] c"hasVal\00", align 1
@.str.44 = private unnamed_addr constant [59 x i8] c"D:/msys64/installation/mingw64/include/llvm/ADT/Optional.h\00", align 1
@.str.45 = private unnamed_addr constant [27 x i8] c"getTypeID() == PointerTyID\00", align 1
@.str.46 = private unnamed_addr constant [54 x i8] c"D:/msys64/installation/mingw64/include/llvm/IR/Type.h\00", align 1
@_ZTVN12_GLOBAL__N_111CallExprASTE = internal unnamed_addr constant { [5 x i8*] } { [5 x i8*] [i8* null, i8* bitcast ({ i8*, i8*, i8* }* @_ZTIN12_GLOBAL__N_111CallExprASTE to i8*), i8* bitcast (void (%"class.(anonymous namespace)::CallExprAST"*)* @_ZN12_GLOBAL__N_111CallExprASTD2Ev to i8*), i8* bitcast (void (%"class.(anonymous namespace)::CallExprAST"*)* @_ZN12_GLOBAL__N_111CallExprASTD0Ev to i8*), i8* bitcast (%"class.llvm::Value"* (%"class.(anonymous namespace)::CallExprAST"*)* @_ZN12_GLOBAL__N_111CallExprAST7codegenEv to i8*)] }, align 8
@_ZTSN12_GLOBAL__N_111CallExprASTE = internal constant [30 x i8] c"N12_GLOBAL__N_111CallExprASTE\00", align 1
@_ZTIN12_GLOBAL__N_111CallExprASTE = internal constant { i8*, i8*, i8* } { i8* bitcast (i8** getelementptr inbounds (i8*, i8** @_ZTVN10__cxxabiv120__si_class_type_infoE, i64 2) to i8*), i8* getelementptr inbounds ([30 x i8], [30 x i8]* @_ZTSN12_GLOBAL__N_111CallExprASTE, i32 0, i32 0), i8* bitcast ({ i8*, i8* }* @_ZTIN12_GLOBAL__N_17ExprASTE to i8*) }, align 8
@.str.47 = private unnamed_addr constant [28 x i8] c"Unknown function referenced\00", align 1
@.str.48 = private unnamed_addr constant [29 x i8] c"Incorrect # arguments passed\00", align 1
@.str.49 = private unnamed_addr constant [8 x i8] c"calltmp\00", align 1
@.str.50 = private unnamed_addr constant [38 x i8] c"Val && \22isa<> used on a null pointer\22\00", align 1
@.str.51 = private unnamed_addr constant [62 x i8] c"D:/msys64/installation/mingw64/include/llvm/Support/Casting.h\00", align 1
@.str.52 = private unnamed_addr constant [59 x i8] c"isa<X>(Val) && \22cast<Ty>() argument of incompatible type!\22\00", align 1
@.str.53 = private unnamed_addr constant [45 x i8] c"i < NumContainedTys && \22Index out of range!\22\00", align 1
@_ZTVN12_GLOBAL__N_113NumberExprASTE = internal unnamed_addr constant { [5 x i8*] } { [5 x i8*] [i8* null, i8* bitcast ({ i8*, i8*, i8* }* @_ZTIN12_GLOBAL__N_113NumberExprASTE to i8*), i8* bitcast (void (%"class.(anonymous namespace)::NumberExprAST"*)* @_ZN12_GLOBAL__N_113NumberExprASTD2Ev to i8*), i8* bitcast (void (%"class.(anonymous namespace)::NumberExprAST"*)* @_ZN12_GLOBAL__N_113NumberExprASTD0Ev to i8*), i8* bitcast (%"class.llvm::Value"* (%"class.(anonymous namespace)::NumberExprAST"*)* @_ZN12_GLOBAL__N_113NumberExprAST7codegenEv to i8*)] }, align 8
@_ZTSN12_GLOBAL__N_113NumberExprASTE = internal constant [32 x i8] c"N12_GLOBAL__N_113NumberExprASTE\00", align 1
@_ZTIN12_GLOBAL__N_113NumberExprASTE = internal constant { i8*, i8*, i8* } { i8* bitcast (i8** getelementptr inbounds (i8*, i8** @_ZTVN10__cxxabiv120__si_class_type_infoE, i64 2) to i8*), i8* getelementptr inbounds ([32 x i8], [32 x i8]* @_ZTSN12_GLOBAL__N_113NumberExprASTE, i32 0, i32 0), i8* bitcast ({ i8*, i8* }* @_ZTIN12_GLOBAL__N_17ExprASTE to i8*) }, align 8
@.str.54 = private unnamed_addr constant [21 x i8] c"Unexpected semantics\00", align 1
@.str.55 = private unnamed_addr constant [58 x i8] c"D:/msys64/installation/mingw64/include/llvm/ADT/APFloat.h\00", align 1
@.str.56 = private unnamed_addr constant [13 x i8] c"expected ')'\00", align 1
@.str.57 = private unnamed_addr constant [14 x i8] c"expected then\00", align 1
@.str.58 = private unnamed_addr constant [14 x i8] c"expected else\00", align 1
@_ZTVN12_GLOBAL__N_19IfExprASTE = internal unnamed_addr constant { [5 x i8*] } { [5 x i8*] [i8* null, i8* bitcast ({ i8*, i8*, i8* }* @_ZTIN12_GLOBAL__N_19IfExprASTE to i8*), i8* bitcast (void (%"class.(anonymous namespace)::IfExprAST"*)* @_ZN12_GLOBAL__N_19IfExprASTD2Ev to i8*), i8* bitcast (void (%"class.(anonymous namespace)::IfExprAST"*)* @_ZN12_GLOBAL__N_19IfExprASTD0Ev to i8*), i8* bitcast (%"class.llvm::Value"* (%"class.(anonymous namespace)::IfExprAST"*)* @_ZN12_GLOBAL__N_19IfExprAST7codegenEv to i8*)] }, align 8
@_ZTSN12_GLOBAL__N_19IfExprASTE = internal constant [27 x i8] c"N12_GLOBAL__N_19IfExprASTE\00", align 1
@_ZTIN12_GLOBAL__N_19IfExprASTE = internal constant { i8*, i8*, i8* } { i8* bitcast (i8** getelementptr inbounds (i8*, i8** @_ZTVN10__cxxabiv120__si_class_type_infoE, i64 2) to i8*), i8* getelementptr inbounds ([27 x i8], [27 x i8]* @_ZTSN12_GLOBAL__N_19IfExprASTE, i32 0, i32 0), i8* bitcast ({ i8*, i8* }* @_ZTIN12_GLOBAL__N_17ExprASTE to i8*) }, align 8
@.str.59 = private unnamed_addr constant [7 x i8] c"ifcond\00", align 1
@.str.60 = private unnamed_addr constant [7 x i8] c"ifcont\00", align 1
@.str.61 = private unnamed_addr constant [6 x i8] c"iftmp\00", align 1
@.str.62 = private unnamed_addr constant [56 x i8] c"!Ty->isTokenTy() && \22PHI nodes cannot have token type!\22\00", align 1
@.str.63 = private unnamed_addr constant [62 x i8] c"D:/msys64/installation/mingw64/include/llvm/IR/Instructions.h\00", align 1
@.str.64 = private unnamed_addr constant [63 x i8] c"HasHungOffUses && \22Must have hung off uses to use this method\22\00", align 1
@.str.65 = private unnamed_addr constant [54 x i8] c"D:/msys64/installation/mingw64/include/llvm/IR/User.h\00", align 1
@.str.66 = private unnamed_addr constant [60 x i8] c"NumOps < (1u << NumUserOperandsBits) && \22Too many operands\22\00", align 1
@.str.67 = private unnamed_addr constant [34 x i8] c"V && \22PHI node got a null value!\22\00", align 1
@.str.68 = private unnamed_addr constant [95 x i8] c"getType() == V->getType() && \22All operands to PHI node must be the same type as the PHI node!\22\00", align 1
@.str.69 = private unnamed_addr constant [85 x i8] c"i_nocapture < OperandTraits<PHINode>::operands(this) && \22setOperand() out of range!\22\00", align 1
@.str.70 = private unnamed_addr constant [41 x i8] c"BB && \22PHI node got a null basic block!\22\00", align 1
@.str.71 = private unnamed_addr constant [30 x i8] c"expected identifier after for\00", align 1
@.str.72 = private unnamed_addr constant [23 x i8] c"expected '=' after for\00", align 1
@.str.73 = private unnamed_addr constant [35 x i8] c"expected ',' after for start value\00", align 1
@.str.74 = private unnamed_addr constant [24 x i8] c"expected 'in' after for\00", align 1
@_ZTVN12_GLOBAL__N_110ForExprASTE = internal unnamed_addr constant { [5 x i8*] } { [5 x i8*] [i8* null, i8* bitcast ({ i8*, i8*, i8* }* @_ZTIN12_GLOBAL__N_110ForExprASTE to i8*), i8* bitcast (void (%"class.(anonymous namespace)::ForExprAST"*)* @_ZN12_GLOBAL__N_110ForExprASTD2Ev to i8*), i8* bitcast (void (%"class.(anonymous namespace)::ForExprAST"*)* @_ZN12_GLOBAL__N_110ForExprASTD0Ev to i8*), i8* bitcast (%"class.llvm::Value"* (%"class.(anonymous namespace)::ForExprAST"*)* @_ZN12_GLOBAL__N_110ForExprAST7codegenEv to i8*)] }, align 8
@_ZTSN12_GLOBAL__N_110ForExprASTE = internal constant [29 x i8] c"N12_GLOBAL__N_110ForExprASTE\00", align 1
@_ZTIN12_GLOBAL__N_110ForExprASTE = internal constant { i8*, i8*, i8* } { i8* bitcast (i8** getelementptr inbounds (i8*, i8** @_ZTVN10__cxxabiv120__si_class_type_infoE, i64 2) to i8*), i8* getelementptr inbounds ([29 x i8], [29 x i8]* @_ZTSN12_GLOBAL__N_110ForExprASTE, i32 0, i32 0), i8* bitcast ({ i8*, i8* }* @_ZTIN12_GLOBAL__N_17ExprASTE to i8*) }, align 8
@.str.75 = private unnamed_addr constant [5 x i8] c"loop\00", align 1
@.str.76 = private unnamed_addr constant [8 x i8] c"nextvar\00", align 1
@.str.77 = private unnamed_addr constant [9 x i8] c"loopcond\00", align 1
@.str.78 = private unnamed_addr constant [10 x i8] c"afterloop\00", align 1
@.str.79 = private unnamed_addr constant [28 x i8] c"!NodePtr->isKnownSentinel()\00", align 1
@.str.80 = private unnamed_addr constant [65 x i8] c"D:/msys64/installation/mingw64/include/llvm/ADT/ilist_iterator.h\00", align 1
@.str.81 = private unnamed_addr constant [67 x i8] c"this->isRangeInStorage(S, E) && \22Range to erase is out of bounds.\22\00", align 1
@.str.82 = private unnamed_addr constant [62 x i8] c"D:/msys64/installation/mingw64/include/llvm/ADT/SmallVector.h\00", align 1
@.str.83 = private unnamed_addr constant [16 x i8] c"N <= capacity()\00", align 1
@.str.84 = private unnamed_addr constant [9 x i8] c"!empty()\00", align 1
@.str.85 = private unnamed_addr constant [59 x i8] c"(IntWord & ~IntMask) == 0 && \22Integer too large for field\22\00", align 1
@.str.86 = private unnamed_addr constant [65 x i8] c"D:/msys64/installation/mingw64/include/llvm/ADT/PointerIntPair.h\00", align 1
@.str.87 = private unnamed_addr constant [74 x i8] c"(PtrWord & ~PointerBitMask) == 0 && \22Pointer is not sufficiently aligned\22\00", align 1
@.str.88 = private unnamed_addr constant [17 x i8] c"isa<Constant>(V)\00", align 1
@.str.89 = private unnamed_addr constant [59 x i8] c"D:/msys64/installation/mingw64/include/llvm/IR/IRBuilder.h\00", align 1
@.str.90 = private unnamed_addr constant [30 x i8] c"expected identifier after var\00", align 1
@.str.91 = private unnamed_addr constant [35 x i8] c"expected identifier list after var\00", align 1
@.str.92 = private unnamed_addr constant [34 x i8] c"expected 'in' keyword after 'var'\00", align 1
@_ZTVN12_GLOBAL__N_110VarExprASTE = internal unnamed_addr constant { [5 x i8*] } { [5 x i8*] [i8* null, i8* bitcast ({ i8*, i8*, i8* }* @_ZTIN12_GLOBAL__N_110VarExprASTE to i8*), i8* bitcast (void (%"class.(anonymous namespace)::VarExprAST"*)* @_ZN12_GLOBAL__N_110VarExprASTD2Ev to i8*), i8* bitcast (void (%"class.(anonymous namespace)::VarExprAST"*)* @_ZN12_GLOBAL__N_110VarExprASTD0Ev to i8*), i8* bitcast (%"class.llvm::Value"* (%"class.(anonymous namespace)::VarExprAST"*)* @_ZN12_GLOBAL__N_110VarExprAST7codegenEv to i8*)] }, align 8
@_ZTSN12_GLOBAL__N_110VarExprASTE = internal constant [29 x i8] c"N12_GLOBAL__N_110VarExprASTE\00", align 1
@_ZTIN12_GLOBAL__N_110VarExprASTE = internal constant { i8*, i8*, i8* } { i8* bitcast (i8** getelementptr inbounds (i8*, i8** @_ZTVN10__cxxabiv120__si_class_type_infoE, i64 2) to i8*), i8* getelementptr inbounds ([29 x i8], [29 x i8]* @_ZTSN12_GLOBAL__N_110VarExprASTE, i32 0, i32 0), i8* bitcast ({ i8*, i8* }* @_ZTIN12_GLOBAL__N_17ExprASTE to i8*) }, align 8
@_ZTVN12_GLOBAL__N_112UnaryExprASTE = internal unnamed_addr constant { [5 x i8*] } { [5 x i8*] [i8* null, i8* bitcast ({ i8*, i8*, i8* }* @_ZTIN12_GLOBAL__N_112UnaryExprASTE to i8*), i8* bitcast (void (%"class.(anonymous namespace)::UnaryExprAST"*)* @_ZN12_GLOBAL__N_112UnaryExprASTD2Ev to i8*), i8* bitcast (void (%"class.(anonymous namespace)::UnaryExprAST"*)* @_ZN12_GLOBAL__N_112UnaryExprASTD0Ev to i8*), i8* bitcast (%"class.llvm::Value"* (%"class.(anonymous namespace)::UnaryExprAST"*)* @_ZN12_GLOBAL__N_112UnaryExprAST7codegenEv to i8*)] }, align 8
@_ZTSN12_GLOBAL__N_112UnaryExprASTE = internal constant [31 x i8] c"N12_GLOBAL__N_112UnaryExprASTE\00", align 1
@_ZTIN12_GLOBAL__N_112UnaryExprASTE = internal constant { i8*, i8*, i8* } { i8* bitcast (i8** getelementptr inbounds (i8*, i8** @_ZTVN10__cxxabiv120__si_class_type_infoE, i64 2) to i8*), i8* getelementptr inbounds ([31 x i8], [31 x i8]* @_ZTSN12_GLOBAL__N_112UnaryExprASTE, i32 0, i32 0), i8* bitcast ({ i8*, i8* }* @_ZTIN12_GLOBAL__N_17ExprASTE to i8*) }, align 8
@.str.93 = private unnamed_addr constant [23 x i8] c"Unknown unary operator\00", align 1
@.str.94 = private unnamed_addr constant [5 x i8] c"unop\00", align 1
@_ZTVN12_GLOBAL__N_113BinaryExprASTE = internal unnamed_addr constant { [5 x i8*] } { [5 x i8*] [i8* null, i8* bitcast ({ i8*, i8*, i8* }* @_ZTIN12_GLOBAL__N_113BinaryExprASTE to i8*), i8* bitcast (void (%"class.(anonymous namespace)::BinaryExprAST"*)* @_ZN12_GLOBAL__N_113BinaryExprASTD2Ev to i8*), i8* bitcast (void (%"class.(anonymous namespace)::BinaryExprAST"*)* @_ZN12_GLOBAL__N_113BinaryExprASTD0Ev to i8*), i8* bitcast (%"class.llvm::Value"* (%"class.(anonymous namespace)::BinaryExprAST"*)* @_ZN12_GLOBAL__N_113BinaryExprAST7codegenEv to i8*)] }, align 8
@_ZTSN12_GLOBAL__N_113BinaryExprASTE = internal constant [32 x i8] c"N12_GLOBAL__N_113BinaryExprASTE\00", align 1
@_ZTIN12_GLOBAL__N_113BinaryExprASTE = internal constant { i8*, i8*, i8* } { i8* bitcast (i8** getelementptr inbounds (i8*, i8** @_ZTVN10__cxxabiv120__si_class_type_infoE, i64 2) to i8*), i8* getelementptr inbounds ([32 x i8], [32 x i8]* @_ZTSN12_GLOBAL__N_113BinaryExprASTE, i32 0, i32 0), i8* bitcast ({ i8*, i8* }* @_ZTIN12_GLOBAL__N_17ExprASTE to i8*) }, align 8
@.str.95 = private unnamed_addr constant [38 x i8] c"destination of '=' must be a variable\00", align 1
@.str.96 = private unnamed_addr constant [7 x i8] c"addtmp\00", align 1
@.str.97 = private unnamed_addr constant [7 x i8] c"subtmp\00", align 1
@.str.98 = private unnamed_addr constant [7 x i8] c"multmp\00", align 1
@.str.99 = private unnamed_addr constant [7 x i8] c"cmptmp\00", align 1
@.str.100 = private unnamed_addr constant [8 x i8] c"booltmp\00", align 1
@.str.101 = private unnamed_addr constant [34 x i8] c"F && \22binary operator not found!\22\00", align 1
@.str.102 = private unnamed_addr constant [10 x i8] c".\\toy.cpp\00", align 1
@.str.103 = private unnamed_addr constant [6 x i8] c"binop\00", align 1
@.str.104 = private unnamed_addr constant [6 x i8] c"entry\00", align 1
@.str.105 = private unnamed_addr constant [28 x i8] c"isUnaryOp() || isBinaryOp()\00", align 1
@.str.106 = private unnamed_addr constant [14 x i8] c"Read extern: \00", align 1
@.str.107 = private unnamed_addr constant [12 x i8] c"__anon_expr\00", align 1
@llvm.global_ctors = appending global [1 x { i32, void ()*, i8* }] [{ i32, void ()*, i8* } { i32 65535, void ()* @_GLOBAL__sub_I_toy.cpp, i8* null }]

; Function Attrs: noinline uwtable
define internal void @__cxx_global_var_init() #0 {
  call void @_ZNSt7__cxx1112basic_stringIcSt11char_traitsIcESaIcEEC1Ev(%"class.std::__cxx11::basic_string"* nonnull align 8 dereferenceable(32) @_ZL13IdentifierStrB5cxx11) #2
  %1 = call i32 @atexit(void ()* @__dtor__ZL13IdentifierStrB5cxx11) #2
  ret void
}

; Function Attrs: nounwind
declare dso_local void @_ZNSt7__cxx1112basic_stringIcSt11char_traitsIcESaIcEEC1Ev(%"class.std::__cxx11::basic_string"* nonnull align 8 dereferenceable(32)) unnamed_addr #1

; Function Attrs: nounwind
declare dso_local void @_ZNSt7__cxx1112basic_stringIcSt11char_traitsIcESaIcEED1Ev(%"class.std::__cxx11::basic_string"* nonnull align 8 dereferenceable(32)) unnamed_addr #1

; Function Attrs: noinline uwtable
define internal void @__dtor__ZL13IdentifierStrB5cxx11() #0 {
  call void @_ZNSt7__cxx1112basic_stringIcSt11char_traitsIcESaIcEED1Ev(%"class.std::__cxx11::basic_string"* @_ZL13IdentifierStrB5cxx11)
  ret void
}

; Function Attrs: nounwind
declare dso_local i32 @atexit(void ()*) #2

; Function Attrs: noinline uwtable
define internal void @__cxx_global_var_init.1() #0 {
  call void @_ZNSt3mapIciSt4lessIcESaISt4pairIKciEEEC2Ev(%"class.std::map"* nonnull align 8 dereferenceable(48) @_ZL15BinopPrecedence) #2
  %1 = call i32 @atexit(void ()* @__dtor__ZL15BinopPrecedence) #2
  ret void
}

; Function Attrs: noinline nounwind optnone uwtable
define linkonce_odr dso_local void @_ZNSt3mapIciSt4lessIcESaISt4pairIKciEEEC2Ev(%"class.std::map"* nonnull align 8 dereferenceable(48) %0) unnamed_addr #3 comdat align 2 {
  %2 = alloca %"class.std::map"*, align 8
  store %"class.std::map"* %0, %"class.std::map"** %2, align 8
  %3 = load %"class.std::map"*, %"class.std::map"** %2, align 8
  %4 = getelementptr inbounds %"class.std::map", %"class.std::map"* %3, i32 0, i32 0
  call void @_ZNSt8_Rb_treeIcSt4pairIKciESt10_Select1stIS2_ESt4lessIcESaIS2_EEC2Ev(%"class.std::_Rb_tree"* nonnull align 8 dereferenceable(48) %4) #2
  ret void
}

; Function Attrs: noinline nounwind optnone uwtable
define linkonce_odr dso_local void @_ZNSt3mapIciSt4lessIcESaISt4pairIKciEEED2Ev(%"class.std::map"* nonnull align 8 dereferenceable(48) %0) unnamed_addr #3 comdat align 2 {
  %2 = alloca %"class.std::map"*, align 8
  store %"class.std::map"* %0, %"class.std::map"** %2, align 8
  %3 = load %"class.std::map"*, %"class.std::map"** %2, align 8
  %4 = getelementptr inbounds %"class.std::map", %"class.std::map"* %3, i32 0, i32 0
  call void @_ZNSt8_Rb_treeIcSt4pairIKciESt10_Select1stIS2_ESt4lessIcESaIS2_EED2Ev(%"class.std::_Rb_tree"* nonnull align 8 dereferenceable(48) %4) #2
  ret void
}

; Function Attrs: noinline uwtable
define internal void @__dtor__ZL15BinopPrecedence() #0 {
  call void @_ZNSt3mapIciSt4lessIcESaISt4pairIKciEEED2Ev(%"class.std::map"* @_ZL15BinopPrecedence)
  ret void
}

; Function Attrs: noinline uwtable
define internal void @__cxx_global_var_init.2() #0 {
  %1 = call i32 @atexit(void ()* @__dtor__ZL10TheContext) #2
  ret void
}

; Function Attrs: noinline nounwind optnone uwtable
define linkonce_odr dso_local void @_ZNSt10unique_ptrIN4llvm11LLVMContextESt14default_deleteIS1_EED2Ev(%"class.std::unique_ptr"* nonnull align 8 dereferenceable(8) %0) unnamed_addr #3 comdat align 2 {
  %2 = alloca %"class.std::unique_ptr"*, align 8
  %3 = alloca %"class.llvm::LLVMContext"**, align 8
  store %"class.std::unique_ptr"* %0, %"class.std::unique_ptr"** %2, align 8
  %4 = load %"class.std::unique_ptr"*, %"class.std::unique_ptr"** %2, align 8
  %5 = getelementptr inbounds %"class.std::unique_ptr", %"class.std::unique_ptr"* %4, i32 0, i32 0
  %6 = bitcast %"struct.std::__uniq_ptr_data"* %5 to %"class.std::__uniq_ptr_impl"*
  %7 = call nonnull align 8 dereferenceable(8) %"class.llvm::LLVMContext"** @_ZNSt15__uniq_ptr_implIN4llvm11LLVMContextESt14default_deleteIS1_EE6_M_ptrEv(%"class.std::__uniq_ptr_impl"* nonnull align 8 dereferenceable(8) %6)
  store %"class.llvm::LLVMContext"** %7, %"class.llvm::LLVMContext"*** %3, align 8
  %8 = load %"class.llvm::LLVMContext"**, %"class.llvm::LLVMContext"*** %3, align 8
  %9 = load %"class.llvm::LLVMContext"*, %"class.llvm::LLVMContext"** %8, align 8
  %10 = icmp ne %"class.llvm::LLVMContext"* %9, null
  br i1 %10, label %11, label %16

11:                                               ; preds = %1
  %12 = call nonnull align 1 dereferenceable(1) %"struct.std::default_delete.271"* @_ZNSt10unique_ptrIN4llvm11LLVMContextESt14default_deleteIS1_EE11get_deleterEv(%"class.std::unique_ptr"* nonnull align 8 dereferenceable(8) %4) #2
  %13 = load %"class.llvm::LLVMContext"**, %"class.llvm::LLVMContext"*** %3, align 8
  %14 = call nonnull align 8 dereferenceable(8) %"class.llvm::LLVMContext"** @_ZSt4moveIRPN4llvm11LLVMContextEEONSt16remove_referenceIT_E4typeEOS5_(%"class.llvm::LLVMContext"** nonnull align 8 dereferenceable(8) %13) #2
  %15 = load %"class.llvm::LLVMContext"*, %"class.llvm::LLVMContext"** %14, align 8
  call void @_ZNKSt14default_deleteIN4llvm11LLVMContextEEclEPS1_(%"struct.std::default_delete.271"* nonnull align 1 dereferenceable(1) %12, %"class.llvm::LLVMContext"* %15)
  br label %16

16:                                               ; preds = %11, %1
  %17 = load %"class.llvm::LLVMContext"**, %"class.llvm::LLVMContext"*** %3, align 8
  store %"class.llvm::LLVMContext"* null, %"class.llvm::LLVMContext"** %17, align 8
  ret void
}

; Function Attrs: noinline uwtable
define internal void @__dtor__ZL10TheContext() #0 {
  call void @_ZNSt10unique_ptrIN4llvm11LLVMContextESt14default_deleteIS1_EED2Ev(%"class.std::unique_ptr"* bitcast ({ { { %"class.llvm::LLVMContext"* } } }* @_ZL10TheContext to %"class.std::unique_ptr"*))
  ret void
}

; Function Attrs: noinline uwtable
define internal void @__cxx_global_var_init.3() #0 {
  %1 = call i32 @atexit(void ()* @__dtor__ZL9TheModule) #2
  ret void
}

; Function Attrs: noinline nounwind optnone uwtable
define linkonce_odr dso_local void @_ZNSt10unique_ptrIN4llvm6ModuleESt14default_deleteIS1_EED2Ev(%"class.std::unique_ptr.87"* nonnull align 8 dereferenceable(8) %0) unnamed_addr #3 comdat align 2 {
  %2 = alloca %"class.std::unique_ptr.87"*, align 8
  %3 = alloca %"class.llvm::Module"**, align 8
  store %"class.std::unique_ptr.87"* %0, %"class.std::unique_ptr.87"** %2, align 8
  %4 = load %"class.std::unique_ptr.87"*, %"class.std::unique_ptr.87"** %2, align 8
  %5 = getelementptr inbounds %"class.std::unique_ptr.87", %"class.std::unique_ptr.87"* %4, i32 0, i32 0
  %6 = bitcast %"struct.std::__uniq_ptr_data.85"* %5 to %"class.std::__uniq_ptr_impl.86"*
  %7 = call nonnull align 8 dereferenceable(8) %"class.llvm::Module"** @_ZNSt15__uniq_ptr_implIN4llvm6ModuleESt14default_deleteIS1_EE6_M_ptrEv(%"class.std::__uniq_ptr_impl.86"* nonnull align 8 dereferenceable(8) %6)
  store %"class.llvm::Module"** %7, %"class.llvm::Module"*** %3, align 8
  %8 = load %"class.llvm::Module"**, %"class.llvm::Module"*** %3, align 8
  %9 = load %"class.llvm::Module"*, %"class.llvm::Module"** %8, align 8
  %10 = icmp ne %"class.llvm::Module"* %9, null
  br i1 %10, label %11, label %16

11:                                               ; preds = %1
  %12 = call nonnull align 1 dereferenceable(1) %"struct.std::default_delete.273"* @_ZNSt10unique_ptrIN4llvm6ModuleESt14default_deleteIS1_EE11get_deleterEv(%"class.std::unique_ptr.87"* nonnull align 8 dereferenceable(8) %4) #2
  %13 = load %"class.llvm::Module"**, %"class.llvm::Module"*** %3, align 8
  %14 = call nonnull align 8 dereferenceable(8) %"class.llvm::Module"** @_ZSt4moveIRPN4llvm6ModuleEEONSt16remove_referenceIT_E4typeEOS5_(%"class.llvm::Module"** nonnull align 8 dereferenceable(8) %13) #2
  %15 = load %"class.llvm::Module"*, %"class.llvm::Module"** %14, align 8
  call void @_ZNKSt14default_deleteIN4llvm6ModuleEEclEPS1_(%"struct.std::default_delete.273"* nonnull align 1 dereferenceable(1) %12, %"class.llvm::Module"* %15)
  br label %16

16:                                               ; preds = %11, %1
  %17 = load %"class.llvm::Module"**, %"class.llvm::Module"*** %3, align 8
  store %"class.llvm::Module"* null, %"class.llvm::Module"** %17, align 8
  ret void
}

; Function Attrs: noinline uwtable
define internal void @__dtor__ZL9TheModule() #0 {
  call void @_ZNSt10unique_ptrIN4llvm6ModuleESt14default_deleteIS1_EED2Ev(%"class.std::unique_ptr.87"* bitcast ({ { { %"class.llvm::Module"* } } }* @_ZL9TheModule to %"class.std::unique_ptr.87"*))
  ret void
}

; Function Attrs: noinline uwtable
define internal void @__cxx_global_var_init.4() #0 {
  %1 = call i32 @atexit(void ()* @__dtor__ZL7Builder) #2
  ret void
}

; Function Attrs: noinline nounwind optnone uwtable
define linkonce_odr dso_local void @_ZNSt10unique_ptrIN4llvm9IRBuilderINS0_14ConstantFolderENS0_24IRBuilderDefaultInserterEEESt14default_deleteIS4_EED2Ev(%"class.std::unique_ptr.95"* nonnull align 8 dereferenceable(8) %0) unnamed_addr #3 comdat align 2 {
  %2 = alloca %"class.std::unique_ptr.95"*, align 8
  %3 = alloca %"class.llvm::IRBuilder"**, align 8
  store %"class.std::unique_ptr.95"* %0, %"class.std::unique_ptr.95"** %2, align 8
  %4 = load %"class.std::unique_ptr.95"*, %"class.std::unique_ptr.95"** %2, align 8
  %5 = getelementptr inbounds %"class.std::unique_ptr.95", %"class.std::unique_ptr.95"* %4, i32 0, i32 0
  %6 = bitcast %"struct.std::__uniq_ptr_data.93"* %5 to %"class.std::__uniq_ptr_impl.94"*
  %7 = call nonnull align 8 dereferenceable(8) %"class.llvm::IRBuilder"** @_ZNSt15__uniq_ptr_implIN4llvm9IRBuilderINS0_14ConstantFolderENS0_24IRBuilderDefaultInserterEEESt14default_deleteIS4_EE6_M_ptrEv(%"class.std::__uniq_ptr_impl.94"* nonnull align 8 dereferenceable(8) %6)
  store %"class.llvm::IRBuilder"** %7, %"class.llvm::IRBuilder"*** %3, align 8
  %8 = load %"class.llvm::IRBuilder"**, %"class.llvm::IRBuilder"*** %3, align 8
  %9 = load %"class.llvm::IRBuilder"*, %"class.llvm::IRBuilder"** %8, align 8
  %10 = icmp ne %"class.llvm::IRBuilder"* %9, null
  br i1 %10, label %11, label %16

11:                                               ; preds = %1
  %12 = call nonnull align 1 dereferenceable(1) %"struct.std::default_delete.278"* @_ZNSt10unique_ptrIN4llvm9IRBuilderINS0_14ConstantFolderENS0_24IRBuilderDefaultInserterEEESt14default_deleteIS4_EE11get_deleterEv(%"class.std::unique_ptr.95"* nonnull align 8 dereferenceable(8) %4) #2
  %13 = load %"class.llvm::IRBuilder"**, %"class.llvm::IRBuilder"*** %3, align 8
  %14 = call nonnull align 8 dereferenceable(8) %"class.llvm::IRBuilder"** @_ZSt4moveIRPN4llvm9IRBuilderINS0_14ConstantFolderENS0_24IRBuilderDefaultInserterEEEEONSt16remove_referenceIT_E4typeEOS8_(%"class.llvm::IRBuilder"** nonnull align 8 dereferenceable(8) %13) #2
  %15 = load %"class.llvm::IRBuilder"*, %"class.llvm::IRBuilder"** %14, align 8
  call void @_ZNKSt14default_deleteIN4llvm9IRBuilderINS0_14ConstantFolderENS0_24IRBuilderDefaultInserterEEEEclEPS4_(%"struct.std::default_delete.278"* nonnull align 1 dereferenceable(1) %12, %"class.llvm::IRBuilder"* %15)
  br label %16

16:                                               ; preds = %11, %1
  %17 = load %"class.llvm::IRBuilder"**, %"class.llvm::IRBuilder"*** %3, align 8
  store %"class.llvm::IRBuilder"* null, %"class.llvm::IRBuilder"** %17, align 8
  ret void
}

; Function Attrs: noinline uwtable
define internal void @__dtor__ZL7Builder() #0 {
  call void @_ZNSt10unique_ptrIN4llvm9IRBuilderINS0_14ConstantFolderENS0_24IRBuilderDefaultInserterEEESt14default_deleteIS4_EED2Ev(%"class.std::unique_ptr.95"* bitcast ({ { { %"class.llvm::IRBuilder"* } } }* @_ZL7Builder to %"class.std::unique_ptr.95"*))
  ret void
}

; Function Attrs: noinline uwtable
define internal void @__cxx_global_var_init.5() #0 {
  call void @_ZNSt3mapINSt7__cxx1112basic_stringIcSt11char_traitsIcESaIcEEEPN4llvm10AllocaInstESt4lessIS5_ESaISt4pairIKS5_S8_EEEC2Ev(%"class.std::map.96"* nonnull align 8 dereferenceable(48) @_ZL11NamedValuesB5cxx11) #2
  %1 = call i32 @atexit(void ()* @__dtor__ZL11NamedValuesB5cxx11) #2
  ret void
}

; Function Attrs: noinline nounwind optnone uwtable
define linkonce_odr dso_local void @_ZNSt3mapINSt7__cxx1112basic_stringIcSt11char_traitsIcESaIcEEEPN4llvm10AllocaInstESt4lessIS5_ESaISt4pairIKS5_S8_EEEC2Ev(%"class.std::map.96"* nonnull align 8 dereferenceable(48) %0) unnamed_addr #3 comdat align 2 {
  %2 = alloca %"class.std::map.96"*, align 8
  store %"class.std::map.96"* %0, %"class.std::map.96"** %2, align 8
  %3 = load %"class.std::map.96"*, %"class.std::map.96"** %2, align 8
  %4 = getelementptr inbounds %"class.std::map.96", %"class.std::map.96"* %3, i32 0, i32 0
  call void @_ZNSt8_Rb_treeINSt7__cxx1112basic_stringIcSt11char_traitsIcESaIcEEESt4pairIKS5_PN4llvm10AllocaInstEESt10_Select1stISB_ESt4lessIS5_ESaISB_EEC2Ev(%"class.std::_Rb_tree.97"* nonnull align 8 dereferenceable(48) %4) #2
  ret void
}

; Function Attrs: noinline nounwind optnone uwtable
define linkonce_odr dso_local void @_ZNSt3mapINSt7__cxx1112basic_stringIcSt11char_traitsIcESaIcEEEPN4llvm10AllocaInstESt4lessIS5_ESaISt4pairIKS5_S8_EEED2Ev(%"class.std::map.96"* nonnull align 8 dereferenceable(48) %0) unnamed_addr #3 comdat align 2 {
  %2 = alloca %"class.std::map.96"*, align 8
  store %"class.std::map.96"* %0, %"class.std::map.96"** %2, align 8
  %3 = load %"class.std::map.96"*, %"class.std::map.96"** %2, align 8
  %4 = getelementptr inbounds %"class.std::map.96", %"class.std::map.96"* %3, i32 0, i32 0
  call void @_ZNSt8_Rb_treeINSt7__cxx1112basic_stringIcSt11char_traitsIcESaIcEEESt4pairIKS5_PN4llvm10AllocaInstEESt10_Select1stISB_ESt4lessIS5_ESaISB_EED2Ev(%"class.std::_Rb_tree.97"* nonnull align 8 dereferenceable(48) %4) #2
  ret void
}

; Function Attrs: noinline uwtable
define internal void @__dtor__ZL11NamedValuesB5cxx11() #0 {
  call void @_ZNSt3mapINSt7__cxx1112basic_stringIcSt11char_traitsIcESaIcEEEPN4llvm10AllocaInstESt4lessIS5_ESaISt4pairIKS5_S8_EEED2Ev(%"class.std::map.96"* @_ZL11NamedValuesB5cxx11)
  ret void
}

; Function Attrs: noinline uwtable
define internal void @__cxx_global_var_init.6() #0 {
  call void @_ZNSt3mapINSt7__cxx1112basic_stringIcSt11char_traitsIcESaIcEEESt10unique_ptrIN12_GLOBAL__N_112PrototypeASTESt14default_deleteIS8_EESt4lessIS5_ESaISt4pairIKS5_SB_EEEC2Ev(%"class.std::map.104"* nonnull align 8 dereferenceable(48) @_ZL14FunctionProtosB5cxx11) #2
  %1 = call i32 @atexit(void ()* @__dtor__ZL14FunctionProtosB5cxx11) #2
  ret void
}

; Function Attrs: noinline nounwind optnone uwtable
define internal void @_ZNSt3mapINSt7__cxx1112basic_stringIcSt11char_traitsIcESaIcEEESt10unique_ptrIN12_GLOBAL__N_112PrototypeASTESt14default_deleteIS8_EESt4lessIS5_ESaISt4pairIKS5_SB_EEEC2Ev(%"class.std::map.104"* nonnull align 8 dereferenceable(48) %0) unnamed_addr #3 align 2 {
  %2 = alloca %"class.std::map.104"*, align 8
  store %"class.std::map.104"* %0, %"class.std::map.104"** %2, align 8
  %3 = load %"class.std::map.104"*, %"class.std::map.104"** %2, align 8
  %4 = getelementptr inbounds %"class.std::map.104", %"class.std::map.104"* %3, i32 0, i32 0
  call void @_ZNSt8_Rb_treeINSt7__cxx1112basic_stringIcSt11char_traitsIcESaIcEEESt4pairIKS5_St10unique_ptrIN12_GLOBAL__N_112PrototypeASTESt14default_deleteISA_EEESt10_Select1stISE_ESt4lessIS5_ESaISE_EEC2Ev(%"class.std::_Rb_tree.105"* nonnull align 8 dereferenceable(48) %4) #2
  ret void
}

; Function Attrs: noinline nounwind optnone uwtable
define internal void @_ZNSt3mapINSt7__cxx1112basic_stringIcSt11char_traitsIcESaIcEEESt10unique_ptrIN12_GLOBAL__N_112PrototypeASTESt14default_deleteIS8_EESt4lessIS5_ESaISt4pairIKS5_SB_EEED2Ev(%"class.std::map.104"* nonnull align 8 dereferenceable(48) %0) unnamed_addr #3 align 2 {
  %2 = alloca %"class.std::map.104"*, align 8
  store %"class.std::map.104"* %0, %"class.std::map.104"** %2, align 8
  %3 = load %"class.std::map.104"*, %"class.std::map.104"** %2, align 8
  %4 = getelementptr inbounds %"class.std::map.104", %"class.std::map.104"* %3, i32 0, i32 0
  call void @_ZNSt8_Rb_treeINSt7__cxx1112basic_stringIcSt11char_traitsIcESaIcEEESt4pairIKS5_St10unique_ptrIN12_GLOBAL__N_112PrototypeASTESt14default_deleteISA_EEESt10_Select1stISE_ESt4lessIS5_ESaISE_EED2Ev(%"class.std::_Rb_tree.105"* nonnull align 8 dereferenceable(48) %4) #2
  ret void
}

; Function Attrs: noinline uwtable
define internal void @__dtor__ZL14FunctionProtosB5cxx11() #0 {
  call void @_ZNSt3mapINSt7__cxx1112basic_stringIcSt11char_traitsIcESaIcEEESt10unique_ptrIN12_GLOBAL__N_112PrototypeASTESt14default_deleteIS8_EESt4lessIS5_ESaISt4pairIKS5_SB_EEED2Ev(%"class.std::map.104"* @_ZL14FunctionProtosB5cxx11)
  ret void
}

; Function Attrs: noinline uwtable
define internal void @__cxx_global_var_init.7() #0 personality i8* bitcast (i32 (...)* @__gxx_personality_seh0 to i8*) {
  %1 = alloca %"class.std::__cxx11::basic_string", align 8
  %2 = alloca %"class.std::allocator", align 1
  %3 = alloca i8*, align 8
  %4 = alloca i32, align 4
  call void @_ZNSaIcEC1Ev(%"class.std::allocator"* nonnull align 1 dereferenceable(1) %2) #2
  invoke void @_ZNSt7__cxx1112basic_stringIcSt11char_traitsIcESaIcEEC1EPKcRKS3_(%"class.std::__cxx11::basic_string"* nonnull align 8 dereferenceable(32) %1, i8* getelementptr inbounds ([1 x i8], [1 x i8]* @.str, i64 0, i64 0), %"class.std::allocator"* nonnull align 1 dereferenceable(1) %2)
          to label %5 unwind label %8

5:                                                ; preds = %0
  invoke void @_ZN4llvm11ExitOnErrorC2ENSt7__cxx1112basic_stringIcSt11char_traitsIcESaIcEEEi(%"class.llvm::ExitOnError"* nonnull align 8 dereferenceable(64) @_ZL9ExitOnErr, %"class.std::__cxx11::basic_string"* %1, i32 1)
          to label %6 unwind label %12

6:                                                ; preds = %5
  call void @_ZNSt7__cxx1112basic_stringIcSt11char_traitsIcESaIcEED1Ev(%"class.std::__cxx11::basic_string"* nonnull align 8 dereferenceable(32) %1) #2
  call void @_ZNSaIcED1Ev(%"class.std::allocator"* nonnull align 1 dereferenceable(1) %2) #2
  %7 = call i32 @atexit(void ()* @__dtor__ZL9ExitOnErr) #2
  ret void

8:                                                ; preds = %0
  %9 = landingpad { i8*, i32 }
          cleanup
  %10 = extractvalue { i8*, i32 } %9, 0
  store i8* %10, i8** %3, align 8
  %11 = extractvalue { i8*, i32 } %9, 1
  store i32 %11, i32* %4, align 4
  br label %16

12:                                               ; preds = %5
  %13 = landingpad { i8*, i32 }
          cleanup
  %14 = extractvalue { i8*, i32 } %13, 0
  store i8* %14, i8** %3, align 8
  %15 = extractvalue { i8*, i32 } %13, 1
  store i32 %15, i32* %4, align 4
  call void @_ZNSt7__cxx1112basic_stringIcSt11char_traitsIcESaIcEED1Ev(%"class.std::__cxx11::basic_string"* nonnull align 8 dereferenceable(32) %1) #2
  br label %16

16:                                               ; preds = %12, %8
  call void @_ZNSaIcED1Ev(%"class.std::allocator"* nonnull align 1 dereferenceable(1) %2) #2
  br label %17

17:                                               ; preds = %16
  %18 = load i8*, i8** %3, align 8
  %19 = load i32, i32* %4, align 4
  %20 = insertvalue { i8*, i32 } undef, i8* %18, 0
  %21 = insertvalue { i8*, i32 } %20, i32 %19, 1
  resume { i8*, i32 } %21
}

; Function Attrs: nounwind
declare dso_local void @_ZNSaIcEC1Ev(%"class.std::allocator"* nonnull align 1 dereferenceable(1)) unnamed_addr #1

declare dso_local void @_ZNSt7__cxx1112basic_stringIcSt11char_traitsIcESaIcEEC1EPKcRKS3_(%"class.std::__cxx11::basic_string"* nonnull align 8 dereferenceable(32), i8*, %"class.std::allocator"* nonnull align 1 dereferenceable(1)) unnamed_addr #4

declare dso_local i32 @__gxx_personality_seh0(...)

; Function Attrs: noinline optnone uwtable
define linkonce_odr dso_local void @_ZN4llvm11ExitOnErrorC2ENSt7__cxx1112basic_stringIcSt11char_traitsIcESaIcEEEi(%"class.llvm::ExitOnError"* nonnull align 8 dereferenceable(64) %0, %"class.std::__cxx11::basic_string"* %1, i32 %2) unnamed_addr #5 comdat align 2 personality i8* bitcast (i32 (...)* @__gxx_personality_seh0 to i8*) {
  %4 = alloca %"class.llvm::ExitOnError"*, align 8
  %5 = alloca i32, align 4
  %6 = alloca %class.anon, align 4
  %7 = alloca i8*, align 8
  %8 = alloca i32, align 4
  store %"class.llvm::ExitOnError"* %0, %"class.llvm::ExitOnError"** %4, align 8
  store i32 %2, i32* %5, align 4
  %9 = load %"class.llvm::ExitOnError"*, %"class.llvm::ExitOnError"** %4, align 8
  %10 = getelementptr inbounds %"class.llvm::ExitOnError", %"class.llvm::ExitOnError"* %9, i32 0, i32 0
  %11 = call nonnull align 8 dereferenceable(32) %"class.std::__cxx11::basic_string"* @_ZSt4moveIRNSt7__cxx1112basic_stringIcSt11char_traitsIcESaIcEEEEONSt16remove_referenceIT_E4typeEOS8_(%"class.std::__cxx11::basic_string"* nonnull align 8 dereferenceable(32) %1) #2
  call void @_ZNSt7__cxx1112basic_stringIcSt11char_traitsIcESaIcEEC1EOS4_(%"class.std::__cxx11::basic_string"* nonnull align 8 dereferenceable(32) %10, %"class.std::__cxx11::basic_string"* nonnull align 8 dereferenceable(32) %11) #2
  %12 = getelementptr inbounds %"class.llvm::ExitOnError", %"class.llvm::ExitOnError"* %9, i32 0, i32 1
  %13 = getelementptr inbounds %class.anon, %class.anon* %6, i32 0, i32 0
  %14 = load i32, i32* %5, align 4
  store i32 %14, i32* %13, align 4
  %15 = getelementptr inbounds %class.anon, %class.anon* %6, i32 0, i32 0
  %16 = load i32, i32* %15, align 4
  invoke void @_ZNSt8functionIFiRKN4llvm5ErrorEEEC2IZNS0_11ExitOnErrorC1ENSt7__cxx1112basic_stringIcSt11char_traitsIcESaIcEEEiEUlS3_E_vvEET_(%"class.std::function"* nonnull align 8 dereferenceable(32) %12, i32 %16)
          to label %17 unwind label %18

17:                                               ; preds = %3
  ret void

18:                                               ; preds = %3
  %19 = landingpad { i8*, i32 }
          cleanup
  %20 = extractvalue { i8*, i32 } %19, 0
  store i8* %20, i8** %7, align 8
  %21 = extractvalue { i8*, i32 } %19, 1
  store i32 %21, i32* %8, align 4
  call void @_ZNSt7__cxx1112basic_stringIcSt11char_traitsIcESaIcEED1Ev(%"class.std::__cxx11::basic_string"* nonnull align 8 dereferenceable(32) %10) #2
  br label %22

22:                                               ; preds = %18
  %23 = load i8*, i8** %7, align 8
  %24 = load i32, i32* %8, align 4
  %25 = insertvalue { i8*, i32 } undef, i8* %23, 0
  %26 = insertvalue { i8*, i32 } %25, i32 %24, 1
  resume { i8*, i32 } %26
}

; Function Attrs: nounwind
declare dso_local void @_ZNSaIcED1Ev(%"class.std::allocator"* nonnull align 1 dereferenceable(1)) unnamed_addr #1

; Function Attrs: noinline nounwind optnone uwtable
define linkonce_odr dso_local void @_ZN4llvm11ExitOnErrorD2Ev(%"class.llvm::ExitOnError"* nonnull align 8 dereferenceable(64) %0) unnamed_addr #3 comdat align 2 {
  %2 = alloca %"class.llvm::ExitOnError"*, align 8
  store %"class.llvm::ExitOnError"* %0, %"class.llvm::ExitOnError"** %2, align 8
  %3 = load %"class.llvm::ExitOnError"*, %"class.llvm::ExitOnError"** %2, align 8
  %4 = getelementptr inbounds %"class.llvm::ExitOnError", %"class.llvm::ExitOnError"* %3, i32 0, i32 1
  call void @_ZNSt8functionIFiRKN4llvm5ErrorEEED2Ev(%"class.std::function"* nonnull align 8 dereferenceable(32) %4) #2
  %5 = getelementptr inbounds %"class.llvm::ExitOnError", %"class.llvm::ExitOnError"* %3, i32 0, i32 0
  call void @_ZNSt7__cxx1112basic_stringIcSt11char_traitsIcESaIcEED1Ev(%"class.std::__cxx11::basic_string"* nonnull align 8 dereferenceable(32) %5) #2
  ret void
}

; Function Attrs: noinline uwtable
define internal void @__dtor__ZL9ExitOnErr() #0 {
  call void @_ZN4llvm11ExitOnErrorD2Ev(%"class.llvm::ExitOnError"* @_ZL9ExitOnErr)
  ret void
}

; Function Attrs: mustprogress noinline optnone uwtable
define dso_local %"class.llvm::Value"* @_Z9LogErrorVPKc(i8* %0) #6 {
  %2 = alloca i8*, align 8
  %3 = alloca %"class.std::unique_ptr.109", align 8
  store i8* %0, i8** %2, align 8
  %4 = load i8*, i8** %2, align 8
  call void @_Z8LogErrorPKc(%"class.std::unique_ptr.109"* sret(%"class.std::unique_ptr.109") align 8 %3, i8* %4)
  call void @_ZNSt10unique_ptrIN12_GLOBAL__N_17ExprASTESt14default_deleteIS1_EED2Ev(%"class.std::unique_ptr.109"* nonnull align 8 dereferenceable(8) %3) #2
  ret %"class.llvm::Value"* null
}

; Function Attrs: mustprogress noinline optnone uwtable
define internal void @_Z8LogErrorPKc(%"class.std::unique_ptr.109"* noalias sret(%"class.std::unique_ptr.109") align 8 %0, i8* %1) #6 {
  %3 = alloca i8*, align 8
  %4 = alloca i8*, align 8
  %5 = bitcast %"class.std::unique_ptr.109"* %0 to i8*
  store i8* %5, i8** %3, align 8
  store i8* %1, i8** %4, align 8
  %6 = call %struct._iobuf* @__acrt_iob_func(i32 2)
  %7 = load i8*, i8** %4, align 8
  %8 = call i32 (%struct._iobuf*, i8*, ...) @_ZL7fprintfP6_iobufPKcz(%struct._iobuf* %6, i8* getelementptr inbounds ([11 x i8], [11 x i8]* @.str.16, i64 0, i64 0), i8* %7)
  call void @_ZNSt10unique_ptrIN12_GLOBAL__N_17ExprASTESt14default_deleteIS1_EEC2IS3_vEEDn(%"class.std::unique_ptr.109"* nonnull align 8 dereferenceable(8) %0, i8* null) #2
  ret void
}

; Function Attrs: noinline nounwind optnone uwtable
define internal void @_ZNSt10unique_ptrIN12_GLOBAL__N_17ExprASTESt14default_deleteIS1_EED2Ev(%"class.std::unique_ptr.109"* nonnull align 8 dereferenceable(8) %0) unnamed_addr #3 align 2 {
  %2 = alloca %"class.std::unique_ptr.109"*, align 8
  %3 = alloca %"class.(anonymous namespace)::ExprAST"**, align 8
  store %"class.std::unique_ptr.109"* %0, %"class.std::unique_ptr.109"** %2, align 8
  %4 = load %"class.std::unique_ptr.109"*, %"class.std::unique_ptr.109"** %2, align 8
  %5 = getelementptr inbounds %"class.std::unique_ptr.109", %"class.std::unique_ptr.109"* %4, i32 0, i32 0
  %6 = bitcast %"struct.std::__uniq_ptr_data.110"* %5 to %"class.std::__uniq_ptr_impl.111"*
  %7 = call nonnull align 8 dereferenceable(8) %"class.(anonymous namespace)::ExprAST"** @_ZNSt15__uniq_ptr_implIN12_GLOBAL__N_17ExprASTESt14default_deleteIS1_EE6_M_ptrEv(%"class.std::__uniq_ptr_impl.111"* nonnull align 8 dereferenceable(8) %6)
  store %"class.(anonymous namespace)::ExprAST"** %7, %"class.(anonymous namespace)::ExprAST"*** %3, align 8
  %8 = load %"class.(anonymous namespace)::ExprAST"**, %"class.(anonymous namespace)::ExprAST"*** %3, align 8
  %9 = load %"class.(anonymous namespace)::ExprAST"*, %"class.(anonymous namespace)::ExprAST"** %8, align 8
  %10 = icmp ne %"class.(anonymous namespace)::ExprAST"* %9, null
  br i1 %10, label %11, label %16

11:                                               ; preds = %1
  %12 = call nonnull align 1 dereferenceable(1) %"struct.std::default_delete.263"* @_ZNSt10unique_ptrIN12_GLOBAL__N_17ExprASTESt14default_deleteIS1_EE11get_deleterEv(%"class.std::unique_ptr.109"* nonnull align 8 dereferenceable(8) %4) #2
  %13 = load %"class.(anonymous namespace)::ExprAST"**, %"class.(anonymous namespace)::ExprAST"*** %3, align 8
  %14 = call nonnull align 8 dereferenceable(8) %"class.(anonymous namespace)::ExprAST"** @_ZSt4moveIRPN12_GLOBAL__N_17ExprASTEEONSt16remove_referenceIT_E4typeEOS5_(%"class.(anonymous namespace)::ExprAST"** nonnull align 8 dereferenceable(8) %13) #2
  %15 = load %"class.(anonymous namespace)::ExprAST"*, %"class.(anonymous namespace)::ExprAST"** %14, align 8
  call void @_ZNKSt14default_deleteIN12_GLOBAL__N_17ExprASTEEclEPS1_(%"struct.std::default_delete.263"* nonnull align 1 dereferenceable(1) %12, %"class.(anonymous namespace)::ExprAST"* %15)
  br label %16

16:                                               ; preds = %11, %1
  %17 = load %"class.(anonymous namespace)::ExprAST"**, %"class.(anonymous namespace)::ExprAST"*** %3, align 8
  store %"class.(anonymous namespace)::ExprAST"* null, %"class.(anonymous namespace)::ExprAST"** %17, align 8
  ret void
}

; Function Attrs: mustprogress noinline optnone uwtable
define dso_local %"class.llvm::Function"* @_Z11getFunctionNSt7__cxx1112basic_stringIcSt11char_traitsIcESaIcEEE(%"class.std::__cxx11::basic_string"* %0) #6 {
  %2 = alloca %"class.llvm::Function"*, align 8
  %3 = alloca %"class.llvm::Function"*, align 8
  %4 = alloca %"class.llvm::StringRef", align 8
  %5 = alloca %"struct.std::_Rb_tree_iterator", align 8
  %6 = alloca %"struct.std::_Rb_tree_iterator", align 8
  %7 = call %"class.llvm::Module"* @_ZNKSt10unique_ptrIN4llvm6ModuleESt14default_deleteIS1_EEptEv(%"class.std::unique_ptr.87"* nonnull align 8 dereferenceable(8) bitcast ({ { { %"class.llvm::Module"* } } }* @_ZL9TheModule to %"class.std::unique_ptr.87"*)) #2
  call void @_ZN4llvm9StringRefC2ERKNSt7__cxx1112basic_stringIcSt11char_traitsIcESaIcEEE(%"class.llvm::StringRef"* nonnull align 8 dereferenceable(16) %4, %"class.std::__cxx11::basic_string"* nonnull align 8 dereferenceable(32) %0)
  %8 = call %"class.llvm::Function"* @_ZNK4llvm6Module11getFunctionENS_9StringRefE(%"class.llvm::Module"* nonnull align 8 dereferenceable(800) %7, %"class.llvm::StringRef"* %4)
  store %"class.llvm::Function"* %8, %"class.llvm::Function"** %3, align 8
  %9 = load %"class.llvm::Function"*, %"class.llvm::Function"** %3, align 8
  %10 = icmp ne %"class.llvm::Function"* %9, null
  br i1 %10, label %11, label %13

11:                                               ; preds = %1
  %12 = load %"class.llvm::Function"*, %"class.llvm::Function"** %3, align 8
  store %"class.llvm::Function"* %12, %"class.llvm::Function"** %2, align 8
  br label %27

13:                                               ; preds = %1
  %14 = call i64 @_ZNSt3mapINSt7__cxx1112basic_stringIcSt11char_traitsIcESaIcEEESt10unique_ptrIN12_GLOBAL__N_112PrototypeASTESt14default_deleteIS8_EESt4lessIS5_ESaISt4pairIKS5_SB_EEE4findERSF_(%"class.std::map.104"* nonnull align 8 dereferenceable(48) @_ZL14FunctionProtosB5cxx11, %"class.std::__cxx11::basic_string"* nonnull align 8 dereferenceable(32) %0)
  %15 = getelementptr inbounds %"struct.std::_Rb_tree_iterator", %"struct.std::_Rb_tree_iterator"* %5, i32 0, i32 0
  %16 = inttoptr i64 %14 to %"struct.std::_Rb_tree_node_base"*
  store %"struct.std::_Rb_tree_node_base"* %16, %"struct.std::_Rb_tree_node_base"** %15, align 8
  %17 = call i64 @_ZNSt3mapINSt7__cxx1112basic_stringIcSt11char_traitsIcESaIcEEESt10unique_ptrIN12_GLOBAL__N_112PrototypeASTESt14default_deleteIS8_EESt4lessIS5_ESaISt4pairIKS5_SB_EEE3endEv(%"class.std::map.104"* nonnull align 8 dereferenceable(48) @_ZL14FunctionProtosB5cxx11) #2
  %18 = getelementptr inbounds %"struct.std::_Rb_tree_iterator", %"struct.std::_Rb_tree_iterator"* %6, i32 0, i32 0
  %19 = inttoptr i64 %17 to %"struct.std::_Rb_tree_node_base"*
  store %"struct.std::_Rb_tree_node_base"* %19, %"struct.std::_Rb_tree_node_base"** %18, align 8
  %20 = call zeroext i1 @_ZStneRKSt17_Rb_tree_iteratorISt4pairIKNSt7__cxx1112basic_stringIcSt11char_traitsIcESaIcEEESt10unique_ptrIN12_GLOBAL__N_112PrototypeASTESt14default_deleteISA_EEEESH_(%"struct.std::_Rb_tree_iterator"* nonnull align 8 dereferenceable(8) %5, %"struct.std::_Rb_tree_iterator"* nonnull align 8 dereferenceable(8) %6) #2
  br i1 %20, label %21, label %26

21:                                               ; preds = %13
  %22 = call %"struct.std::pair"* @_ZNKSt17_Rb_tree_iteratorISt4pairIKNSt7__cxx1112basic_stringIcSt11char_traitsIcESaIcEEESt10unique_ptrIN12_GLOBAL__N_112PrototypeASTESt14default_deleteISA_EEEEptEv(%"struct.std::_Rb_tree_iterator"* nonnull align 8 dereferenceable(8) %5) #2
  %23 = getelementptr inbounds %"struct.std::pair", %"struct.std::pair"* %22, i32 0, i32 1
  %24 = call %"class.(anonymous namespace)::PrototypeAST"* @_ZNKSt10unique_ptrIN12_GLOBAL__N_112PrototypeASTESt14default_deleteIS1_EEptEv(%"class.std::unique_ptr.125"* nonnull align 8 dereferenceable(8) %23) #2
  %25 = call %"class.llvm::Function"* @_ZN12_GLOBAL__N_112PrototypeAST7codegenEv(%"class.(anonymous namespace)::PrototypeAST"* nonnull align 8 dereferenceable(64) %24)
  store %"class.llvm::Function"* %25, %"class.llvm::Function"** %2, align 8
  br label %27

26:                                               ; preds = %13
  store %"class.llvm::Function"* null, %"class.llvm::Function"** %2, align 8
  br label %27

27:                                               ; preds = %26, %21, %11
  %28 = load %"class.llvm::Function"*, %"class.llvm::Function"** %2, align 8
  ret %"class.llvm::Function"* %28
}

; Function Attrs: mustprogress noinline nounwind optnone uwtable
define linkonce_odr dso_local %"class.llvm::Module"* @_ZNKSt10unique_ptrIN4llvm6ModuleESt14default_deleteIS1_EEptEv(%"class.std::unique_ptr.87"* nonnull align 8 dereferenceable(8) %0) #7 comdat align 2 {
  %2 = alloca %"class.std::unique_ptr.87"*, align 8
  store %"class.std::unique_ptr.87"* %0, %"class.std::unique_ptr.87"** %2, align 8
  %3 = load %"class.std::unique_ptr.87"*, %"class.std::unique_ptr.87"** %2, align 8
  %4 = call %"class.llvm::Module"* @_ZNKSt10unique_ptrIN4llvm6ModuleESt14default_deleteIS1_EE3getEv(%"class.std::unique_ptr.87"* nonnull align 8 dereferenceable(8) %3) #2
  ret %"class.llvm::Module"* %4
}

declare dso_local %"class.llvm::Function"* @_ZNK4llvm6Module11getFunctionENS_9StringRefE(%"class.llvm::Module"* nonnull align 8 dereferenceable(800), %"class.llvm::StringRef"*) #4

; Function Attrs: noinline nounwind optnone uwtable
define linkonce_odr dso_local void @_ZN4llvm9StringRefC2ERKNSt7__cxx1112basic_stringIcSt11char_traitsIcESaIcEEE(%"class.llvm::StringRef"* nonnull align 8 dereferenceable(16) %0, %"class.std::__cxx11::basic_string"* nonnull align 8 dereferenceable(32) %1) unnamed_addr #3 comdat align 2 {
  %3 = alloca %"class.llvm::StringRef"*, align 8
  %4 = alloca %"class.std::__cxx11::basic_string"*, align 8
  store %"class.llvm::StringRef"* %0, %"class.llvm::StringRef"** %3, align 8
  store %"class.std::__cxx11::basic_string"* %1, %"class.std::__cxx11::basic_string"** %4, align 8
  %5 = load %"class.llvm::StringRef"*, %"class.llvm::StringRef"** %3, align 8
  %6 = getelementptr inbounds %"class.llvm::StringRef", %"class.llvm::StringRef"* %5, i32 0, i32 0
  %7 = load %"class.std::__cxx11::basic_string"*, %"class.std::__cxx11::basic_string"** %4, align 8
  %8 = call i8* @_ZNKSt7__cxx1112basic_stringIcSt11char_traitsIcESaIcEE4dataEv(%"class.std::__cxx11::basic_string"* nonnull align 8 dereferenceable(32) %7) #2
  store i8* %8, i8** %6, align 8
  %9 = getelementptr inbounds %"class.llvm::StringRef", %"class.llvm::StringRef"* %5, i32 0, i32 1
  %10 = load %"class.std::__cxx11::basic_string"*, %"class.std::__cxx11::basic_string"** %4, align 8
  %11 = call i64 @_ZNKSt7__cxx1112basic_stringIcSt11char_traitsIcESaIcEE6lengthEv(%"class.std::__cxx11::basic_string"* nonnull align 8 dereferenceable(32) %10) #2
  store i64 %11, i64* %9, align 8
  ret void
}

; Function Attrs: mustprogress noinline optnone uwtable
define internal i64 @_ZNSt3mapINSt7__cxx1112basic_stringIcSt11char_traitsIcESaIcEEESt10unique_ptrIN12_GLOBAL__N_112PrototypeASTESt14default_deleteIS8_EESt4lessIS5_ESaISt4pairIKS5_SB_EEE4findERSF_(%"class.std::map.104"* nonnull align 8 dereferenceable(48) %0, %"class.std::__cxx11::basic_string"* nonnull align 8 dereferenceable(32) %1) #6 align 2 {
  %3 = alloca %"struct.std::_Rb_tree_iterator", align 8
  %4 = alloca %"class.std::map.104"*, align 8
  %5 = alloca %"class.std::__cxx11::basic_string"*, align 8
  store %"class.std::map.104"* %0, %"class.std::map.104"** %4, align 8
  store %"class.std::__cxx11::basic_string"* %1, %"class.std::__cxx11::basic_string"** %5, align 8
  %6 = load %"class.std::map.104"*, %"class.std::map.104"** %4, align 8
  %7 = getelementptr inbounds %"class.std::map.104", %"class.std::map.104"* %6, i32 0, i32 0
  %8 = load %"class.std::__cxx11::basic_string"*, %"class.std::__cxx11::basic_string"** %5, align 8
  %9 = call i64 @_ZNSt8_Rb_treeINSt7__cxx1112basic_stringIcSt11char_traitsIcESaIcEEESt4pairIKS5_St10unique_ptrIN12_GLOBAL__N_112PrototypeASTESt14default_deleteISA_EEESt10_Select1stISE_ESt4lessIS5_ESaISE_EE4findERS7_(%"class.std::_Rb_tree.105"* nonnull align 8 dereferenceable(48) %7, %"class.std::__cxx11::basic_string"* nonnull align 8 dereferenceable(32) %8)
  %10 = getelementptr inbounds %"struct.std::_Rb_tree_iterator", %"struct.std::_Rb_tree_iterator"* %3, i32 0, i32 0
  %11 = inttoptr i64 %9 to %"struct.std::_Rb_tree_node_base"*
  store %"struct.std::_Rb_tree_node_base"* %11, %"struct.std::_Rb_tree_node_base"** %10, align 8
  %12 = getelementptr inbounds %"struct.std::_Rb_tree_iterator", %"struct.std::_Rb_tree_iterator"* %3, i32 0, i32 0
  %13 = load %"struct.std::_Rb_tree_node_base"*, %"struct.std::_Rb_tree_node_base"** %12, align 8
  %14 = ptrtoint %"struct.std::_Rb_tree_node_base"* %13 to i64
  ret i64 %14
}

; Function Attrs: mustprogress noinline nounwind optnone uwtable
define internal zeroext i1 @_ZStneRKSt17_Rb_tree_iteratorISt4pairIKNSt7__cxx1112basic_stringIcSt11char_traitsIcESaIcEEESt10unique_ptrIN12_GLOBAL__N_112PrototypeASTESt14default_deleteISA_EEEESH_(%"struct.std::_Rb_tree_iterator"* nonnull align 8 dereferenceable(8) %0, %"struct.std::_Rb_tree_iterator"* nonnull align 8 dereferenceable(8) %1) #7 {
  %3 = alloca %"struct.std::_Rb_tree_iterator"*, align 8
  %4 = alloca %"struct.std::_Rb_tree_iterator"*, align 8
  store %"struct.std::_Rb_tree_iterator"* %0, %"struct.std::_Rb_tree_iterator"** %3, align 8
  store %"struct.std::_Rb_tree_iterator"* %1, %"struct.std::_Rb_tree_iterator"** %4, align 8
  %5 = load %"struct.std::_Rb_tree_iterator"*, %"struct.std::_Rb_tree_iterator"** %3, align 8
  %6 = getelementptr inbounds %"struct.std::_Rb_tree_iterator", %"struct.std::_Rb_tree_iterator"* %5, i32 0, i32 0
  %7 = load %"struct.std::_Rb_tree_node_base"*, %"struct.std::_Rb_tree_node_base"** %6, align 8
  %8 = load %"struct.std::_Rb_tree_iterator"*, %"struct.std::_Rb_tree_iterator"** %4, align 8
  %9 = getelementptr inbounds %"struct.std::_Rb_tree_iterator", %"struct.std::_Rb_tree_iterator"* %8, i32 0, i32 0
  %10 = load %"struct.std::_Rb_tree_node_base"*, %"struct.std::_Rb_tree_node_base"** %9, align 8
  %11 = icmp ne %"struct.std::_Rb_tree_node_base"* %7, %10
  ret i1 %11
}

; Function Attrs: mustprogress noinline nounwind optnone uwtable
define internal i64 @_ZNSt3mapINSt7__cxx1112basic_stringIcSt11char_traitsIcESaIcEEESt10unique_ptrIN12_GLOBAL__N_112PrototypeASTESt14default_deleteIS8_EESt4lessIS5_ESaISt4pairIKS5_SB_EEE3endEv(%"class.std::map.104"* nonnull align 8 dereferenceable(48) %0) #7 align 2 {
  %2 = alloca %"struct.std::_Rb_tree_iterator", align 8
  %3 = alloca %"class.std::map.104"*, align 8
  store %"class.std::map.104"* %0, %"class.std::map.104"** %3, align 8
  %4 = load %"class.std::map.104"*, %"class.std::map.104"** %3, align 8
  %5 = getelementptr inbounds %"class.std::map.104", %"class.std::map.104"* %4, i32 0, i32 0
  %6 = call i64 @_ZNSt8_Rb_treeINSt7__cxx1112basic_stringIcSt11char_traitsIcESaIcEEESt4pairIKS5_St10unique_ptrIN12_GLOBAL__N_112PrototypeASTESt14default_deleteISA_EEESt10_Select1stISE_ESt4lessIS5_ESaISE_EE3endEv(%"class.std::_Rb_tree.105"* nonnull align 8 dereferenceable(48) %5) #2
  %7 = getelementptr inbounds %"struct.std::_Rb_tree_iterator", %"struct.std::_Rb_tree_iterator"* %2, i32 0, i32 0
  %8 = inttoptr i64 %6 to %"struct.std::_Rb_tree_node_base"*
  store %"struct.std::_Rb_tree_node_base"* %8, %"struct.std::_Rb_tree_node_base"** %7, align 8
  %9 = getelementptr inbounds %"struct.std::_Rb_tree_iterator", %"struct.std::_Rb_tree_iterator"* %2, i32 0, i32 0
  %10 = load %"struct.std::_Rb_tree_node_base"*, %"struct.std::_Rb_tree_node_base"** %9, align 8
  %11 = ptrtoint %"struct.std::_Rb_tree_node_base"* %10 to i64
  ret i64 %11
}

; Function Attrs: mustprogress noinline nounwind optnone uwtable
define internal %"struct.std::pair"* @_ZNKSt17_Rb_tree_iteratorISt4pairIKNSt7__cxx1112basic_stringIcSt11char_traitsIcESaIcEEESt10unique_ptrIN12_GLOBAL__N_112PrototypeASTESt14default_deleteISA_EEEEptEv(%"struct.std::_Rb_tree_iterator"* nonnull align 8 dereferenceable(8) %0) #7 align 2 {
  %2 = alloca %"struct.std::_Rb_tree_iterator"*, align 8
  store %"struct.std::_Rb_tree_iterator"* %0, %"struct.std::_Rb_tree_iterator"** %2, align 8
  %3 = load %"struct.std::_Rb_tree_iterator"*, %"struct.std::_Rb_tree_iterator"** %2, align 8
  %4 = getelementptr inbounds %"struct.std::_Rb_tree_iterator", %"struct.std::_Rb_tree_iterator"* %3, i32 0, i32 0
  %5 = load %"struct.std::_Rb_tree_node_base"*, %"struct.std::_Rb_tree_node_base"** %4, align 8
  %6 = bitcast %"struct.std::_Rb_tree_node_base"* %5 to %"struct.std::_Rb_tree_node.261"*
  %7 = call %"struct.std::pair"* @_ZNSt13_Rb_tree_nodeISt4pairIKNSt7__cxx1112basic_stringIcSt11char_traitsIcESaIcEEESt10unique_ptrIN12_GLOBAL__N_112PrototypeASTESt14default_deleteISA_EEEE9_M_valptrEv(%"struct.std::_Rb_tree_node.261"* nonnull align 8 dereferenceable(72) %6)
  ret %"struct.std::pair"* %7
}

; Function Attrs: mustprogress noinline nounwind optnone uwtable
define internal %"class.(anonymous namespace)::PrototypeAST"* @_ZNKSt10unique_ptrIN12_GLOBAL__N_112PrototypeASTESt14default_deleteIS1_EEptEv(%"class.std::unique_ptr.125"* nonnull align 8 dereferenceable(8) %0) #7 align 2 {
  %2 = alloca %"class.std::unique_ptr.125"*, align 8
  store %"class.std::unique_ptr.125"* %0, %"class.std::unique_ptr.125"** %2, align 8
  %3 = load %"class.std::unique_ptr.125"*, %"class.std::unique_ptr.125"** %2, align 8
  %4 = call %"class.(anonymous namespace)::PrototypeAST"* @_ZNKSt10unique_ptrIN12_GLOBAL__N_112PrototypeASTESt14default_deleteIS1_EE3getEv(%"class.std::unique_ptr.125"* nonnull align 8 dereferenceable(8) %3) #2
  ret %"class.(anonymous namespace)::PrototypeAST"* %4
}

; Function Attrs: mustprogress noinline optnone uwtable
define internal %"class.llvm::Function"* @_ZN12_GLOBAL__N_112PrototypeAST7codegenEv(%"class.(anonymous namespace)::PrototypeAST"* nonnull align 8 dereferenceable(64) %0) #6 align 2 personality i8* bitcast (i32 (...)* @__gxx_personality_seh0 to i8*) {
  %2 = alloca %"class.(anonymous namespace)::PrototypeAST"*, align 8
  %3 = alloca %"class.std::vector.265", align 8
  %4 = alloca %"class.llvm::Type"*, align 8
  %5 = alloca %"class.std::allocator.267", align 1
  %6 = alloca i8*, align 8
  %7 = alloca i32, align 4
  %8 = alloca %"class.llvm::FunctionType"*, align 8
  %9 = alloca %"class.llvm::ArrayRef.270", align 8
  %10 = alloca %"class.llvm::Function"*, align 8
  %11 = alloca %"class.llvm::Twine", align 8
  %12 = alloca i32, align 4
  %13 = alloca %"class.llvm::iterator_range"*, align 8
  %14 = alloca %"class.llvm::iterator_range", align 8
  %15 = alloca %"class.llvm::Argument"*, align 8
  %16 = alloca %"class.llvm::Argument"*, align 8
  %17 = alloca %"class.llvm::Argument"*, align 8
  %18 = alloca %"class.llvm::Twine", align 8
  store %"class.(anonymous namespace)::PrototypeAST"* %0, %"class.(anonymous namespace)::PrototypeAST"** %2, align 8
  %19 = load %"class.(anonymous namespace)::PrototypeAST"*, %"class.(anonymous namespace)::PrototypeAST"** %2, align 8
  %20 = getelementptr inbounds %"class.(anonymous namespace)::PrototypeAST", %"class.(anonymous namespace)::PrototypeAST"* %19, i32 0, i32 1
  %21 = call i64 @_ZNKSt6vectorINSt7__cxx1112basic_stringIcSt11char_traitsIcESaIcEEESaIS5_EE4sizeEv(%"class.std::vector"* nonnull align 8 dereferenceable(24) %20) #2
  %22 = call nonnull align 8 dereferenceable(8) %"class.llvm::LLVMContext"* @_ZNKSt10unique_ptrIN4llvm11LLVMContextESt14default_deleteIS1_EEdeEv(%"class.std::unique_ptr"* nonnull align 8 dereferenceable(8) bitcast ({ { { %"class.llvm::LLVMContext"* } } }* @_ZL10TheContext to %"class.std::unique_ptr"*))
  %23 = call %"class.llvm::Type"* @_ZN4llvm4Type11getDoubleTyERNS_11LLVMContextE(%"class.llvm::LLVMContext"* nonnull align 8 dereferenceable(8) %22)
  store %"class.llvm::Type"* %23, %"class.llvm::Type"** %4, align 8
  call void @_ZNSaIPN4llvm4TypeEEC2Ev(%"class.std::allocator.267"* nonnull align 1 dereferenceable(1) %5) #2
  invoke void @_ZNSt6vectorIPN4llvm4TypeESaIS2_EEC2EyRKS2_RKS3_(%"class.std::vector.265"* nonnull align 8 dereferenceable(24) %3, i64 %21, %"class.llvm::Type"** nonnull align 8 dereferenceable(8) %4, %"class.std::allocator.267"* nonnull align 1 dereferenceable(1) %5)
          to label %24 unwind label %64

24:                                               ; preds = %1
  call void @_ZNSaIPN4llvm4TypeEED2Ev(%"class.std::allocator.267"* nonnull align 1 dereferenceable(1) %5) #2
  %25 = invoke nonnull align 8 dereferenceable(8) %"class.llvm::LLVMContext"* @_ZNKSt10unique_ptrIN4llvm11LLVMContextESt14default_deleteIS1_EEdeEv(%"class.std::unique_ptr"* nonnull align 8 dereferenceable(8) bitcast ({ { { %"class.llvm::LLVMContext"* } } }* @_ZL10TheContext to %"class.std::unique_ptr"*))
          to label %26 unwind label %68

26:                                               ; preds = %24
  %27 = invoke %"class.llvm::Type"* @_ZN4llvm4Type11getDoubleTyERNS_11LLVMContextE(%"class.llvm::LLVMContext"* nonnull align 8 dereferenceable(8) %25)
          to label %28 unwind label %68

28:                                               ; preds = %26
  invoke void @_ZN4llvm8ArrayRefIPNS_4TypeEEC2ISaIS2_EEERKSt6vectorIS2_T_E(%"class.llvm::ArrayRef.270"* nonnull align 8 dereferenceable(16) %9, %"class.std::vector.265"* nonnull align 8 dereferenceable(24) %3)
          to label %29 unwind label %68

29:                                               ; preds = %28
  %30 = invoke %"class.llvm::FunctionType"* @_ZN4llvm12FunctionType3getEPNS_4TypeENS_8ArrayRefIS2_EEb(%"class.llvm::Type"* %27, %"class.llvm::ArrayRef.270"* %9, i1 zeroext false)
          to label %31 unwind label %68

31:                                               ; preds = %29
  store %"class.llvm::FunctionType"* %30, %"class.llvm::FunctionType"** %8, align 8
  %32 = load %"class.llvm::FunctionType"*, %"class.llvm::FunctionType"** %8, align 8
  %33 = getelementptr inbounds %"class.(anonymous namespace)::PrototypeAST", %"class.(anonymous namespace)::PrototypeAST"* %19, i32 0, i32 0
  invoke void @_ZN4llvm5TwineC2ERKNSt7__cxx1112basic_stringIcSt11char_traitsIcESaIcEEE(%"class.llvm::Twine"* nonnull align 8 dereferenceable(34) %11, %"class.std::__cxx11::basic_string"* nonnull align 8 dereferenceable(32) %33)
          to label %34 unwind label %68

34:                                               ; preds = %31
  %35 = call %"class.llvm::Module"* @_ZNKSt10unique_ptrIN4llvm6ModuleESt14default_deleteIS1_EE3getEv(%"class.std::unique_ptr.87"* nonnull align 8 dereferenceable(8) bitcast ({ { { %"class.llvm::Module"* } } }* @_ZL9TheModule to %"class.std::unique_ptr.87"*)) #2
  %36 = invoke %"class.llvm::Function"* @_ZN4llvm8Function6CreateEPNS_12FunctionTypeENS_11GlobalValue12LinkageTypesERKNS_5TwineEPNS_6ModuleE(%"class.llvm::FunctionType"* %32, i32 0, %"class.llvm::Twine"* nonnull align 8 dereferenceable(34) %11, %"class.llvm::Module"* %35)
          to label %37 unwind label %68

37:                                               ; preds = %34
  store %"class.llvm::Function"* %36, %"class.llvm::Function"** %10, align 8
  store i32 0, i32* %12, align 4
  %38 = load %"class.llvm::Function"*, %"class.llvm::Function"** %10, align 8
  invoke void @_ZN4llvm8Function4argsEv(%"class.llvm::iterator_range"* sret(%"class.llvm::iterator_range") align 8 %14, %"class.llvm::Function"* nonnull align 8 dereferenceable(120) %38)
          to label %39 unwind label %68

39:                                               ; preds = %37
  store %"class.llvm::iterator_range"* %14, %"class.llvm::iterator_range"** %13, align 8
  %40 = load %"class.llvm::iterator_range"*, %"class.llvm::iterator_range"** %13, align 8
  %41 = invoke %"class.llvm::Argument"* @_ZNK4llvm14iterator_rangeIPNS_8ArgumentEE5beginEv(%"class.llvm::iterator_range"* nonnull align 8 dereferenceable(16) %40)
          to label %42 unwind label %68

42:                                               ; preds = %39
  store %"class.llvm::Argument"* %41, %"class.llvm::Argument"** %15, align 8
  %43 = load %"class.llvm::iterator_range"*, %"class.llvm::iterator_range"** %13, align 8
  %44 = invoke %"class.llvm::Argument"* @_ZNK4llvm14iterator_rangeIPNS_8ArgumentEE3endEv(%"class.llvm::iterator_range"* nonnull align 8 dereferenceable(16) %43)
          to label %45 unwind label %68

45:                                               ; preds = %42
  store %"class.llvm::Argument"* %44, %"class.llvm::Argument"** %16, align 8
  br label %46

46:                                               ; preds = %61, %45
  %47 = load %"class.llvm::Argument"*, %"class.llvm::Argument"** %15, align 8
  %48 = load %"class.llvm::Argument"*, %"class.llvm::Argument"** %16, align 8
  %49 = icmp ne %"class.llvm::Argument"* %47, %48
  br i1 %49, label %50, label %72

50:                                               ; preds = %46
  %51 = load %"class.llvm::Argument"*, %"class.llvm::Argument"** %15, align 8
  store %"class.llvm::Argument"* %51, %"class.llvm::Argument"** %17, align 8
  %52 = load %"class.llvm::Argument"*, %"class.llvm::Argument"** %17, align 8
  %53 = bitcast %"class.llvm::Argument"* %52 to %"class.llvm::Value"*
  %54 = getelementptr inbounds %"class.(anonymous namespace)::PrototypeAST", %"class.(anonymous namespace)::PrototypeAST"* %19, i32 0, i32 1
  %55 = load i32, i32* %12, align 4
  %56 = add i32 %55, 1
  store i32 %56, i32* %12, align 4
  %57 = zext i32 %55 to i64
  %58 = call nonnull align 8 dereferenceable(32) %"class.std::__cxx11::basic_string"* @_ZNSt6vectorINSt7__cxx1112basic_stringIcSt11char_traitsIcESaIcEEESaIS5_EEixEy(%"class.std::vector"* nonnull align 8 dereferenceable(24) %54, i64 %57) #2
  invoke void @_ZN4llvm5TwineC2ERKNSt7__cxx1112basic_stringIcSt11char_traitsIcESaIcEEE(%"class.llvm::Twine"* nonnull align 8 dereferenceable(34) %18, %"class.std::__cxx11::basic_string"* nonnull align 8 dereferenceable(32) %58)
          to label %59 unwind label %68

59:                                               ; preds = %50
  invoke void @_ZN4llvm5Value7setNameERKNS_5TwineE(%"class.llvm::Value"* nonnull align 8 dereferenceable(24) %53, %"class.llvm::Twine"* nonnull align 8 dereferenceable(34) %18)
          to label %60 unwind label %68

60:                                               ; preds = %59
  br label %61

61:                                               ; preds = %60
  %62 = load %"class.llvm::Argument"*, %"class.llvm::Argument"** %15, align 8
  %63 = getelementptr inbounds %"class.llvm::Argument", %"class.llvm::Argument"* %62, i32 1
  store %"class.llvm::Argument"* %63, %"class.llvm::Argument"** %15, align 8
  br label %46

64:                                               ; preds = %1
  %65 = landingpad { i8*, i32 }
          cleanup
  %66 = extractvalue { i8*, i32 } %65, 0
  store i8* %66, i8** %6, align 8
  %67 = extractvalue { i8*, i32 } %65, 1
  store i32 %67, i32* %7, align 4
  call void @_ZNSaIPN4llvm4TypeEED2Ev(%"class.std::allocator.267"* nonnull align 1 dereferenceable(1) %5) #2
  br label %74

68:                                               ; preds = %59, %50, %42, %39, %37, %34, %31, %29, %28, %26, %24
  %69 = landingpad { i8*, i32 }
          cleanup
  %70 = extractvalue { i8*, i32 } %69, 0
  store i8* %70, i8** %6, align 8
  %71 = extractvalue { i8*, i32 } %69, 1
  store i32 %71, i32* %7, align 4
  call void @_ZNSt6vectorIPN4llvm4TypeESaIS2_EED2Ev(%"class.std::vector.265"* nonnull align 8 dereferenceable(24) %3) #2
  br label %74

72:                                               ; preds = %46
  %73 = load %"class.llvm::Function"*, %"class.llvm::Function"** %10, align 8
  call void @_ZNSt6vectorIPN4llvm4TypeESaIS2_EED2Ev(%"class.std::vector.265"* nonnull align 8 dereferenceable(24) %3) #2
  ret %"class.llvm::Function"* %73

74:                                               ; preds = %68, %64
  %75 = load i8*, i8** %6, align 8
  %76 = load i32, i32* %7, align 4
  %77 = insertvalue { i8*, i32 } undef, i8* %75, 0
  %78 = insertvalue { i8*, i32 } %77, i32 %76, 1
  resume { i8*, i32 } %78
}

; Function Attrs: mustprogress noinline optnone uwtable
define dso_local dllexport double @putchard(double %0) #6 {
  %2 = alloca double, align 8
  store double %0, double* %2, align 8
  %3 = load double, double* %2, align 8
  %4 = fptosi double %3 to i8
  %5 = sext i8 %4 to i32
  %6 = call %struct._iobuf* @__acrt_iob_func(i32 2)
  %7 = call i32 @fputc(i32 %5, %struct._iobuf* %6)
  ret double 0.000000e+00
}

declare dso_local i32 @fputc(i32, %struct._iobuf*) #4

declare dllimport %struct._iobuf* @__acrt_iob_func(i32) #4

; Function Attrs: mustprogress noinline optnone uwtable
define dso_local dllexport double @printd(double %0) #6 {
  %2 = alloca double, align 8
  store double %0, double* %2, align 8
  %3 = call %struct._iobuf* @__acrt_iob_func(i32 2)
  %4 = load double, double* %2, align 8
  %5 = call i32 (%struct._iobuf*, i8*, ...) @_ZL7fprintfP6_iobufPKcz(%struct._iobuf* %3, i8* getelementptr inbounds ([4 x i8], [4 x i8]* @.str.8, i64 0, i64 0), double %4)
  ret double 0.000000e+00
}

; Function Attrs: mustprogress noinline nounwind optnone uwtable
define internal i32 @_ZL7fprintfP6_iobufPKcz(%struct._iobuf* %0, i8* nonnull %1, ...) #7 {
  %3 = alloca %struct._iobuf*, align 8
  %4 = alloca i8*, align 8
  %5 = alloca i32, align 4
  %6 = alloca i8*, align 8
  store %struct._iobuf* %0, %struct._iobuf** %3, align 8
  store i8* %1, i8** %4, align 8
  %7 = bitcast i8** %6 to i8*
  call void @llvm.va_start(i8* %7)
  %8 = load %struct._iobuf*, %struct._iobuf** %3, align 8
  %9 = load i8*, i8** %4, align 8
  %10 = load i8*, i8** %6, align 8
  %11 = call i32 @__mingw_vfprintf(%struct._iobuf* %8, i8* %9, i8* %10) #2
  store i32 %11, i32* %5, align 4
  %12 = bitcast i8** %6 to i8*
  call void @llvm.va_end(i8* %12)
  %13 = load i32, i32* %5, align 4
  ret i32 %13
}

; Function Attrs: mustprogress noinline norecurse optnone uwtable
define dso_local i32 @main() #8 personality i8* bitcast (i32 (...)* @__gxx_personality_seh0 to i8*) {
  %1 = alloca i32, align 4
  %2 = alloca i8, align 1
  %3 = alloca i8, align 1
  %4 = alloca i8, align 1
  %5 = alloca i8, align 1
  %6 = alloca %"class.std::__cxx11::basic_string", align 8
  %7 = alloca %"class.llvm::StringRef", align 8
  %8 = alloca i8*, align 8
  %9 = alloca i32, align 4
  %10 = alloca %"class.std::__cxx11::basic_string", align 8
  %11 = alloca %"class.llvm::Target"*, align 8
  %12 = alloca i32, align 4
  %13 = alloca i8*, align 8
  %14 = alloca i8*, align 8
  %15 = alloca %"class.llvm::TargetOptions", align 8
  %16 = alloca %"class.llvm::Optional.244", align 4
  %17 = alloca %"class.llvm::TargetMachine"*, align 8
  %18 = alloca %"class.llvm::StringRef", align 8
  %19 = alloca %"class.llvm::StringRef", align 8
  %20 = alloca %"class.llvm::StringRef", align 8
  %21 = alloca %"class.llvm::Optional.244", align 4
  %22 = alloca %"class.llvm::Optional.247", align 4
  %23 = alloca %"class.llvm::DataLayout", align 8
  %24 = alloca i8*, align 8
  %25 = alloca %"class.std::error_code", align 8
  %26 = alloca %"class.llvm::raw_fd_ostream", align 8
  %27 = alloca %"class.llvm::StringRef", align 8
  %28 = alloca %"class.std::__cxx11::basic_string", align 8
  %29 = alloca %"class.llvm::legacy::PassManager", align 8
  %30 = alloca i32, align 4
  store i32 0, i32* %1, align 4
  store i8 60, i8* %2, align 1
  %31 = call nonnull align 4 dereferenceable(4) i32* @_ZNSt3mapIciSt4lessIcESaISt4pairIKciEEEixEOc(%"class.std::map"* nonnull align 8 dereferenceable(48) @_ZL15BinopPrecedence, i8* nonnull align 1 dereferenceable(1) %2)
  store i32 10, i32* %31, align 4
  store i8 43, i8* %3, align 1
  %32 = call nonnull align 4 dereferenceable(4) i32* @_ZNSt3mapIciSt4lessIcESaISt4pairIKciEEEixEOc(%"class.std::map"* nonnull align 8 dereferenceable(48) @_ZL15BinopPrecedence, i8* nonnull align 1 dereferenceable(1) %3)
  store i32 20, i32* %32, align 4
  store i8 45, i8* %4, align 1
  %33 = call nonnull align 4 dereferenceable(4) i32* @_ZNSt3mapIciSt4lessIcESaISt4pairIKciEEEixEOc(%"class.std::map"* nonnull align 8 dereferenceable(48) @_ZL15BinopPrecedence, i8* nonnull align 1 dereferenceable(1) %4)
  store i32 20, i32* %33, align 4
  store i8 42, i8* %5, align 1
  %34 = call nonnull align 4 dereferenceable(4) i32* @_ZNSt3mapIciSt4lessIcESaISt4pairIKciEEEixEOc(%"class.std::map"* nonnull align 8 dereferenceable(48) @_ZL15BinopPrecedence, i8* nonnull align 1 dereferenceable(1) %5)
  store i32 40, i32* %34, align 4
  %35 = call %struct._iobuf* @__acrt_iob_func(i32 2)
  %36 = call i32 (%struct._iobuf*, i8*, ...) @_ZL7fprintfP6_iobufPKcz(%struct._iobuf* %35, i8* getelementptr inbounds ([8 x i8], [8 x i8]* @.str.9, i64 0, i64 0))
  %37 = call i32 @_ZL12getNextTokenv()
  call void @_ZL30InitializeModuleAndPassManagerv()
  call void @_ZL8MainLoopv()
  call void @_ZN4llvm24InitializeAllTargetInfosEv()
  call void @_ZN4llvm20InitializeAllTargetsEv()
  call void @_ZN4llvm22InitializeAllTargetMCsEv()
  call void @_ZN4llvm23InitializeAllAsmParsersEv()
  call void @_ZN4llvm24InitializeAllAsmPrintersEv()
  call void @_ZN4llvm3sys22getDefaultTargetTripleB5cxx11Ev(%"class.std::__cxx11::basic_string"* sret(%"class.std::__cxx11::basic_string") align 8 %6)
  %38 = call %"class.llvm::Module"* @_ZNKSt10unique_ptrIN4llvm6ModuleESt14default_deleteIS1_EEptEv(%"class.std::unique_ptr.87"* nonnull align 8 dereferenceable(8) bitcast ({ { { %"class.llvm::Module"* } } }* @_ZL9TheModule to %"class.std::unique_ptr.87"*)) #2
  invoke void @_ZN4llvm9StringRefC2ERKNSt7__cxx1112basic_stringIcSt11char_traitsIcESaIcEEE(%"class.llvm::StringRef"* nonnull align 8 dereferenceable(16) %7, %"class.std::__cxx11::basic_string"* nonnull align 8 dereferenceable(32) %6)
          to label %39 unwind label %51

39:                                               ; preds = %0
  invoke void @_ZN4llvm6Module15setTargetTripleENS_9StringRefE(%"class.llvm::Module"* nonnull align 8 dereferenceable(800) %38, %"class.llvm::StringRef"* %7)
          to label %40 unwind label %51

40:                                               ; preds = %39
  call void @_ZNSt7__cxx1112basic_stringIcSt11char_traitsIcESaIcEEC1Ev(%"class.std::__cxx11::basic_string"* nonnull align 8 dereferenceable(32) %10) #2
  %41 = invoke %"class.llvm::Target"* @_ZN4llvm14TargetRegistry12lookupTargetERKNSt7__cxx1112basic_stringIcSt11char_traitsIcESaIcEEERS6_(%"class.std::__cxx11::basic_string"* nonnull align 8 dereferenceable(32) %6, %"class.std::__cxx11::basic_string"* nonnull align 8 dereferenceable(32) %10)
          to label %42 unwind label %55

42:                                               ; preds = %40
  store %"class.llvm::Target"* %41, %"class.llvm::Target"** %11, align 8
  %43 = load %"class.llvm::Target"*, %"class.llvm::Target"** %11, align 8
  %44 = icmp ne %"class.llvm::Target"* %43, null
  br i1 %44, label %59, label %45

45:                                               ; preds = %42
  %46 = invoke nonnull align 8 dereferenceable(96) %"class.llvm::raw_fd_ostream"* @_ZN4llvm4errsEv()
          to label %47 unwind label %55

47:                                               ; preds = %45
  %48 = bitcast %"class.llvm::raw_fd_ostream"* %46 to %"class.llvm::raw_ostream"*
  %49 = invoke nonnull align 8 dereferenceable(60) %"class.llvm::raw_ostream"* @_ZN4llvm11raw_ostreamlsERKNSt7__cxx1112basic_stringIcSt11char_traitsIcESaIcEEE(%"class.llvm::raw_ostream"* nonnull align 8 dereferenceable(60) %48, %"class.std::__cxx11::basic_string"* nonnull align 8 dereferenceable(32) %10)
          to label %50 unwind label %55

50:                                               ; preds = %47
  store i32 1, i32* %1, align 4
  store i32 1, i32* %12, align 4
  br label %155

51:                                               ; preds = %39, %0
  %52 = landingpad { i8*, i32 }
          cleanup
  %53 = extractvalue { i8*, i32 } %52, 0
  store i8* %53, i8** %8, align 8
  %54 = extractvalue { i8*, i32 } %52, 1
  store i32 %54, i32* %9, align 4
  br label %158

55:                                               ; preds = %59, %47, %45, %40
  %56 = landingpad { i8*, i32 }
          cleanup
  %57 = extractvalue { i8*, i32 } %56, 0
  store i8* %57, i8** %8, align 8
  %58 = extractvalue { i8*, i32 } %56, 1
  store i32 %58, i32* %9, align 4
  br label %157

59:                                               ; preds = %42
  store i8* getelementptr inbounds ([8 x i8], [8 x i8]* @.str.10, i64 0, i64 0), i8** %13, align 8
  store i8* getelementptr inbounds ([1 x i8], [1 x i8]* @.str, i64 0, i64 0), i8** %14, align 8
  invoke void @_ZN4llvm13TargetOptionsC2Ev(%"class.llvm::TargetOptions"* nonnull align 8 dereferenceable(272) %15)
          to label %60 unwind label %55

60:                                               ; preds = %59
  invoke void @_ZN4llvm8OptionalINS_5Reloc5ModelEEC2Ev(%"class.llvm::Optional.244"* nonnull align 4 dereferenceable(8) %16)
          to label %61 unwind label %96

61:                                               ; preds = %60
  %62 = load %"class.llvm::Target"*, %"class.llvm::Target"** %11, align 8
  invoke void @_ZN4llvm9StringRefC2ERKNSt7__cxx1112basic_stringIcSt11char_traitsIcESaIcEEE(%"class.llvm::StringRef"* nonnull align 8 dereferenceable(16) %18, %"class.std::__cxx11::basic_string"* nonnull align 8 dereferenceable(32) %6)
          to label %63 unwind label %96

63:                                               ; preds = %61
  %64 = load i8*, i8** %13, align 8
  invoke void @_ZN4llvm9StringRefC2EPKc(%"class.llvm::StringRef"* nonnull align 8 dereferenceable(16) %19, i8* %64)
          to label %65 unwind label %96

65:                                               ; preds = %63
  %66 = load i8*, i8** %14, align 8
  invoke void @_ZN4llvm9StringRefC2EPKc(%"class.llvm::StringRef"* nonnull align 8 dereferenceable(16) %20, i8* %66)
          to label %67 unwind label %96

67:                                               ; preds = %65
  %68 = bitcast %"class.llvm::Optional.244"* %21 to i8*
  %69 = bitcast %"class.llvm::Optional.244"* %16 to i8*
  call void @llvm.memcpy.p0i8.p0i8.i64(i8* align 4 %68, i8* align 4 %69, i64 8, i1 false)
  invoke void @_ZN4llvm8OptionalINS_9CodeModel5ModelEEC2ENS_8NoneTypeE(%"class.llvm::Optional.247"* nonnull align 4 dereferenceable(8) %22, i32 1)
          to label %70 unwind label %96

70:                                               ; preds = %67
  %71 = getelementptr inbounds %"class.llvm::Optional.244", %"class.llvm::Optional.244"* %21, i32 0, i32 0
  %72 = bitcast %"class.llvm::optional_detail::OptionalStorage.245"* %71 to i64*
  %73 = load i64, i64* %72, align 4
  %74 = getelementptr inbounds %"class.llvm::Optional.247", %"class.llvm::Optional.247"* %22, i32 0, i32 0
  %75 = bitcast %"class.llvm::optional_detail::OptionalStorage.248"* %74 to i64*
  %76 = load i64, i64* %75, align 4
  %77 = invoke %"class.llvm::TargetMachine"* @_ZNK4llvm6Target19createTargetMachineENS_9StringRefES1_S1_RKNS_13TargetOptionsENS_8OptionalINS_5Reloc5ModelEEENS5_INS_9CodeModel5ModelEEENS_10CodeGenOpt5LevelEb(%"class.llvm::Target"* nonnull align 8 dereferenceable(232) %62, %"class.llvm::StringRef"* %18, %"class.llvm::StringRef"* %19, %"class.llvm::StringRef"* %20, %"class.llvm::TargetOptions"* nonnull align 8 dereferenceable(272) %15, i64 %73, i64 %76, i32 2, i1 zeroext false)
          to label %78 unwind label %96

78:                                               ; preds = %70
  store %"class.llvm::TargetMachine"* %77, %"class.llvm::TargetMachine"** %17, align 8
  %79 = call %"class.llvm::Module"* @_ZNKSt10unique_ptrIN4llvm6ModuleESt14default_deleteIS1_EEptEv(%"class.std::unique_ptr.87"* nonnull align 8 dereferenceable(8) bitcast ({ { { %"class.llvm::Module"* } } }* @_ZL9TheModule to %"class.std::unique_ptr.87"*)) #2
  %80 = load %"class.llvm::TargetMachine"*, %"class.llvm::TargetMachine"** %17, align 8
  invoke void @_ZNK4llvm13TargetMachine16createDataLayoutEv(%"class.llvm::DataLayout"* sret(%"class.llvm::DataLayout") align 8 %23, %"class.llvm::TargetMachine"* nonnull align 8 dereferenceable(1176) %80)
          to label %81 unwind label %96

81:                                               ; preds = %78
  invoke void @_ZN4llvm6Module13setDataLayoutERKNS_10DataLayoutE(%"class.llvm::Module"* nonnull align 8 dereferenceable(800) %79, %"class.llvm::DataLayout"* nonnull align 8 dereferenceable(440) %23)
          to label %82 unwind label %100

82:                                               ; preds = %81
  call void @_ZN4llvm10DataLayoutD1Ev(%"class.llvm::DataLayout"* nonnull align 8 dereferenceable(440) %23) #2
  store i8* getelementptr inbounds ([9 x i8], [9 x i8]* @.str.11, i64 0, i64 0), i8** %24, align 8
  call void @_ZNSt10error_codeC2Ev(%"class.std::error_code"* nonnull align 8 dereferenceable(16) %25) #2
  %83 = load i8*, i8** %24, align 8
  invoke void @_ZN4llvm9StringRefC2EPKc(%"class.llvm::StringRef"* nonnull align 8 dereferenceable(16) %27, i8* %83)
          to label %84 unwind label %96

84:                                               ; preds = %82
  invoke void @_ZN4llvm14raw_fd_ostreamC1ENS_9StringRefERSt10error_codeNS_3sys2fs9OpenFlagsE(%"class.llvm::raw_fd_ostream"* nonnull align 8 dereferenceable(96) %26, %"class.llvm::StringRef"* %27, %"class.std::error_code"* nonnull align 8 dereferenceable(16) %25, i32 0)
          to label %85 unwind label %96

85:                                               ; preds = %84
  %86 = call zeroext i1 @_ZNKSt10error_codecvbEv(%"class.std::error_code"* nonnull align 8 dereferenceable(16) %25) #2
  br i1 %86, label %87, label %112

87:                                               ; preds = %85
  %88 = invoke nonnull align 8 dereferenceable(96) %"class.llvm::raw_fd_ostream"* @_ZN4llvm4errsEv()
          to label %89 unwind label %104

89:                                               ; preds = %87
  %90 = bitcast %"class.llvm::raw_fd_ostream"* %88 to %"class.llvm::raw_ostream"*
  %91 = invoke nonnull align 8 dereferenceable(60) %"class.llvm::raw_ostream"* @_ZN4llvm11raw_ostreamlsEPKc(%"class.llvm::raw_ostream"* nonnull align 8 dereferenceable(60) %90, i8* getelementptr inbounds ([22 x i8], [22 x i8]* @.str.12, i64 0, i64 0))
          to label %92 unwind label %104

92:                                               ; preds = %89
  invoke void @_ZNKSt10error_code7messageB5cxx11Ev(%"class.std::__cxx11::basic_string"* sret(%"class.std::__cxx11::basic_string") align 8 %28, %"class.std::error_code"* nonnull align 8 dereferenceable(16) %25)
          to label %93 unwind label %104

93:                                               ; preds = %92
  %94 = invoke nonnull align 8 dereferenceable(60) %"class.llvm::raw_ostream"* @_ZN4llvm11raw_ostreamlsERKNSt7__cxx1112basic_stringIcSt11char_traitsIcESaIcEEE(%"class.llvm::raw_ostream"* nonnull align 8 dereferenceable(60) %91, %"class.std::__cxx11::basic_string"* nonnull align 8 dereferenceable(32) %28)
          to label %95 unwind label %108

95:                                               ; preds = %93
  call void @_ZNSt7__cxx1112basic_stringIcSt11char_traitsIcESaIcEED1Ev(%"class.std::__cxx11::basic_string"* nonnull align 8 dereferenceable(32) %28) #2
  store i32 1, i32* %1, align 4
  store i32 1, i32* %12, align 4
  br label %152

96:                                               ; preds = %84, %82, %78, %70, %67, %65, %63, %61, %60
  %97 = landingpad { i8*, i32 }
          cleanup
  %98 = extractvalue { i8*, i32 } %97, 0
  store i8* %98, i8** %8, align 8
  %99 = extractvalue { i8*, i32 } %97, 1
  store i32 %99, i32* %9, align 4
  br label %154

100:                                              ; preds = %81
  %101 = landingpad { i8*, i32 }
          cleanup
  %102 = extractvalue { i8*, i32 } %101, 0
  store i8* %102, i8** %8, align 8
  %103 = extractvalue { i8*, i32 } %101, 1
  store i32 %103, i32* %9, align 4
  call void @_ZN4llvm10DataLayoutD1Ev(%"class.llvm::DataLayout"* nonnull align 8 dereferenceable(440) %23) #2
  br label %154

104:                                              ; preds = %112, %92, %89, %87
  %105 = landingpad { i8*, i32 }
          cleanup
  %106 = extractvalue { i8*, i32 } %105, 0
  store i8* %106, i8** %8, align 8
  %107 = extractvalue { i8*, i32 } %105, 1
  store i32 %107, i32* %9, align 4
  br label %153

108:                                              ; preds = %93
  %109 = landingpad { i8*, i32 }
          cleanup
  %110 = extractvalue { i8*, i32 } %109, 0
  store i8* %110, i8** %8, align 8
  %111 = extractvalue { i8*, i32 } %109, 1
  store i32 %111, i32* %9, align 4
  call void @_ZNSt7__cxx1112basic_stringIcSt11char_traitsIcESaIcEED1Ev(%"class.std::__cxx11::basic_string"* nonnull align 8 dereferenceable(32) %28) #2
  br label %153

112:                                              ; preds = %85
  invoke void @_ZN4llvm6legacy11PassManagerC1Ev(%"class.llvm::legacy::PassManager"* nonnull align 8 dereferenceable(16) %29)
          to label %113 unwind label %104

113:                                              ; preds = %112
  store i32 1, i32* %30, align 4
  %114 = load %"class.llvm::TargetMachine"*, %"class.llvm::TargetMachine"** %17, align 8
  %115 = bitcast %"class.llvm::legacy::PassManager"* %29 to %"class.llvm::legacy::PassManagerBase"*
  %116 = bitcast %"class.llvm::raw_fd_ostream"* %26 to %"class.llvm::raw_pwrite_stream"*
  %117 = load i32, i32* %30, align 4
  %118 = bitcast %"class.llvm::TargetMachine"* %114 to i1 (%"class.llvm::TargetMachine"*, %"class.llvm::legacy::PassManagerBase"*, %"class.llvm::raw_pwrite_stream"*, %"class.llvm::raw_pwrite_stream"*, i32, i1, %"class.llvm::MachineModuleInfoWrapperPass"*)***
  %119 = load i1 (%"class.llvm::TargetMachine"*, %"class.llvm::legacy::PassManagerBase"*, %"class.llvm::raw_pwrite_stream"*, %"class.llvm::raw_pwrite_stream"*, i32, i1, %"class.llvm::MachineModuleInfoWrapperPass"*)**, i1 (%"class.llvm::TargetMachine"*, %"class.llvm::legacy::PassManagerBase"*, %"class.llvm::raw_pwrite_stream"*, %"class.llvm::raw_pwrite_stream"*, i32, i1, %"class.llvm::MachineModuleInfoWrapperPass"*)*** %118, align 8
  %120 = getelementptr inbounds i1 (%"class.llvm::TargetMachine"*, %"class.llvm::legacy::PassManagerBase"*, %"class.llvm::raw_pwrite_stream"*, %"class.llvm::raw_pwrite_stream"*, i32, i1, %"class.llvm::MachineModuleInfoWrapperPass"*)*, i1 (%"class.llvm::TargetMachine"*, %"class.llvm::legacy::PassManagerBase"*, %"class.llvm::raw_pwrite_stream"*, %"class.llvm::raw_pwrite_stream"*, i32, i1, %"class.llvm::MachineModuleInfoWrapperPass"*)** %119, i64 14
  %121 = load i1 (%"class.llvm::TargetMachine"*, %"class.llvm::legacy::PassManagerBase"*, %"class.llvm::raw_pwrite_stream"*, %"class.llvm::raw_pwrite_stream"*, i32, i1, %"class.llvm::MachineModuleInfoWrapperPass"*)*, i1 (%"class.llvm::TargetMachine"*, %"class.llvm::legacy::PassManagerBase"*, %"class.llvm::raw_pwrite_stream"*, %"class.llvm::raw_pwrite_stream"*, i32, i1, %"class.llvm::MachineModuleInfoWrapperPass"*)** %120, align 8
  %122 = invoke zeroext i1 %121(%"class.llvm::TargetMachine"* nonnull align 8 dereferenceable(1176) %114, %"class.llvm::legacy::PassManagerBase"* nonnull align 8 dereferenceable(8) %115, %"class.llvm::raw_pwrite_stream"* nonnull align 8 dereferenceable(60) %116, %"class.llvm::raw_pwrite_stream"* null, i32 %117, i1 zeroext true, %"class.llvm::MachineModuleInfoWrapperPass"* null)
          to label %123 unwind label %130

123:                                              ; preds = %113
  br i1 %122, label %124, label %134

124:                                              ; preds = %123
  %125 = invoke nonnull align 8 dereferenceable(96) %"class.llvm::raw_fd_ostream"* @_ZN4llvm4errsEv()
          to label %126 unwind label %130

126:                                              ; preds = %124
  %127 = bitcast %"class.llvm::raw_fd_ostream"* %125 to %"class.llvm::raw_ostream"*
  %128 = invoke nonnull align 8 dereferenceable(60) %"class.llvm::raw_ostream"* @_ZN4llvm11raw_ostreamlsEPKc(%"class.llvm::raw_ostream"* nonnull align 8 dereferenceable(60) %127, i8* getelementptr inbounds ([48 x i8], [48 x i8]* @.str.13, i64 0, i64 0))
          to label %129 unwind label %130

129:                                              ; preds = %126
  store i32 1, i32* %1, align 4
  store i32 1, i32* %12, align 4
  br label %151

130:                                              ; preds = %148, %145, %142, %140, %138, %136, %134, %126, %124, %113
  %131 = landingpad { i8*, i32 }
          cleanup
  %132 = extractvalue { i8*, i32 } %131, 0
  store i8* %132, i8** %8, align 8
  %133 = extractvalue { i8*, i32 } %131, 1
  store i32 %133, i32* %9, align 4
  call void @_ZN4llvm6legacy11PassManagerD1Ev(%"class.llvm::legacy::PassManager"* nonnull align 8 dereferenceable(16) %29) #2
  br label %153

134:                                              ; preds = %123
  %135 = invoke nonnull align 8 dereferenceable(800) %"class.llvm::Module"* @_ZNKSt10unique_ptrIN4llvm6ModuleESt14default_deleteIS1_EEdeEv(%"class.std::unique_ptr.87"* nonnull align 8 dereferenceable(8) bitcast ({ { { %"class.llvm::Module"* } } }* @_ZL9TheModule to %"class.std::unique_ptr.87"*))
          to label %136 unwind label %130

136:                                              ; preds = %134
  %137 = invoke zeroext i1 @_ZN4llvm6legacy11PassManager3runERNS_6ModuleE(%"class.llvm::legacy::PassManager"* nonnull align 8 dereferenceable(16) %29, %"class.llvm::Module"* nonnull align 8 dereferenceable(800) %135)
          to label %138 unwind label %130

138:                                              ; preds = %136
  %139 = bitcast %"class.llvm::raw_fd_ostream"* %26 to %"class.llvm::raw_ostream"*
  invoke void @_ZN4llvm11raw_ostream5flushEv(%"class.llvm::raw_ostream"* nonnull align 8 dereferenceable(60) %139)
          to label %140 unwind label %130

140:                                              ; preds = %138
  %141 = invoke nonnull align 8 dereferenceable(96) %"class.llvm::raw_fd_ostream"* @_ZN4llvm4outsEv()
          to label %142 unwind label %130

142:                                              ; preds = %140
  %143 = bitcast %"class.llvm::raw_fd_ostream"* %141 to %"class.llvm::raw_ostream"*
  %144 = invoke nonnull align 8 dereferenceable(60) %"class.llvm::raw_ostream"* @_ZN4llvm11raw_ostreamlsEPKc(%"class.llvm::raw_ostream"* nonnull align 8 dereferenceable(60) %143, i8* getelementptr inbounds ([7 x i8], [7 x i8]* @.str.14, i64 0, i64 0))
          to label %145 unwind label %130

145:                                              ; preds = %142
  %146 = load i8*, i8** %24, align 8
  %147 = invoke nonnull align 8 dereferenceable(60) %"class.llvm::raw_ostream"* @_ZN4llvm11raw_ostreamlsEPKc(%"class.llvm::raw_ostream"* nonnull align 8 dereferenceable(60) %144, i8* %146)
          to label %148 unwind label %130

148:                                              ; preds = %145
  %149 = invoke nonnull align 8 dereferenceable(60) %"class.llvm::raw_ostream"* @_ZN4llvm11raw_ostreamlsEPKc(%"class.llvm::raw_ostream"* nonnull align 8 dereferenceable(60) %147, i8* getelementptr inbounds ([2 x i8], [2 x i8]* @.str.15, i64 0, i64 0))
          to label %150 unwind label %130

150:                                              ; preds = %148
  store i32 0, i32* %1, align 4
  store i32 1, i32* %12, align 4
  br label %151

151:                                              ; preds = %150, %129
  call void @_ZN4llvm6legacy11PassManagerD1Ev(%"class.llvm::legacy::PassManager"* nonnull align 8 dereferenceable(16) %29) #2
  br label %152

152:                                              ; preds = %151, %95
  call void @_ZN4llvm14raw_fd_ostreamD1Ev(%"class.llvm::raw_fd_ostream"* nonnull align 8 dereferenceable(96) %26) #2
  call void @_ZN4llvm13TargetOptionsD2Ev(%"class.llvm::TargetOptions"* nonnull align 8 dereferenceable(272) %15) #2
  br label %155

153:                                              ; preds = %130, %108, %104
  call void @_ZN4llvm14raw_fd_ostreamD1Ev(%"class.llvm::raw_fd_ostream"* nonnull align 8 dereferenceable(96) %26) #2
  br label %154

154:                                              ; preds = %153, %100, %96
  call void @_ZN4llvm13TargetOptionsD2Ev(%"class.llvm::TargetOptions"* nonnull align 8 dereferenceable(272) %15) #2
  br label %157

155:                                              ; preds = %152, %50
  call void @_ZNSt7__cxx1112basic_stringIcSt11char_traitsIcESaIcEED1Ev(%"class.std::__cxx11::basic_string"* nonnull align 8 dereferenceable(32) %10) #2
  call void @_ZNSt7__cxx1112basic_stringIcSt11char_traitsIcESaIcEED1Ev(%"class.std::__cxx11::basic_string"* nonnull align 8 dereferenceable(32) %6) #2
  %156 = load i32, i32* %1, align 4
  ret i32 %156

157:                                              ; preds = %154, %55
  call void @_ZNSt7__cxx1112basic_stringIcSt11char_traitsIcESaIcEED1Ev(%"class.std::__cxx11::basic_string"* nonnull align 8 dereferenceable(32) %10) #2
  br label %158

158:                                              ; preds = %157, %51
  call void @_ZNSt7__cxx1112basic_stringIcSt11char_traitsIcESaIcEED1Ev(%"class.std::__cxx11::basic_string"* nonnull align 8 dereferenceable(32) %6) #2
  br label %159

159:                                              ; preds = %158
  %160 = load i8*, i8** %8, align 8
  %161 = load i32, i32* %9, align 4
  %162 = insertvalue { i8*, i32 } undef, i8* %160, 0
  %163 = insertvalue { i8*, i32 } %162, i32 %161, 1
  resume { i8*, i32 } %163
}

; Function Attrs: mustprogress noinline optnone uwtable
define linkonce_odr dso_local nonnull align 4 dereferenceable(4) i32* @_ZNSt3mapIciSt4lessIcESaISt4pairIKciEEEixEOc(%"class.std::map"* nonnull align 8 dereferenceable(48) %0, i8* nonnull align 1 dereferenceable(1) %1) #6 comdat align 2 {
  %3 = alloca %"class.std::map"*, align 8
  %4 = alloca i8*, align 8
  %5 = alloca %"struct.std::_Rb_tree_iterator.442", align 8
  %6 = alloca %"struct.std::_Rb_tree_iterator.442", align 8
  %7 = alloca %"struct.std::less", align 1
  %8 = alloca %"struct.std::_Rb_tree_iterator.442", align 8
  %9 = alloca %"struct.std::_Rb_tree_const_iterator.443", align 8
  %10 = alloca %"class.std::tuple.446", align 8
  %11 = alloca %"class.std::tuple.324", align 1
  store %"class.std::map"* %0, %"class.std::map"** %3, align 8
  store i8* %1, i8** %4, align 8
  %12 = load %"class.std::map"*, %"class.std::map"** %3, align 8
  %13 = load i8*, i8** %4, align 8
  %14 = call i64 @_ZNSt3mapIciSt4lessIcESaISt4pairIKciEEE11lower_boundERS3_(%"class.std::map"* nonnull align 8 dereferenceable(48) %12, i8* nonnull align 1 dereferenceable(1) %13)
  %15 = getelementptr inbounds %"struct.std::_Rb_tree_iterator.442", %"struct.std::_Rb_tree_iterator.442"* %5, i32 0, i32 0
  %16 = inttoptr i64 %14 to %"struct.std::_Rb_tree_node_base"*
  store %"struct.std::_Rb_tree_node_base"* %16, %"struct.std::_Rb_tree_node_base"** %15, align 8
  %17 = call i64 @_ZNSt3mapIciSt4lessIcESaISt4pairIKciEEE3endEv(%"class.std::map"* nonnull align 8 dereferenceable(48) %12) #2
  %18 = getelementptr inbounds %"struct.std::_Rb_tree_iterator.442", %"struct.std::_Rb_tree_iterator.442"* %6, i32 0, i32 0
  %19 = inttoptr i64 %17 to %"struct.std::_Rb_tree_node_base"*
  store %"struct.std::_Rb_tree_node_base"* %19, %"struct.std::_Rb_tree_node_base"** %18, align 8
  %20 = call zeroext i1 @_ZSteqRKSt17_Rb_tree_iteratorISt4pairIKciEES5_(%"struct.std::_Rb_tree_iterator.442"* nonnull align 8 dereferenceable(8) %5, %"struct.std::_Rb_tree_iterator.442"* nonnull align 8 dereferenceable(8) %6) #2
  br i1 %20, label %28, label %21

21:                                               ; preds = %2
  %22 = call i8 @_ZNKSt3mapIciSt4lessIcESaISt4pairIKciEEE8key_compEv(%"class.std::map"* nonnull align 8 dereferenceable(48) %12)
  %23 = getelementptr inbounds %"struct.std::less", %"struct.std::less"* %7, i32 0, i32 0
  store i8 %22, i8* %23, align 1
  %24 = load i8*, i8** %4, align 8
  %25 = call nonnull align 4 dereferenceable(8) %"struct.std::pair.251"* @_ZNKSt17_Rb_tree_iteratorISt4pairIKciEEdeEv(%"struct.std::_Rb_tree_iterator.442"* nonnull align 8 dereferenceable(8) %5) #2
  %26 = getelementptr inbounds %"struct.std::pair.251", %"struct.std::pair.251"* %25, i32 0, i32 0
  %27 = call zeroext i1 @_ZNKSt4lessIcEclERKcS2_(%"struct.std::less"* nonnull align 1 dereferenceable(1) %7, i8* nonnull align 1 dereferenceable(1) %24, i8* nonnull align 1 dereferenceable(1) %26)
  br label %28

28:                                               ; preds = %21, %2
  %29 = phi i1 [ true, %2 ], [ %27, %21 ]
  br i1 %29, label %30, label %42

30:                                               ; preds = %28
  %31 = getelementptr inbounds %"class.std::map", %"class.std::map"* %12, i32 0, i32 0
  call void @_ZNSt23_Rb_tree_const_iteratorISt4pairIKciEEC2ERKSt17_Rb_tree_iteratorIS2_E(%"struct.std::_Rb_tree_const_iterator.443"* nonnull align 8 dereferenceable(8) %9, %"struct.std::_Rb_tree_iterator.442"* nonnull align 8 dereferenceable(8) %5) #2
  %32 = load i8*, i8** %4, align 8
  %33 = call nonnull align 1 dereferenceable(1) i8* @_ZSt4moveIRcEONSt16remove_referenceIT_E4typeEOS2_(i8* nonnull align 1 dereferenceable(1) %32) #2
  call void @_ZSt16forward_as_tupleIJcEESt5tupleIJDpOT_EES3_(%"class.std::tuple.446"* sret(%"class.std::tuple.446") align 8 %10, i8* nonnull align 1 dereferenceable(1) %33) #2
  %34 = getelementptr inbounds %"struct.std::_Rb_tree_const_iterator.443", %"struct.std::_Rb_tree_const_iterator.443"* %9, i32 0, i32 0
  %35 = load %"struct.std::_Rb_tree_node_base"*, %"struct.std::_Rb_tree_node_base"** %34, align 8
  %36 = ptrtoint %"struct.std::_Rb_tree_node_base"* %35 to i64
  %37 = call i64 @_ZNSt8_Rb_treeIcSt4pairIKciESt10_Select1stIS2_ESt4lessIcESaIS2_EE22_M_emplace_hint_uniqueIJRKSt21piecewise_construct_tSt5tupleIJOcEESD_IJEEEEESt17_Rb_tree_iteratorIS2_ESt23_Rb_tree_const_iteratorIS2_EDpOT_(%"class.std::_Rb_tree"* nonnull align 8 dereferenceable(48) %31, i64 %36, %"struct.std::piecewise_construct_t"* nonnull align 1 dereferenceable(1) @_ZStL19piecewise_construct, %"class.std::tuple.446"* nonnull align 8 dereferenceable(8) %10, %"class.std::tuple.324"* nonnull align 1 dereferenceable(1) %11)
  %38 = getelementptr inbounds %"struct.std::_Rb_tree_iterator.442", %"struct.std::_Rb_tree_iterator.442"* %8, i32 0, i32 0
  %39 = inttoptr i64 %37 to %"struct.std::_Rb_tree_node_base"*
  store %"struct.std::_Rb_tree_node_base"* %39, %"struct.std::_Rb_tree_node_base"** %38, align 8
  %40 = bitcast %"struct.std::_Rb_tree_iterator.442"* %5 to i8*
  %41 = bitcast %"struct.std::_Rb_tree_iterator.442"* %8 to i8*
  call void @llvm.memcpy.p0i8.p0i8.i64(i8* align 8 %40, i8* align 8 %41, i64 8, i1 false)
  br label %42

42:                                               ; preds = %30, %28
  %43 = call nonnull align 4 dereferenceable(8) %"struct.std::pair.251"* @_ZNKSt17_Rb_tree_iteratorISt4pairIKciEEdeEv(%"struct.std::_Rb_tree_iterator.442"* nonnull align 8 dereferenceable(8) %5) #2
  %44 = getelementptr inbounds %"struct.std::pair.251", %"struct.std::pair.251"* %43, i32 0, i32 1
  ret i32* %44
}

; Function Attrs: mustprogress noinline optnone uwtable
define internal i32 @_ZL12getNextTokenv() #6 {
  %1 = call i32 @_ZL6gettokv()
  store i32 %1, i32* @_ZL6CurTok, align 4
  ret i32 %1
}

; Function Attrs: mustprogress noinline optnone uwtable
define internal void @_ZL30InitializeModuleAndPassManagerv() #6 {
  %1 = alloca %"class.std::unique_ptr", align 8
  %2 = alloca %"class.std::unique_ptr.87", align 8
  %3 = alloca %"class.std::unique_ptr.95", align 8
  call void @_ZSt11make_uniqueIN4llvm11LLVMContextEJEENSt9_MakeUniqIT_E15__single_objectEDpOT0_(%"class.std::unique_ptr"* sret(%"class.std::unique_ptr") align 8 %1)
  %4 = call nonnull align 8 dereferenceable(8) %"class.std::unique_ptr"* @_ZNSt10unique_ptrIN4llvm11LLVMContextESt14default_deleteIS1_EEaSEOS4_(%"class.std::unique_ptr"* nonnull align 8 dereferenceable(8) bitcast ({ { { %"class.llvm::LLVMContext"* } } }* @_ZL10TheContext to %"class.std::unique_ptr"*), %"class.std::unique_ptr"* nonnull align 8 dereferenceable(8) %1) #2
  call void @_ZNSt10unique_ptrIN4llvm11LLVMContextESt14default_deleteIS1_EED2Ev(%"class.std::unique_ptr"* nonnull align 8 dereferenceable(8) %1) #2
  %5 = call nonnull align 8 dereferenceable(8) %"class.llvm::LLVMContext"* @_ZNKSt10unique_ptrIN4llvm11LLVMContextESt14default_deleteIS1_EEdeEv(%"class.std::unique_ptr"* nonnull align 8 dereferenceable(8) bitcast ({ { { %"class.llvm::LLVMContext"* } } }* @_ZL10TheContext to %"class.std::unique_ptr"*))
  call void @_ZSt11make_uniqueIN4llvm6ModuleEJRA12_KcRNS0_11LLVMContextEEENSt9_MakeUniqIT_E15__single_objectEDpOT0_(%"class.std::unique_ptr.87"* sret(%"class.std::unique_ptr.87") align 8 %2, [12 x i8]* nonnull align 1 dereferenceable(12) @.str.30, %"class.llvm::LLVMContext"* nonnull align 8 dereferenceable(8) %5)
  %6 = call nonnull align 8 dereferenceable(8) %"class.std::unique_ptr.87"* @_ZNSt10unique_ptrIN4llvm6ModuleESt14default_deleteIS1_EEaSEOS4_(%"class.std::unique_ptr.87"* nonnull align 8 dereferenceable(8) bitcast ({ { { %"class.llvm::Module"* } } }* @_ZL9TheModule to %"class.std::unique_ptr.87"*), %"class.std::unique_ptr.87"* nonnull align 8 dereferenceable(8) %2) #2
  call void @_ZNSt10unique_ptrIN4llvm6ModuleESt14default_deleteIS1_EED2Ev(%"class.std::unique_ptr.87"* nonnull align 8 dereferenceable(8) %2) #2
  %7 = call nonnull align 8 dereferenceable(8) %"class.llvm::LLVMContext"* @_ZNKSt10unique_ptrIN4llvm11LLVMContextESt14default_deleteIS1_EEdeEv(%"class.std::unique_ptr"* nonnull align 8 dereferenceable(8) bitcast ({ { { %"class.llvm::LLVMContext"* } } }* @_ZL10TheContext to %"class.std::unique_ptr"*))
  call void @_ZSt11make_uniqueIN4llvm9IRBuilderINS0_14ConstantFolderENS0_24IRBuilderDefaultInserterEEEJRNS0_11LLVMContextEEENSt9_MakeUniqIT_E15__single_objectEDpOT0_(%"class.std::unique_ptr.95"* sret(%"class.std::unique_ptr.95") align 8 %3, %"class.llvm::LLVMContext"* nonnull align 8 dereferenceable(8) %7)
  %8 = call nonnull align 8 dereferenceable(8) %"class.std::unique_ptr.95"* @_ZNSt10unique_ptrIN4llvm9IRBuilderINS0_14ConstantFolderENS0_24IRBuilderDefaultInserterEEESt14default_deleteIS4_EEaSEOS7_(%"class.std::unique_ptr.95"* nonnull align 8 dereferenceable(8) bitcast ({ { { %"class.llvm::IRBuilder"* } } }* @_ZL7Builder to %"class.std::unique_ptr.95"*), %"class.std::unique_ptr.95"* nonnull align 8 dereferenceable(8) %3) #2
  call void @_ZNSt10unique_ptrIN4llvm9IRBuilderINS0_14ConstantFolderENS0_24IRBuilderDefaultInserterEEESt14default_deleteIS4_EED2Ev(%"class.std::unique_ptr.95"* nonnull align 8 dereferenceable(8) %3) #2
  ret void
}

; Function Attrs: mustprogress noinline optnone uwtable
define internal void @_ZL8MainLoopv() #6 {
  br label %1

1:                                                ; preds = %0, %9
  %2 = load i32, i32* @_ZL6CurTok, align 4
  switch i32 %2, label %8 [
    i32 -1, label %3
    i32 59, label %4
    i32 -2, label %6
    i32 -3, label %7
  ]

3:                                                ; preds = %1
  ret void

4:                                                ; preds = %1
  %5 = call i32 @_ZL12getNextTokenv()
  br label %9

6:                                                ; preds = %1
  call void @_ZL16HandleDefinitionv()
  br label %9

7:                                                ; preds = %1
  call void @_ZL12HandleExternv()
  br label %9

8:                                                ; preds = %1
  call void @_ZL24HandleTopLevelExpressionv()
  br label %9

9:                                                ; preds = %8, %7, %6, %4
  br label %1, !llvm.loop !4
}

; Function Attrs: mustprogress noinline optnone uwtable
define linkonce_odr dso_local void @_ZN4llvm24InitializeAllTargetInfosEv() #6 comdat {
  call void @LLVMInitializeAArch64TargetInfo()
  call void @LLVMInitializeAMDGPUTargetInfo()
  call void @LLVMInitializeARMTargetInfo()
  call void @LLVMInitializeAVRTargetInfo()
  call void @LLVMInitializeBPFTargetInfo()
  call void @LLVMInitializeMSP430TargetInfo()
  call void @LLVMInitializeNVPTXTargetInfo()
  call void @LLVMInitializeRISCVTargetInfo()
  call void @LLVMInitializeWebAssemblyTargetInfo()
  call void @LLVMInitializeX86TargetInfo()
  call void @LLVMInitializeMipsTargetInfo()
  ret void
}

; Function Attrs: mustprogress noinline optnone uwtable
define linkonce_odr dso_local void @_ZN4llvm20InitializeAllTargetsEv() #6 comdat {
  call void @_ZN4llvm24InitializeAllTargetInfosEv()
  call void @LLVMInitializeAArch64Target()
  call void @LLVMInitializeAMDGPUTarget()
  call void @LLVMInitializeARMTarget()
  call void @LLVMInitializeAVRTarget()
  call void @LLVMInitializeBPFTarget()
  call void @LLVMInitializeMSP430Target()
  call void @LLVMInitializeNVPTXTarget()
  call void @LLVMInitializeRISCVTarget()
  call void @LLVMInitializeWebAssemblyTarget()
  call void @LLVMInitializeX86Target()
  call void @LLVMInitializeMipsTarget()
  ret void
}

; Function Attrs: mustprogress noinline optnone uwtable
define linkonce_odr dso_local void @_ZN4llvm22InitializeAllTargetMCsEv() #6 comdat {
  call void @LLVMInitializeAArch64TargetMC()
  call void @LLVMInitializeAMDGPUTargetMC()
  call void @LLVMInitializeARMTargetMC()
  call void @LLVMInitializeAVRTargetMC()
  call void @LLVMInitializeBPFTargetMC()
  call void @LLVMInitializeMSP430TargetMC()
  call void @LLVMInitializeNVPTXTargetMC()
  call void @LLVMInitializeRISCVTargetMC()
  call void @LLVMInitializeWebAssemblyTargetMC()
  call void @LLVMInitializeX86TargetMC()
  call void @LLVMInitializeMipsTargetMC()
  ret void
}

; Function Attrs: mustprogress noinline optnone uwtable
define linkonce_odr dso_local void @_ZN4llvm23InitializeAllAsmParsersEv() #6 comdat {
  call void @LLVMInitializeAArch64AsmParser()
  call void @LLVMInitializeAMDGPUAsmParser()
  call void @LLVMInitializeARMAsmParser()
  call void @LLVMInitializeAVRAsmParser()
  call void @LLVMInitializeBPFAsmParser()
  call void @LLVMInitializeMSP430AsmParser()
  call void @LLVMInitializeRISCVAsmParser()
  call void @LLVMInitializeWebAssemblyAsmParser()
  call void @LLVMInitializeX86AsmParser()
  call void @LLVMInitializeMipsAsmParser()
  ret void
}

; Function Attrs: mustprogress noinline optnone uwtable
define linkonce_odr dso_local void @_ZN4llvm24InitializeAllAsmPrintersEv() #6 comdat {
  call void @LLVMInitializeAArch64AsmPrinter()
  call void @LLVMInitializeAMDGPUAsmPrinter()
  call void @LLVMInitializeARMAsmPrinter()
  call void @LLVMInitializeAVRAsmPrinter()
  call void @LLVMInitializeBPFAsmPrinter()
  call void @LLVMInitializeMSP430AsmPrinter()
  call void @LLVMInitializeNVPTXAsmPrinter()
  call void @LLVMInitializeRISCVAsmPrinter()
  call void @LLVMInitializeWebAssemblyAsmPrinter()
  call void @LLVMInitializeX86AsmPrinter()
  call void @LLVMInitializeMipsAsmPrinter()
  ret void
}

declare dso_local void @_ZN4llvm3sys22getDefaultTargetTripleB5cxx11Ev(%"class.std::__cxx11::basic_string"* sret(%"class.std::__cxx11::basic_string") align 8) #4

; Function Attrs: mustprogress noinline optnone uwtable
define linkonce_odr dso_local void @_ZN4llvm6Module15setTargetTripleENS_9StringRefE(%"class.llvm::Module"* nonnull align 8 dereferenceable(800) %0, %"class.llvm::StringRef"* %1) #6 comdat align 2 {
  %3 = alloca %"class.llvm::Module"*, align 8
  %4 = alloca %"class.std::__cxx11::basic_string", align 8
  store %"class.llvm::Module"* %0, %"class.llvm::Module"** %3, align 8
  %5 = load %"class.llvm::Module"*, %"class.llvm::Module"** %3, align 8
  call void @_ZNK4llvm9StringRefcvNSt7__cxx1112basic_stringIcSt11char_traitsIcESaIcEEEEv(%"class.std::__cxx11::basic_string"* sret(%"class.std::__cxx11::basic_string") align 8 %4, %"class.llvm::StringRef"* nonnull align 8 dereferenceable(16) %1)
  %6 = getelementptr inbounds %"class.llvm::Module", %"class.llvm::Module"* %5, i32 0, i32 13
  %7 = call nonnull align 8 dereferenceable(32) %"class.std::__cxx11::basic_string"* @_ZNSt7__cxx1112basic_stringIcSt11char_traitsIcESaIcEEaSEOS4_(%"class.std::__cxx11::basic_string"* nonnull align 8 dereferenceable(32) %6, %"class.std::__cxx11::basic_string"* nonnull align 8 dereferenceable(32) %4) #2
  call void @_ZNSt7__cxx1112basic_stringIcSt11char_traitsIcESaIcEED1Ev(%"class.std::__cxx11::basic_string"* nonnull align 8 dereferenceable(32) %4) #2
  ret void
}

declare dso_local %"class.llvm::Target"* @_ZN4llvm14TargetRegistry12lookupTargetERKNSt7__cxx1112basic_stringIcSt11char_traitsIcESaIcEEERS6_(%"class.std::__cxx11::basic_string"* nonnull align 8 dereferenceable(32), %"class.std::__cxx11::basic_string"* nonnull align 8 dereferenceable(32)) #4

declare dso_local nonnull align 8 dereferenceable(96) %"class.llvm::raw_fd_ostream"* @_ZN4llvm4errsEv() #4

; Function Attrs: mustprogress noinline optnone uwtable
define linkonce_odr dso_local nonnull align 8 dereferenceable(60) %"class.llvm::raw_ostream"* @_ZN4llvm11raw_ostreamlsERKNSt7__cxx1112basic_stringIcSt11char_traitsIcESaIcEEE(%"class.llvm::raw_ostream"* nonnull align 8 dereferenceable(60) %0, %"class.std::__cxx11::basic_string"* nonnull align 8 dereferenceable(32) %1) #6 comdat align 2 {
  %3 = alloca %"class.llvm::raw_ostream"*, align 8
  %4 = alloca %"class.std::__cxx11::basic_string"*, align 8
  store %"class.llvm::raw_ostream"* %0, %"class.llvm::raw_ostream"** %3, align 8
  store %"class.std::__cxx11::basic_string"* %1, %"class.std::__cxx11::basic_string"** %4, align 8
  %5 = load %"class.llvm::raw_ostream"*, %"class.llvm::raw_ostream"** %3, align 8
  %6 = load %"class.std::__cxx11::basic_string"*, %"class.std::__cxx11::basic_string"** %4, align 8
  %7 = call i8* @_ZNKSt7__cxx1112basic_stringIcSt11char_traitsIcESaIcEE4dataEv(%"class.std::__cxx11::basic_string"* nonnull align 8 dereferenceable(32) %6) #2
  %8 = load %"class.std::__cxx11::basic_string"*, %"class.std::__cxx11::basic_string"** %4, align 8
  %9 = call i64 @_ZNKSt7__cxx1112basic_stringIcSt11char_traitsIcESaIcEE6lengthEv(%"class.std::__cxx11::basic_string"* nonnull align 8 dereferenceable(32) %8) #2
  %10 = call nonnull align 8 dereferenceable(60) %"class.llvm::raw_ostream"* @_ZN4llvm11raw_ostream5writeEPKcy(%"class.llvm::raw_ostream"* nonnull align 8 dereferenceable(60) %5, i8* %7, i64 %9)
  ret %"class.llvm::raw_ostream"* %10
}

; Function Attrs: noinline optnone uwtable
define linkonce_odr dso_local void @_ZN4llvm13TargetOptionsC2Ev(%"class.llvm::TargetOptions"* nonnull align 8 dereferenceable(272) %0) unnamed_addr #5 comdat align 2 personality i8* bitcast (i32 (...)* @__gxx_personality_seh0 to i8*) {
  %2 = alloca %"class.llvm::TargetOptions"*, align 8
  %3 = alloca i32, align 4
  %4 = alloca i32, align 4
  %5 = alloca i8*, align 8
  %6 = alloca i32, align 4
  store %"class.llvm::TargetOptions"* %0, %"class.llvm::TargetOptions"** %2, align 8
  %7 = load %"class.llvm::TargetOptions"*, %"class.llvm::TargetOptions"** %2, align 8
  %8 = getelementptr inbounds %"class.llvm::TargetOptions", %"class.llvm::TargetOptions"* %7, i32 0, i32 0
  store i32 0, i32* %3, align 4
  store i32 0, i32* %4, align 4
  call void @_ZNSt4pairIiiEC2IiiLb1EEEOT_OT0_(%"struct.std::pair.190"* nonnull align 4 dereferenceable(8) %8, i32* nonnull align 4 dereferenceable(4) %3, i32* nonnull align 4 dereferenceable(4) %4)
  %9 = getelementptr inbounds %"class.llvm::TargetOptions", %"class.llvm::TargetOptions"* %7, i32 0, i32 1
  %10 = load i32, i32* %9, align 8
  %11 = and i32 %10, -2
  store i32 %11, i32* %9, align 8
  %12 = getelementptr inbounds %"class.llvm::TargetOptions", %"class.llvm::TargetOptions"* %7, i32 0, i32 1
  %13 = load i32, i32* %12, align 8
  %14 = and i32 %13, -3
  store i32 %14, i32* %12, align 8
  %15 = getelementptr inbounds %"class.llvm::TargetOptions", %"class.llvm::TargetOptions"* %7, i32 0, i32 1
  %16 = load i32, i32* %15, align 8
  %17 = and i32 %16, -5
  store i32 %17, i32* %15, align 8
  %18 = getelementptr inbounds %"class.llvm::TargetOptions", %"class.llvm::TargetOptions"* %7, i32 0, i32 1
  %19 = load i32, i32* %18, align 8
  %20 = and i32 %19, -9
  %21 = or i32 %20, 8
  store i32 %21, i32* %18, align 8
  %22 = getelementptr inbounds %"class.llvm::TargetOptions", %"class.llvm::TargetOptions"* %7, i32 0, i32 1
  %23 = load i32, i32* %22, align 8
  %24 = and i32 %23, -17
  store i32 %24, i32* %22, align 8
  %25 = getelementptr inbounds %"class.llvm::TargetOptions", %"class.llvm::TargetOptions"* %7, i32 0, i32 1
  %26 = load i32, i32* %25, align 8
  %27 = and i32 %26, -33
  store i32 %27, i32* %25, align 8
  %28 = getelementptr inbounds %"class.llvm::TargetOptions", %"class.llvm::TargetOptions"* %7, i32 0, i32 1
  %29 = load i32, i32* %28, align 8
  %30 = and i32 %29, -65
  store i32 %30, i32* %28, align 8
  %31 = getelementptr inbounds %"class.llvm::TargetOptions", %"class.llvm::TargetOptions"* %7, i32 0, i32 1
  %32 = load i32, i32* %31, align 8
  %33 = and i32 %32, -129
  store i32 %33, i32* %31, align 8
  %34 = getelementptr inbounds %"class.llvm::TargetOptions", %"class.llvm::TargetOptions"* %7, i32 0, i32 1
  %35 = load i32, i32* %34, align 8
  %36 = and i32 %35, -257
  store i32 %36, i32* %34, align 8
  %37 = getelementptr inbounds %"class.llvm::TargetOptions", %"class.llvm::TargetOptions"* %7, i32 0, i32 1
  %38 = load i32, i32* %37, align 8
  %39 = and i32 %38, -513
  %40 = or i32 %39, 512
  store i32 %40, i32* %37, align 8
  %41 = getelementptr inbounds %"class.llvm::TargetOptions", %"class.llvm::TargetOptions"* %7, i32 0, i32 1
  %42 = load i32, i32* %41, align 8
  %43 = and i32 %42, -1025
  store i32 %43, i32* %41, align 8
  %44 = getelementptr inbounds %"class.llvm::TargetOptions", %"class.llvm::TargetOptions"* %7, i32 0, i32 1
  %45 = load i32, i32* %44, align 8
  %46 = and i32 %45, -2049
  store i32 %46, i32* %44, align 8
  %47 = getelementptr inbounds %"class.llvm::TargetOptions", %"class.llvm::TargetOptions"* %7, i32 0, i32 2
  store i32 1, i32* %47, align 4
  %48 = getelementptr inbounds %"class.llvm::TargetOptions", %"class.llvm::TargetOptions"* %7, i32 0, i32 3
  %49 = load i32, i32* %48, align 8
  %50 = and i32 %49, -2
  store i32 %50, i32* %48, align 8
  %51 = getelementptr inbounds %"class.llvm::TargetOptions", %"class.llvm::TargetOptions"* %7, i32 0, i32 3
  %52 = load i32, i32* %51, align 8
  %53 = and i32 %52, -3
  store i32 %53, i32* %51, align 8
  %54 = getelementptr inbounds %"class.llvm::TargetOptions", %"class.llvm::TargetOptions"* %7, i32 0, i32 4
  store i32 0, i32* %54, align 4
  %55 = getelementptr inbounds %"class.llvm::TargetOptions", %"class.llvm::TargetOptions"* %7, i32 0, i32 5
  %56 = load i32, i32* %55, align 8
  %57 = and i32 %56, -2
  store i32 %57, i32* %55, align 8
  %58 = getelementptr inbounds %"class.llvm::TargetOptions", %"class.llvm::TargetOptions"* %7, i32 0, i32 5
  %59 = load i32, i32* %58, align 8
  %60 = and i32 %59, -3
  store i32 %60, i32* %58, align 8
  %61 = getelementptr inbounds %"class.llvm::TargetOptions", %"class.llvm::TargetOptions"* %7, i32 0, i32 5
  %62 = load i32, i32* %61, align 8
  %63 = and i32 %62, -5
  store i32 %63, i32* %61, align 8
  %64 = getelementptr inbounds %"class.llvm::TargetOptions", %"class.llvm::TargetOptions"* %7, i32 0, i32 5
  %65 = load i32, i32* %64, align 8
  %66 = and i32 %65, -9
  store i32 %66, i32* %64, align 8
  %67 = getelementptr inbounds %"class.llvm::TargetOptions", %"class.llvm::TargetOptions"* %7, i32 0, i32 5
  %68 = load i32, i32* %67, align 8
  %69 = and i32 %68, -17
  %70 = or i32 %69, 16
  store i32 %70, i32* %67, align 8
  %71 = getelementptr inbounds %"class.llvm::TargetOptions", %"class.llvm::TargetOptions"* %7, i32 0, i32 5
  %72 = load i32, i32* %71, align 8
  %73 = and i32 %72, -33
  %74 = or i32 %73, 32
  store i32 %74, i32* %71, align 8
  %75 = getelementptr inbounds %"class.llvm::TargetOptions", %"class.llvm::TargetOptions"* %7, i32 0, i32 5
  %76 = load i32, i32* %75, align 8
  %77 = and i32 %76, -65
  store i32 %77, i32* %75, align 8
  %78 = getelementptr inbounds %"class.llvm::TargetOptions", %"class.llvm::TargetOptions"* %7, i32 0, i32 5
  %79 = load i32, i32* %78, align 8
  %80 = and i32 %79, -129
  store i32 %80, i32* %78, align 8
  %81 = getelementptr inbounds %"class.llvm::TargetOptions", %"class.llvm::TargetOptions"* %7, i32 0, i32 5
  %82 = load i32, i32* %81, align 8
  %83 = and i32 %82, -257
  store i32 %83, i32* %81, align 8
  %84 = getelementptr inbounds %"class.llvm::TargetOptions", %"class.llvm::TargetOptions"* %7, i32 0, i32 5
  %85 = load i32, i32* %84, align 8
  %86 = and i32 %85, -130561
  store i32 %86, i32* %84, align 8
  %87 = getelementptr inbounds %"class.llvm::TargetOptions", %"class.llvm::TargetOptions"* %7, i32 0, i32 5
  %88 = load i32, i32* %87, align 8
  %89 = and i32 %88, -131073
  store i32 %89, i32* %87, align 8
  %90 = getelementptr inbounds %"class.llvm::TargetOptions", %"class.llvm::TargetOptions"* %7, i32 0, i32 5
  %91 = load i32, i32* %90, align 8
  %92 = and i32 %91, -262145
  store i32 %92, i32* %90, align 8
  %93 = getelementptr inbounds %"class.llvm::TargetOptions", %"class.llvm::TargetOptions"* %7, i32 0, i32 5
  %94 = load i32, i32* %93, align 8
  %95 = and i32 %94, -524289
  store i32 %95, i32* %93, align 8
  %96 = getelementptr inbounds %"class.llvm::TargetOptions", %"class.llvm::TargetOptions"* %7, i32 0, i32 5
  %97 = load i32, i32* %96, align 8
  %98 = and i32 %97, -1048577
  store i32 %98, i32* %96, align 8
  %99 = getelementptr inbounds %"class.llvm::TargetOptions", %"class.llvm::TargetOptions"* %7, i32 0, i32 5
  %100 = load i32, i32* %99, align 8
  %101 = and i32 %100, -2097153
  store i32 %101, i32* %99, align 8
  %102 = getelementptr inbounds %"class.llvm::TargetOptions", %"class.llvm::TargetOptions"* %7, i32 0, i32 5
  %103 = load i32, i32* %102, align 8
  %104 = and i32 %103, -4194305
  store i32 %104, i32* %102, align 8
  %105 = getelementptr inbounds %"class.llvm::TargetOptions", %"class.llvm::TargetOptions"* %7, i32 0, i32 5
  %106 = load i32, i32* %105, align 8
  %107 = and i32 %106, -8388609
  store i32 %107, i32* %105, align 8
  %108 = getelementptr inbounds %"class.llvm::TargetOptions", %"class.llvm::TargetOptions"* %7, i32 0, i32 5
  %109 = load i32, i32* %108, align 8
  %110 = and i32 %109, -16777217
  store i32 %110, i32* %108, align 8
  %111 = getelementptr inbounds %"class.llvm::TargetOptions", %"class.llvm::TargetOptions"* %7, i32 0, i32 6
  store i32 4, i32* %111, align 4
  %112 = getelementptr inbounds %"class.llvm::TargetOptions", %"class.llvm::TargetOptions"* %7, i32 0, i32 7
  call void @_ZNSt10shared_ptrIN4llvm12MemoryBufferEEC2Ev(%"class.std::shared_ptr"* nonnull align 8 dereferenceable(16) %112) #2
  %113 = getelementptr inbounds %"class.llvm::TargetOptions", %"class.llvm::TargetOptions"* %7, i32 0, i32 8
  %114 = load i32, i32* %113, align 8
  %115 = and i32 %114, -2
  store i32 %115, i32* %113, align 8
  %116 = getelementptr inbounds %"class.llvm::TargetOptions", %"class.llvm::TargetOptions"* %7, i32 0, i32 8
  %117 = load i32, i32* %116, align 8
  %118 = and i32 %117, -3
  store i32 %118, i32* %116, align 8
  %119 = getelementptr inbounds %"class.llvm::TargetOptions", %"class.llvm::TargetOptions"* %7, i32 0, i32 8
  %120 = load i32, i32* %119, align 8
  %121 = and i32 %120, -5
  store i32 %121, i32* %119, align 8
  %122 = getelementptr inbounds %"class.llvm::TargetOptions", %"class.llvm::TargetOptions"* %7, i32 0, i32 8
  %123 = load i32, i32* %122, align 8
  %124 = and i32 %123, -9
  store i32 %124, i32* %122, align 8
  %125 = getelementptr inbounds %"class.llvm::TargetOptions", %"class.llvm::TargetOptions"* %7, i32 0, i32 8
  %126 = load i32, i32* %125, align 8
  %127 = and i32 %126, -17
  store i32 %127, i32* %125, align 8
  %128 = getelementptr inbounds %"class.llvm::TargetOptions", %"class.llvm::TargetOptions"* %7, i32 0, i32 8
  %129 = load i32, i32* %128, align 8
  %130 = and i32 %129, -33
  store i32 %130, i32* %128, align 8
  %131 = getelementptr inbounds %"class.llvm::TargetOptions", %"class.llvm::TargetOptions"* %7, i32 0, i32 8
  %132 = load i32, i32* %131, align 8
  %133 = and i32 %132, -65
  store i32 %133, i32* %131, align 8
  %134 = getelementptr inbounds %"class.llvm::TargetOptions", %"class.llvm::TargetOptions"* %7, i32 0, i32 8
  %135 = load i32, i32* %134, align 8
  %136 = and i32 %135, -129
  store i32 %136, i32* %134, align 8
  %137 = getelementptr inbounds %"class.llvm::TargetOptions", %"class.llvm::TargetOptions"* %7, i32 0, i32 9
  call void @_ZNSt7__cxx1112basic_stringIcSt11char_traitsIcESaIcEEC1Ev(%"class.std::__cxx11::basic_string"* nonnull align 8 dereferenceable(32) %137) #2
  %138 = getelementptr inbounds %"class.llvm::TargetOptions", %"class.llvm::TargetOptions"* %7, i32 0, i32 10
  store i32 0, i32* %138, align 8
  %139 = getelementptr inbounds %"class.llvm::TargetOptions", %"class.llvm::TargetOptions"* %7, i32 0, i32 11
  store i32 1, i32* %139, align 4
  %140 = getelementptr inbounds %"class.llvm::TargetOptions", %"class.llvm::TargetOptions"* %7, i32 0, i32 12
  store i32 0, i32* %140, align 8
  %141 = getelementptr inbounds %"class.llvm::TargetOptions", %"class.llvm::TargetOptions"* %7, i32 0, i32 13
  store i32 1, i32* %141, align 4
  %142 = getelementptr inbounds %"class.llvm::TargetOptions", %"class.llvm::TargetOptions"* %7, i32 0, i32 14
  store i32 0, i32* %142, align 8
  %143 = getelementptr inbounds %"class.llvm::TargetOptions", %"class.llvm::TargetOptions"* %7, i32 0, i32 15
  invoke void @_ZN4llvm12DenormalModeC2ENS0_16DenormalModeKindES1_(%"struct.llvm::DenormalMode"* nonnull align 1 dereferenceable(2) %143, i8 0, i8 0)
          to label %144 unwind label %149

144:                                              ; preds = %1
  %145 = getelementptr inbounds %"class.llvm::TargetOptions", %"class.llvm::TargetOptions"* %7, i32 0, i32 16
  call void @_ZN4llvm12DenormalModeC2Ev(%"struct.llvm::DenormalMode"* nonnull align 1 dereferenceable(2) %145) #2
  %146 = getelementptr inbounds %"class.llvm::TargetOptions", %"class.llvm::TargetOptions"* %7, i32 0, i32 17
  store i32 0, i32* %146, align 8
  %147 = getelementptr inbounds %"class.llvm::TargetOptions", %"class.llvm::TargetOptions"* %7, i32 0, i32 18
  invoke void @_ZN4llvm15MCTargetOptionsC1Ev(%"class.llvm::MCTargetOptions"* nonnull align 8 dereferenceable(152) %147)
          to label %148 unwind label %149

148:                                              ; preds = %144
  ret void

149:                                              ; preds = %144, %1
  %150 = landingpad { i8*, i32 }
          cleanup
  %151 = extractvalue { i8*, i32 } %150, 0
  store i8* %151, i8** %5, align 8
  %152 = extractvalue { i8*, i32 } %150, 1
  store i32 %152, i32* %6, align 4
  call void @_ZNSt7__cxx1112basic_stringIcSt11char_traitsIcESaIcEED1Ev(%"class.std::__cxx11::basic_string"* nonnull align 8 dereferenceable(32) %137) #2
  call void @_ZNSt10shared_ptrIN4llvm12MemoryBufferEED2Ev(%"class.std::shared_ptr"* nonnull align 8 dereferenceable(16) %112) #2
  br label %153

153:                                              ; preds = %149
  %154 = load i8*, i8** %5, align 8
  %155 = load i32, i32* %6, align 4
  %156 = insertvalue { i8*, i32 } undef, i8* %154, 0
  %157 = insertvalue { i8*, i32 } %156, i32 %155, 1
  resume { i8*, i32 } %157
}

; Function Attrs: noinline nounwind optnone uwtable
define linkonce_odr dso_local void @_ZN4llvm8OptionalINS_5Reloc5ModelEEC2Ev(%"class.llvm::Optional.244"* nonnull align 4 dereferenceable(8) %0) unnamed_addr #3 comdat align 2 {
  %2 = alloca %"class.llvm::Optional.244"*, align 8
  store %"class.llvm::Optional.244"* %0, %"class.llvm::Optional.244"** %2, align 8
  %3 = load %"class.llvm::Optional.244"*, %"class.llvm::Optional.244"** %2, align 8
  %4 = getelementptr inbounds %"class.llvm::Optional.244", %"class.llvm::Optional.244"* %3, i32 0, i32 0
  call void @_ZN4llvm15optional_detail15OptionalStorageINS_5Reloc5ModelELb1EEC2Ev(%"class.llvm::optional_detail::OptionalStorage.245"* nonnull align 4 dereferenceable(5) %4) #2
  ret void
}

; Function Attrs: mustprogress noinline optnone uwtable
define linkonce_odr dso_local %"class.llvm::TargetMachine"* @_ZNK4llvm6Target19createTargetMachineENS_9StringRefES1_S1_RKNS_13TargetOptionsENS_8OptionalINS_5Reloc5ModelEEENS5_INS_9CodeModel5ModelEEENS_10CodeGenOpt5LevelEb(%"class.llvm::Target"* nonnull align 8 dereferenceable(232) %0, %"class.llvm::StringRef"* %1, %"class.llvm::StringRef"* %2, %"class.llvm::StringRef"* %3, %"class.llvm::TargetOptions"* nonnull align 8 dereferenceable(272) %4, i64 %5, i64 %6, i32 %7, i1 zeroext %8) #6 comdat align 2 personality i8* bitcast (i32 (...)* @__gxx_personality_seh0 to i8*) {
  %10 = alloca %"class.llvm::TargetMachine"*, align 8
  %11 = alloca %"class.llvm::Optional.244", align 4
  %12 = alloca %"class.llvm::Optional.247", align 4
  %13 = alloca %"class.llvm::Target"*, align 8
  %14 = alloca %"class.llvm::TargetOptions"*, align 8
  %15 = alloca i32, align 4
  %16 = alloca i8, align 1
  %17 = alloca %"class.llvm::Triple", align 8
  %18 = alloca %"class.llvm::Twine", align 8
  %19 = alloca %"class.llvm::StringRef", align 8
  %20 = alloca %"class.llvm::StringRef", align 8
  %21 = alloca %"class.llvm::Optional.244", align 4
  %22 = alloca %"class.llvm::Optional.247", align 4
  %23 = alloca i8*, align 8
  %24 = alloca i32, align 4
  %25 = getelementptr inbounds %"class.llvm::Optional.244", %"class.llvm::Optional.244"* %11, i32 0, i32 0
  %26 = bitcast %"class.llvm::optional_detail::OptionalStorage.245"* %25 to i64*
  store i64 %5, i64* %26, align 4
  %27 = getelementptr inbounds %"class.llvm::Optional.247", %"class.llvm::Optional.247"* %12, i32 0, i32 0
  %28 = bitcast %"class.llvm::optional_detail::OptionalStorage.248"* %27 to i64*
  store i64 %6, i64* %28, align 4
  store %"class.llvm::Target"* %0, %"class.llvm::Target"** %13, align 8
  store %"class.llvm::TargetOptions"* %4, %"class.llvm::TargetOptions"** %14, align 8
  store i32 %7, i32* %15, align 4
  %29 = zext i1 %8 to i8
  store i8 %29, i8* %16, align 1
  %30 = load %"class.llvm::Target"*, %"class.llvm::Target"** %13, align 8
  %31 = getelementptr inbounds %"class.llvm::Target", %"class.llvm::Target"* %30, i32 0, i32 12
  %32 = load %"class.llvm::TargetMachine"* (%"class.llvm::Target"*, %"class.llvm::Triple"*, %"class.llvm::StringRef"*, %"class.llvm::StringRef"*, %"class.llvm::TargetOptions"*, i64, i64, i32, i1)*, %"class.llvm::TargetMachine"* (%"class.llvm::Target"*, %"class.llvm::Triple"*, %"class.llvm::StringRef"*, %"class.llvm::StringRef"*, %"class.llvm::TargetOptions"*, i64, i64, i32, i1)** %31, align 8
  %33 = icmp ne %"class.llvm::TargetMachine"* (%"class.llvm::Target"*, %"class.llvm::Triple"*, %"class.llvm::StringRef"*, %"class.llvm::StringRef"*, %"class.llvm::TargetOptions"*, i64, i64, i32, i1)* %32, null
  br i1 %33, label %35, label %34

34:                                               ; preds = %9
  store %"class.llvm::TargetMachine"* null, %"class.llvm::TargetMachine"** %10, align 8
  br label %62

35:                                               ; preds = %9
  %36 = getelementptr inbounds %"class.llvm::Target", %"class.llvm::Target"* %30, i32 0, i32 12
  %37 = load %"class.llvm::TargetMachine"* (%"class.llvm::Target"*, %"class.llvm::Triple"*, %"class.llvm::StringRef"*, %"class.llvm::StringRef"*, %"class.llvm::TargetOptions"*, i64, i64, i32, i1)*, %"class.llvm::TargetMachine"* (%"class.llvm::Target"*, %"class.llvm::Triple"*, %"class.llvm::StringRef"*, %"class.llvm::StringRef"*, %"class.llvm::TargetOptions"*, i64, i64, i32, i1)** %36, align 8
  call void @_ZN4llvm5TwineC2ERKNS_9StringRefE(%"class.llvm::Twine"* nonnull align 8 dereferenceable(34) %18, %"class.llvm::StringRef"* nonnull align 8 dereferenceable(16) %1)
  call void @_ZN4llvm6TripleC1ERKNS_5TwineE(%"class.llvm::Triple"* nonnull align 8 dereferenceable(56) %17, %"class.llvm::Twine"* nonnull align 8 dereferenceable(34) %18)
  %38 = bitcast %"class.llvm::StringRef"* %19 to i8*
  %39 = bitcast %"class.llvm::StringRef"* %2 to i8*
  call void @llvm.memcpy.p0i8.p0i8.i64(i8* align 8 %38, i8* align 8 %39, i64 16, i1 false)
  %40 = bitcast %"class.llvm::StringRef"* %20 to i8*
  %41 = bitcast %"class.llvm::StringRef"* %3 to i8*
  call void @llvm.memcpy.p0i8.p0i8.i64(i8* align 8 %40, i8* align 8 %41, i64 16, i1 false)
  %42 = load %"class.llvm::TargetOptions"*, %"class.llvm::TargetOptions"** %14, align 8
  %43 = bitcast %"class.llvm::Optional.244"* %21 to i8*
  %44 = bitcast %"class.llvm::Optional.244"* %11 to i8*
  call void @llvm.memcpy.p0i8.p0i8.i64(i8* align 4 %43, i8* align 4 %44, i64 8, i1 false)
  %45 = bitcast %"class.llvm::Optional.247"* %22 to i8*
  %46 = bitcast %"class.llvm::Optional.247"* %12 to i8*
  call void @llvm.memcpy.p0i8.p0i8.i64(i8* align 4 %45, i8* align 4 %46, i64 8, i1 false)
  %47 = load i32, i32* %15, align 4
  %48 = load i8, i8* %16, align 1
  %49 = trunc i8 %48 to i1
  %50 = getelementptr inbounds %"class.llvm::Optional.244", %"class.llvm::Optional.244"* %21, i32 0, i32 0
  %51 = bitcast %"class.llvm::optional_detail::OptionalStorage.245"* %50 to i64*
  %52 = load i64, i64* %51, align 4
  %53 = getelementptr inbounds %"class.llvm::Optional.247", %"class.llvm::Optional.247"* %22, i32 0, i32 0
  %54 = bitcast %"class.llvm::optional_detail::OptionalStorage.248"* %53 to i64*
  %55 = load i64, i64* %54, align 4
  %56 = invoke %"class.llvm::TargetMachine"* %37(%"class.llvm::Target"* nonnull align 8 dereferenceable(232) %30, %"class.llvm::Triple"* nonnull align 8 dereferenceable(56) %17, %"class.llvm::StringRef"* %19, %"class.llvm::StringRef"* %20, %"class.llvm::TargetOptions"* nonnull align 8 dereferenceable(272) %42, i64 %52, i64 %55, i32 %47, i1 zeroext %49)
          to label %57 unwind label %58

57:                                               ; preds = %35
  store %"class.llvm::TargetMachine"* %56, %"class.llvm::TargetMachine"** %10, align 8
  call void @_ZN4llvm6TripleD2Ev(%"class.llvm::Triple"* nonnull align 8 dereferenceable(56) %17) #2
  br label %62

58:                                               ; preds = %35
  %59 = landingpad { i8*, i32 }
          cleanup
  %60 = extractvalue { i8*, i32 } %59, 0
  store i8* %60, i8** %23, align 8
  %61 = extractvalue { i8*, i32 } %59, 1
  store i32 %61, i32* %24, align 4
  call void @_ZN4llvm6TripleD2Ev(%"class.llvm::Triple"* nonnull align 8 dereferenceable(56) %17) #2
  br label %64

62:                                               ; preds = %57, %34
  %63 = load %"class.llvm::TargetMachine"*, %"class.llvm::TargetMachine"** %10, align 8
  ret %"class.llvm::TargetMachine"* %63

64:                                               ; preds = %58
  %65 = load i8*, i8** %23, align 8
  %66 = load i32, i32* %24, align 4
  %67 = insertvalue { i8*, i32 } undef, i8* %65, 0
  %68 = insertvalue { i8*, i32 } %67, i32 %66, 1
  resume { i8*, i32 } %68
}

; Function Attrs: noinline optnone uwtable
define linkonce_odr dso_local void @_ZN4llvm9StringRefC2EPKc(%"class.llvm::StringRef"* nonnull align 8 dereferenceable(16) %0, i8* %1) unnamed_addr #5 comdat align 2 {
  %3 = alloca %"class.llvm::StringRef"*, align 8
  %4 = alloca i8*, align 8
  store %"class.llvm::StringRef"* %0, %"class.llvm::StringRef"** %3, align 8
  store i8* %1, i8** %4, align 8
  %5 = load %"class.llvm::StringRef"*, %"class.llvm::StringRef"** %3, align 8
  %6 = getelementptr inbounds %"class.llvm::StringRef", %"class.llvm::StringRef"* %5, i32 0, i32 0
  %7 = load i8*, i8** %4, align 8
  store i8* %7, i8** %6, align 8
  %8 = getelementptr inbounds %"class.llvm::StringRef", %"class.llvm::StringRef"* %5, i32 0, i32 1
  %9 = load i8*, i8** %4, align 8
  %10 = icmp ne i8* %9, null
  br i1 %10, label %11, label %14

11:                                               ; preds = %2
  %12 = load i8*, i8** %4, align 8
  %13 = call i64 @_ZN4llvm9StringRef6strLenEPKc(i8* %12)
  br label %15

14:                                               ; preds = %2
  br label %15

15:                                               ; preds = %14, %11
  %16 = phi i64 [ %13, %11 ], [ 0, %14 ]
  store i64 %16, i64* %8, align 8
  ret void
}

; Function Attrs: argmemonly nofree nounwind willreturn
declare void @llvm.memcpy.p0i8.p0i8.i64(i8* noalias nocapture writeonly, i8* noalias nocapture readonly, i64, i1 immarg) #9

; Function Attrs: noinline nounwind optnone uwtable
define linkonce_odr dso_local void @_ZN4llvm8OptionalINS_9CodeModel5ModelEEC2ENS_8NoneTypeE(%"class.llvm::Optional.247"* nonnull align 4 dereferenceable(8) %0, i32 %1) unnamed_addr #3 comdat align 2 {
  %3 = alloca %"class.llvm::Optional.247"*, align 8
  %4 = alloca i32, align 4
  store %"class.llvm::Optional.247"* %0, %"class.llvm::Optional.247"** %3, align 8
  store i32 %1, i32* %4, align 4
  %5 = load %"class.llvm::Optional.247"*, %"class.llvm::Optional.247"** %3, align 8
  %6 = getelementptr inbounds %"class.llvm::Optional.247", %"class.llvm::Optional.247"* %5, i32 0, i32 0
  call void @_ZN4llvm15optional_detail15OptionalStorageINS_9CodeModel5ModelELb1EEC2Ev(%"class.llvm::optional_detail::OptionalStorage.248"* nonnull align 4 dereferenceable(5) %6) #2
  ret void
}

declare dso_local void @_ZN4llvm6Module13setDataLayoutERKNS_10DataLayoutE(%"class.llvm::Module"* nonnull align 8 dereferenceable(800), %"class.llvm::DataLayout"* nonnull align 8 dereferenceable(440)) #4

; Function Attrs: mustprogress noinline optnone uwtable
define linkonce_odr dso_local void @_ZNK4llvm13TargetMachine16createDataLayoutEv(%"class.llvm::DataLayout"* noalias sret(%"class.llvm::DataLayout") align 8 %0, %"class.llvm::TargetMachine"* nonnull align 8 dereferenceable(1176) %1) #6 comdat align 2 {
  %3 = alloca i8*, align 8
  %4 = alloca %"class.llvm::TargetMachine"*, align 8
  %5 = bitcast %"class.llvm::DataLayout"* %0 to i8*
  store i8* %5, i8** %3, align 8
  store %"class.llvm::TargetMachine"* %1, %"class.llvm::TargetMachine"** %4, align 8
  %6 = load %"class.llvm::TargetMachine"*, %"class.llvm::TargetMachine"** %4, align 8
  %7 = getelementptr inbounds %"class.llvm::TargetMachine", %"class.llvm::TargetMachine"* %6, i32 0, i32 2
  call void @_ZN4llvm10DataLayoutC2ERKS0_(%"class.llvm::DataLayout"* nonnull align 8 dereferenceable(440) %0, %"class.llvm::DataLayout"* nonnull align 8 dereferenceable(440) %7)
  ret void
}

; Function Attrs: nounwind
declare dso_local void @_ZN4llvm10DataLayoutD1Ev(%"class.llvm::DataLayout"* nonnull align 8 dereferenceable(440)) unnamed_addr #1

; Function Attrs: noinline nounwind optnone uwtable
define linkonce_odr dso_local void @_ZNSt10error_codeC2Ev(%"class.std::error_code"* nonnull align 8 dereferenceable(16) %0) unnamed_addr #3 comdat align 2 {
  %2 = alloca %"class.std::error_code"*, align 8
  store %"class.std::error_code"* %0, %"class.std::error_code"** %2, align 8
  %3 = load %"class.std::error_code"*, %"class.std::error_code"** %2, align 8
  %4 = getelementptr inbounds %"class.std::error_code", %"class.std::error_code"* %3, i32 0, i32 0
  store i32 0, i32* %4, align 8
  %5 = getelementptr inbounds %"class.std::error_code", %"class.std::error_code"* %3, i32 0, i32 1
  %6 = call nonnull align 8 dereferenceable(8) %"class.std::_V2::error_category"* @_ZNSt3_V215system_categoryEv() #20
  store %"class.std::_V2::error_category"* %6, %"class.std::_V2::error_category"** %5, align 8
  ret void
}

declare dso_local void @_ZN4llvm14raw_fd_ostreamC1ENS_9StringRefERSt10error_codeNS_3sys2fs9OpenFlagsE(%"class.llvm::raw_fd_ostream"* nonnull align 8 dereferenceable(96), %"class.llvm::StringRef"*, %"class.std::error_code"* nonnull align 8 dereferenceable(16), i32) unnamed_addr #4

; Function Attrs: mustprogress noinline nounwind optnone uwtable
define linkonce_odr dso_local zeroext i1 @_ZNKSt10error_codecvbEv(%"class.std::error_code"* nonnull align 8 dereferenceable(16) %0) #7 comdat align 2 {
  %2 = alloca %"class.std::error_code"*, align 8
  store %"class.std::error_code"* %0, %"class.std::error_code"** %2, align 8
  %3 = load %"class.std::error_code"*, %"class.std::error_code"** %2, align 8
  %4 = getelementptr inbounds %"class.std::error_code", %"class.std::error_code"* %3, i32 0, i32 0
  %5 = load i32, i32* %4, align 8
  %6 = icmp ne i32 %5, 0
  ret i1 %6
}

; Function Attrs: mustprogress noinline optnone uwtable
define linkonce_odr dso_local nonnull align 8 dereferenceable(60) %"class.llvm::raw_ostream"* @_ZN4llvm11raw_ostreamlsEPKc(%"class.llvm::raw_ostream"* nonnull align 8 dereferenceable(60) %0, i8* %1) #6 comdat align 2 {
  %3 = alloca %"class.llvm::raw_ostream"*, align 8
  %4 = alloca i8*, align 8
  %5 = alloca %"class.llvm::StringRef", align 8
  store %"class.llvm::raw_ostream"* %0, %"class.llvm::raw_ostream"** %3, align 8
  store i8* %1, i8** %4, align 8
  %6 = load %"class.llvm::raw_ostream"*, %"class.llvm::raw_ostream"** %3, align 8
  %7 = load i8*, i8** %4, align 8
  call void @_ZN4llvm9StringRefC2EPKc(%"class.llvm::StringRef"* nonnull align 8 dereferenceable(16) %5, i8* %7)
  %8 = call nonnull align 8 dereferenceable(60) %"class.llvm::raw_ostream"* @_ZN4llvm11raw_ostreamlsENS_9StringRefE(%"class.llvm::raw_ostream"* nonnull align 8 dereferenceable(60) %6, %"class.llvm::StringRef"* %5)
  ret %"class.llvm::raw_ostream"* %8
}

; Function Attrs: mustprogress noinline optnone uwtable
define linkonce_odr dso_local void @_ZNKSt10error_code7messageB5cxx11Ev(%"class.std::__cxx11::basic_string"* noalias sret(%"class.std::__cxx11::basic_string") align 8 %0, %"class.std::error_code"* nonnull align 8 dereferenceable(16) %1) #6 comdat align 2 {
  %3 = alloca i8*, align 8
  %4 = alloca %"class.std::error_code"*, align 8
  %5 = bitcast %"class.std::__cxx11::basic_string"* %0 to i8*
  store i8* %5, i8** %3, align 8
  store %"class.std::error_code"* %1, %"class.std::error_code"** %4, align 8
  %6 = load %"class.std::error_code"*, %"class.std::error_code"** %4, align 8
  %7 = call nonnull align 8 dereferenceable(8) %"class.std::_V2::error_category"* @_ZNKSt10error_code8categoryEv(%"class.std::error_code"* nonnull align 8 dereferenceable(16) %6) #2
  %8 = call i32 @_ZNKSt10error_code5valueEv(%"class.std::error_code"* nonnull align 8 dereferenceable(16) %6) #2
  %9 = bitcast %"class.std::_V2::error_category"* %7 to void (%"class.std::__cxx11::basic_string"*, %"class.std::_V2::error_category"*, i32)***
  %10 = load void (%"class.std::__cxx11::basic_string"*, %"class.std::_V2::error_category"*, i32)**, void (%"class.std::__cxx11::basic_string"*, %"class.std::_V2::error_category"*, i32)*** %9, align 8
  %11 = getelementptr inbounds void (%"class.std::__cxx11::basic_string"*, %"class.std::_V2::error_category"*, i32)*, void (%"class.std::__cxx11::basic_string"*, %"class.std::_V2::error_category"*, i32)** %10, i64 4
  %12 = load void (%"class.std::__cxx11::basic_string"*, %"class.std::_V2::error_category"*, i32)*, void (%"class.std::__cxx11::basic_string"*, %"class.std::_V2::error_category"*, i32)** %11, align 8
  call void %12(%"class.std::__cxx11::basic_string"* sret(%"class.std::__cxx11::basic_string") align 8 %0, %"class.std::_V2::error_category"* nonnull align 8 dereferenceable(8) %7, i32 %8)
  ret void
}

declare dso_local void @_ZN4llvm6legacy11PassManagerC1Ev(%"class.llvm::legacy::PassManager"* nonnull align 8 dereferenceable(16)) unnamed_addr #4

declare dso_local zeroext i1 @_ZN4llvm6legacy11PassManager3runERNS_6ModuleE(%"class.llvm::legacy::PassManager"* nonnull align 8 dereferenceable(16), %"class.llvm::Module"* nonnull align 8 dereferenceable(800)) #4

; Function Attrs: mustprogress noinline nounwind optnone uwtable
define linkonce_odr dso_local nonnull align 8 dereferenceable(800) %"class.llvm::Module"* @_ZNKSt10unique_ptrIN4llvm6ModuleESt14default_deleteIS1_EEdeEv(%"class.std::unique_ptr.87"* nonnull align 8 dereferenceable(8) %0) #7 comdat align 2 {
  %2 = alloca %"class.std::unique_ptr.87"*, align 8
  store %"class.std::unique_ptr.87"* %0, %"class.std::unique_ptr.87"** %2, align 8
  %3 = load %"class.std::unique_ptr.87"*, %"class.std::unique_ptr.87"** %2, align 8
  br label %4

4:                                                ; preds = %1
  br label %5

5:                                                ; preds = %4
  %6 = call %"class.llvm::Module"* @_ZNKSt10unique_ptrIN4llvm6ModuleESt14default_deleteIS1_EE3getEv(%"class.std::unique_ptr.87"* nonnull align 8 dereferenceable(8) %3) #2
  ret %"class.llvm::Module"* %6
}

; Function Attrs: mustprogress noinline optnone uwtable
define linkonce_odr dso_local void @_ZN4llvm11raw_ostream5flushEv(%"class.llvm::raw_ostream"* nonnull align 8 dereferenceable(60) %0) #6 comdat align 2 {
  %2 = alloca %"class.llvm::raw_ostream"*, align 8
  store %"class.llvm::raw_ostream"* %0, %"class.llvm::raw_ostream"** %2, align 8
  %3 = load %"class.llvm::raw_ostream"*, %"class.llvm::raw_ostream"** %2, align 8
  %4 = getelementptr inbounds %"class.llvm::raw_ostream", %"class.llvm::raw_ostream"* %3, i32 0, i32 5
  %5 = load i8*, i8** %4, align 8
  %6 = getelementptr inbounds %"class.llvm::raw_ostream", %"class.llvm::raw_ostream"* %3, i32 0, i32 3
  %7 = load i8*, i8** %6, align 8
  %8 = icmp ne i8* %5, %7
  br i1 %8, label %9, label %10

9:                                                ; preds = %1
  call void @_ZN4llvm11raw_ostream14flush_nonemptyEv(%"class.llvm::raw_ostream"* nonnull align 8 dereferenceable(60) %3)
  br label %10

10:                                               ; preds = %9, %1
  ret void
}

declare dso_local nonnull align 8 dereferenceable(96) %"class.llvm::raw_fd_ostream"* @_ZN4llvm4outsEv() #4

; Function Attrs: nounwind
declare dso_local void @_ZN4llvm6legacy11PassManagerD1Ev(%"class.llvm::legacy::PassManager"* nonnull align 8 dereferenceable(16)) unnamed_addr #1

; Function Attrs: nounwind
declare dso_local void @_ZN4llvm14raw_fd_ostreamD1Ev(%"class.llvm::raw_fd_ostream"* nonnull align 8 dereferenceable(96)) unnamed_addr #1

; Function Attrs: noinline nounwind optnone uwtable
define linkonce_odr dso_local void @_ZN4llvm13TargetOptionsD2Ev(%"class.llvm::TargetOptions"* nonnull align 8 dereferenceable(272) %0) unnamed_addr #3 comdat align 2 {
  %2 = alloca %"class.llvm::TargetOptions"*, align 8
  store %"class.llvm::TargetOptions"* %0, %"class.llvm::TargetOptions"** %2, align 8
  %3 = load %"class.llvm::TargetOptions"*, %"class.llvm::TargetOptions"** %2, align 8
  %4 = getelementptr inbounds %"class.llvm::TargetOptions", %"class.llvm::TargetOptions"* %3, i32 0, i32 18
  call void @_ZN4llvm15MCTargetOptionsD2Ev(%"class.llvm::MCTargetOptions"* nonnull align 8 dereferenceable(152) %4) #2
  %5 = getelementptr inbounds %"class.llvm::TargetOptions", %"class.llvm::TargetOptions"* %3, i32 0, i32 9
  call void @_ZNSt7__cxx1112basic_stringIcSt11char_traitsIcESaIcEED1Ev(%"class.std::__cxx11::basic_string"* nonnull align 8 dereferenceable(32) %5) #2
  %6 = getelementptr inbounds %"class.llvm::TargetOptions", %"class.llvm::TargetOptions"* %3, i32 0, i32 7
  call void @_ZNSt10shared_ptrIN4llvm12MemoryBufferEED2Ev(%"class.std::shared_ptr"* nonnull align 8 dereferenceable(16) %6) #2
  ret void
}

; Function Attrs: noinline nounwind optnone uwtable
define linkonce_odr dso_local void @_ZNSt8_Rb_treeIcSt4pairIKciESt10_Select1stIS2_ESt4lessIcESaIS2_EEC2Ev(%"class.std::_Rb_tree"* nonnull align 8 dereferenceable(48) %0) unnamed_addr #3 comdat align 2 {
  %2 = alloca %"class.std::_Rb_tree"*, align 8
  store %"class.std::_Rb_tree"* %0, %"class.std::_Rb_tree"** %2, align 8
  %3 = load %"class.std::_Rb_tree"*, %"class.std::_Rb_tree"** %2, align 8
  %4 = getelementptr inbounds %"class.std::_Rb_tree", %"class.std::_Rb_tree"* %3, i32 0, i32 0
  call void @_ZNSt8_Rb_treeIcSt4pairIKciESt10_Select1stIS2_ESt4lessIcESaIS2_EE13_Rb_tree_implIS6_Lb1EEC2Ev(%"struct.std::_Rb_tree<char, std::pair<const char, int>, std::_Select1st<std::pair<const char, int>>, std::less<char>>::_Rb_tree_impl"* nonnull align 8 dereferenceable(48) %4) #2
  ret void
}

; Function Attrs: noinline nounwind optnone uwtable
define linkonce_odr dso_local void @_ZNSt8_Rb_treeIcSt4pairIKciESt10_Select1stIS2_ESt4lessIcESaIS2_EE13_Rb_tree_implIS6_Lb1EEC2Ev(%"struct.std::_Rb_tree<char, std::pair<const char, int>, std::_Select1st<std::pair<const char, int>>, std::less<char>>::_Rb_tree_impl"* nonnull align 8 dereferenceable(48) %0) unnamed_addr #3 comdat align 2 {
  %2 = alloca %"struct.std::_Rb_tree<char, std::pair<const char, int>, std::_Select1st<std::pair<const char, int>>, std::less<char>>::_Rb_tree_impl"*, align 8
  store %"struct.std::_Rb_tree<char, std::pair<const char, int>, std::_Select1st<std::pair<const char, int>>, std::less<char>>::_Rb_tree_impl"* %0, %"struct.std::_Rb_tree<char, std::pair<const char, int>, std::_Select1st<std::pair<const char, int>>, std::less<char>>::_Rb_tree_impl"** %2, align 8
  %3 = load %"struct.std::_Rb_tree<char, std::pair<const char, int>, std::_Select1st<std::pair<const char, int>>, std::less<char>>::_Rb_tree_impl"*, %"struct.std::_Rb_tree<char, std::pair<const char, int>, std::_Select1st<std::pair<const char, int>>, std::less<char>>::_Rb_tree_impl"** %2, align 8
  %4 = bitcast %"struct.std::_Rb_tree<char, std::pair<const char, int>, std::_Select1st<std::pair<const char, int>>, std::less<char>>::_Rb_tree_impl"* %3 to %"class.std::allocator.0"*
  call void @_ZNSaISt13_Rb_tree_nodeISt4pairIKciEEEC2Ev(%"class.std::allocator.0"* nonnull align 1 dereferenceable(1) %4) #2
  %5 = bitcast %"struct.std::_Rb_tree<char, std::pair<const char, int>, std::_Select1st<std::pair<const char, int>>, std::less<char>>::_Rb_tree_impl"* %3 to %"struct.std::_Rb_tree_key_compare"*
  call void @_ZNSt20_Rb_tree_key_compareISt4lessIcEEC2Ev(%"struct.std::_Rb_tree_key_compare"* nonnull align 1 dereferenceable(1) %5) #2
  %6 = bitcast %"struct.std::_Rb_tree<char, std::pair<const char, int>, std::_Select1st<std::pair<const char, int>>, std::less<char>>::_Rb_tree_impl"* %3 to i8*
  %7 = getelementptr inbounds i8, i8* %6, i64 8
  %8 = bitcast i8* %7 to %"struct.std::_Rb_tree_header"*
  call void @_ZNSt15_Rb_tree_headerC2Ev(%"struct.std::_Rb_tree_header"* nonnull align 8 dereferenceable(40) %8) #2
  ret void
}

; Function Attrs: noinline nounwind optnone uwtable
define linkonce_odr dso_local void @_ZNSaISt13_Rb_tree_nodeISt4pairIKciEEEC2Ev(%"class.std::allocator.0"* nonnull align 1 dereferenceable(1) %0) unnamed_addr #3 comdat align 2 {
  %2 = alloca %"class.std::allocator.0"*, align 8
  store %"class.std::allocator.0"* %0, %"class.std::allocator.0"** %2, align 8
  %3 = load %"class.std::allocator.0"*, %"class.std::allocator.0"** %2, align 8
  %4 = bitcast %"class.std::allocator.0"* %3 to %"class.__gnu_cxx::new_allocator.1"*
  call void @_ZN9__gnu_cxx13new_allocatorISt13_Rb_tree_nodeISt4pairIKciEEEC2Ev(%"class.__gnu_cxx::new_allocator.1"* nonnull align 1 dereferenceable(1) %4) #2
  ret void
}

; Function Attrs: noinline nounwind optnone uwtable
define linkonce_odr dso_local void @_ZNSt20_Rb_tree_key_compareISt4lessIcEEC2Ev(%"struct.std::_Rb_tree_key_compare"* nonnull align 1 dereferenceable(1) %0) unnamed_addr #3 comdat align 2 {
  %2 = alloca %"struct.std::_Rb_tree_key_compare"*, align 8
  store %"struct.std::_Rb_tree_key_compare"* %0, %"struct.std::_Rb_tree_key_compare"** %2, align 8
  %3 = load %"struct.std::_Rb_tree_key_compare"*, %"struct.std::_Rb_tree_key_compare"** %2, align 8
  %4 = getelementptr inbounds %"struct.std::_Rb_tree_key_compare", %"struct.std::_Rb_tree_key_compare"* %3, i32 0, i32 0
  ret void
}

; Function Attrs: noinline nounwind optnone uwtable
define linkonce_odr dso_local void @_ZNSt15_Rb_tree_headerC2Ev(%"struct.std::_Rb_tree_header"* nonnull align 8 dereferenceable(40) %0) unnamed_addr #3 comdat align 2 personality i8* bitcast (i32 (...)* @__gxx_personality_seh0 to i8*) {
  %2 = alloca %"struct.std::_Rb_tree_header"*, align 8
  store %"struct.std::_Rb_tree_header"* %0, %"struct.std::_Rb_tree_header"** %2, align 8
  %3 = load %"struct.std::_Rb_tree_header"*, %"struct.std::_Rb_tree_header"** %2, align 8
  %4 = getelementptr inbounds %"struct.std::_Rb_tree_header", %"struct.std::_Rb_tree_header"* %3, i32 0, i32 0
  %5 = getelementptr inbounds %"struct.std::_Rb_tree_header", %"struct.std::_Rb_tree_header"* %3, i32 0, i32 0
  %6 = getelementptr inbounds %"struct.std::_Rb_tree_node_base", %"struct.std::_Rb_tree_node_base"* %5, i32 0, i32 0
  store i32 0, i32* %6, align 8
  invoke void @_ZNSt15_Rb_tree_header8_M_resetEv(%"struct.std::_Rb_tree_header"* nonnull align 8 dereferenceable(40) %3)
          to label %7 unwind label %8

7:                                                ; preds = %1
  ret void

8:                                                ; preds = %1
  %9 = landingpad { i8*, i32 }
          catch i8* null
  %10 = extractvalue { i8*, i32 } %9, 0
  call void @__clang_call_terminate(i8* %10) #21
  unreachable
}

; Function Attrs: noinline nounwind optnone uwtable
define linkonce_odr dso_local void @_ZN9__gnu_cxx13new_allocatorISt13_Rb_tree_nodeISt4pairIKciEEEC2Ev(%"class.__gnu_cxx::new_allocator.1"* nonnull align 1 dereferenceable(1) %0) unnamed_addr #3 comdat align 2 {
  %2 = alloca %"class.__gnu_cxx::new_allocator.1"*, align 8
  store %"class.__gnu_cxx::new_allocator.1"* %0, %"class.__gnu_cxx::new_allocator.1"** %2, align 8
  %3 = load %"class.__gnu_cxx::new_allocator.1"*, %"class.__gnu_cxx::new_allocator.1"** %2, align 8
  ret void
}

; Function Attrs: mustprogress noinline nounwind optnone uwtable
define linkonce_odr dso_local void @_ZNSt15_Rb_tree_header8_M_resetEv(%"struct.std::_Rb_tree_header"* nonnull align 8 dereferenceable(40) %0) #7 comdat align 2 {
  %2 = alloca %"struct.std::_Rb_tree_header"*, align 8
  store %"struct.std::_Rb_tree_header"* %0, %"struct.std::_Rb_tree_header"** %2, align 8
  %3 = load %"struct.std::_Rb_tree_header"*, %"struct.std::_Rb_tree_header"** %2, align 8
  %4 = getelementptr inbounds %"struct.std::_Rb_tree_header", %"struct.std::_Rb_tree_header"* %3, i32 0, i32 0
  %5 = getelementptr inbounds %"struct.std::_Rb_tree_node_base", %"struct.std::_Rb_tree_node_base"* %4, i32 0, i32 1
  store %"struct.std::_Rb_tree_node_base"* null, %"struct.std::_Rb_tree_node_base"** %5, align 8
  %6 = getelementptr inbounds %"struct.std::_Rb_tree_header", %"struct.std::_Rb_tree_header"* %3, i32 0, i32 0
  %7 = getelementptr inbounds %"struct.std::_Rb_tree_header", %"struct.std::_Rb_tree_header"* %3, i32 0, i32 0
  %8 = getelementptr inbounds %"struct.std::_Rb_tree_node_base", %"struct.std::_Rb_tree_node_base"* %7, i32 0, i32 2
  store %"struct.std::_Rb_tree_node_base"* %6, %"struct.std::_Rb_tree_node_base"** %8, align 8
  %9 = getelementptr inbounds %"struct.std::_Rb_tree_header", %"struct.std::_Rb_tree_header"* %3, i32 0, i32 0
  %10 = getelementptr inbounds %"struct.std::_Rb_tree_header", %"struct.std::_Rb_tree_header"* %3, i32 0, i32 0
  %11 = getelementptr inbounds %"struct.std::_Rb_tree_node_base", %"struct.std::_Rb_tree_node_base"* %10, i32 0, i32 3
  store %"struct.std::_Rb_tree_node_base"* %9, %"struct.std::_Rb_tree_node_base"** %11, align 8
  %12 = getelementptr inbounds %"struct.std::_Rb_tree_header", %"struct.std::_Rb_tree_header"* %3, i32 0, i32 1
  store i64 0, i64* %12, align 8
  ret void
}

; Function Attrs: noinline noreturn nounwind
define linkonce_odr hidden void @__clang_call_terminate(i8* %0) #10 comdat {
  %2 = call i8* @__cxa_begin_catch(i8* %0) #2
  call void @_ZSt9terminatev() #21
  unreachable
}

declare dso_local i8* @__cxa_begin_catch(i8*)

declare dso_local void @_ZSt9terminatev()

; Function Attrs: noinline nounwind optnone uwtable
define linkonce_odr dso_local void @_ZNSt8_Rb_treeIcSt4pairIKciESt10_Select1stIS2_ESt4lessIcESaIS2_EED2Ev(%"class.std::_Rb_tree"* nonnull align 8 dereferenceable(48) %0) unnamed_addr #3 comdat align 2 personality i8* bitcast (i32 (...)* @__gxx_personality_seh0 to i8*) {
  %2 = alloca %"class.std::_Rb_tree"*, align 8
  %3 = alloca i8*, align 8
  %4 = alloca i32, align 4
  store %"class.std::_Rb_tree"* %0, %"class.std::_Rb_tree"** %2, align 8
  %5 = load %"class.std::_Rb_tree"*, %"class.std::_Rb_tree"** %2, align 8
  %6 = call %"struct.std::_Rb_tree_node"* @_ZNSt8_Rb_treeIcSt4pairIKciESt10_Select1stIS2_ESt4lessIcESaIS2_EE8_M_beginEv(%"class.std::_Rb_tree"* nonnull align 8 dereferenceable(48) %5) #2
  invoke void @_ZNSt8_Rb_treeIcSt4pairIKciESt10_Select1stIS2_ESt4lessIcESaIS2_EE8_M_eraseEPSt13_Rb_tree_nodeIS2_E(%"class.std::_Rb_tree"* nonnull align 8 dereferenceable(48) %5, %"struct.std::_Rb_tree_node"* %6)
          to label %7 unwind label %9

7:                                                ; preds = %1
  %8 = getelementptr inbounds %"class.std::_Rb_tree", %"class.std::_Rb_tree"* %5, i32 0, i32 0
  call void @_ZNSt8_Rb_treeIcSt4pairIKciESt10_Select1stIS2_ESt4lessIcESaIS2_EE13_Rb_tree_implIS6_Lb1EED2Ev(%"struct.std::_Rb_tree<char, std::pair<const char, int>, std::_Select1st<std::pair<const char, int>>, std::less<char>>::_Rb_tree_impl"* nonnull align 8 dereferenceable(48) %8) #2
  ret void

9:                                                ; preds = %1
  %10 = landingpad { i8*, i32 }
          catch i8* null
  %11 = extractvalue { i8*, i32 } %10, 0
  store i8* %11, i8** %3, align 8
  %12 = extractvalue { i8*, i32 } %10, 1
  store i32 %12, i32* %4, align 4
  %13 = getelementptr inbounds %"class.std::_Rb_tree", %"class.std::_Rb_tree"* %5, i32 0, i32 0
  call void @_ZNSt8_Rb_treeIcSt4pairIKciESt10_Select1stIS2_ESt4lessIcESaIS2_EE13_Rb_tree_implIS6_Lb1EED2Ev(%"struct.std::_Rb_tree<char, std::pair<const char, int>, std::_Select1st<std::pair<const char, int>>, std::less<char>>::_Rb_tree_impl"* nonnull align 8 dereferenceable(48) %13) #2
  br label %14

14:                                               ; preds = %9
  %15 = load i8*, i8** %3, align 8
  call void @__clang_call_terminate(i8* %15) #21
  unreachable
}

; Function Attrs: mustprogress noinline optnone uwtable
define linkonce_odr dso_local void @_ZNSt8_Rb_treeIcSt4pairIKciESt10_Select1stIS2_ESt4lessIcESaIS2_EE8_M_eraseEPSt13_Rb_tree_nodeIS2_E(%"class.std::_Rb_tree"* nonnull align 8 dereferenceable(48) %0, %"struct.std::_Rb_tree_node"* %1) #6 comdat align 2 {
  %3 = alloca %"class.std::_Rb_tree"*, align 8
  %4 = alloca %"struct.std::_Rb_tree_node"*, align 8
  %5 = alloca %"struct.std::_Rb_tree_node"*, align 8
  store %"class.std::_Rb_tree"* %0, %"class.std::_Rb_tree"** %3, align 8
  store %"struct.std::_Rb_tree_node"* %1, %"struct.std::_Rb_tree_node"** %4, align 8
  %6 = load %"class.std::_Rb_tree"*, %"class.std::_Rb_tree"** %3, align 8
  br label %7

7:                                                ; preds = %10, %2
  %8 = load %"struct.std::_Rb_tree_node"*, %"struct.std::_Rb_tree_node"** %4, align 8
  %9 = icmp ne %"struct.std::_Rb_tree_node"* %8, null
  br i1 %9, label %10, label %19

10:                                               ; preds = %7
  %11 = load %"struct.std::_Rb_tree_node"*, %"struct.std::_Rb_tree_node"** %4, align 8
  %12 = bitcast %"struct.std::_Rb_tree_node"* %11 to %"struct.std::_Rb_tree_node_base"*
  %13 = call %"struct.std::_Rb_tree_node"* @_ZNSt8_Rb_treeIcSt4pairIKciESt10_Select1stIS2_ESt4lessIcESaIS2_EE8_S_rightEPSt18_Rb_tree_node_base(%"struct.std::_Rb_tree_node_base"* %12) #2
  call void @_ZNSt8_Rb_treeIcSt4pairIKciESt10_Select1stIS2_ESt4lessIcESaIS2_EE8_M_eraseEPSt13_Rb_tree_nodeIS2_E(%"class.std::_Rb_tree"* nonnull align 8 dereferenceable(48) %6, %"struct.std::_Rb_tree_node"* %13)
  %14 = load %"struct.std::_Rb_tree_node"*, %"struct.std::_Rb_tree_node"** %4, align 8
  %15 = bitcast %"struct.std::_Rb_tree_node"* %14 to %"struct.std::_Rb_tree_node_base"*
  %16 = call %"struct.std::_Rb_tree_node"* @_ZNSt8_Rb_treeIcSt4pairIKciESt10_Select1stIS2_ESt4lessIcESaIS2_EE7_S_leftEPSt18_Rb_tree_node_base(%"struct.std::_Rb_tree_node_base"* %15) #2
  store %"struct.std::_Rb_tree_node"* %16, %"struct.std::_Rb_tree_node"** %5, align 8
  %17 = load %"struct.std::_Rb_tree_node"*, %"struct.std::_Rb_tree_node"** %4, align 8
  call void @_ZNSt8_Rb_treeIcSt4pairIKciESt10_Select1stIS2_ESt4lessIcESaIS2_EE12_M_drop_nodeEPSt13_Rb_tree_nodeIS2_E(%"class.std::_Rb_tree"* nonnull align 8 dereferenceable(48) %6, %"struct.std::_Rb_tree_node"* %17) #2
  %18 = load %"struct.std::_Rb_tree_node"*, %"struct.std::_Rb_tree_node"** %5, align 8
  store %"struct.std::_Rb_tree_node"* %18, %"struct.std::_Rb_tree_node"** %4, align 8
  br label %7, !llvm.loop !6

19:                                               ; preds = %7
  ret void
}

; Function Attrs: mustprogress noinline nounwind optnone uwtable
define linkonce_odr dso_local %"struct.std::_Rb_tree_node"* @_ZNSt8_Rb_treeIcSt4pairIKciESt10_Select1stIS2_ESt4lessIcESaIS2_EE8_M_beginEv(%"class.std::_Rb_tree"* nonnull align 8 dereferenceable(48) %0) #7 comdat align 2 {
  %2 = alloca %"class.std::_Rb_tree"*, align 8
  store %"class.std::_Rb_tree"* %0, %"class.std::_Rb_tree"** %2, align 8
  %3 = load %"class.std::_Rb_tree"*, %"class.std::_Rb_tree"** %2, align 8
  %4 = call %"struct.std::_Rb_tree_node"* @_ZNKSt8_Rb_treeIcSt4pairIKciESt10_Select1stIS2_ESt4lessIcESaIS2_EE9_M_mbeginEv(%"class.std::_Rb_tree"* nonnull align 8 dereferenceable(48) %3) #2
  ret %"struct.std::_Rb_tree_node"* %4
}

; Function Attrs: noinline nounwind optnone uwtable
define linkonce_odr dso_local void @_ZNSt8_Rb_treeIcSt4pairIKciESt10_Select1stIS2_ESt4lessIcESaIS2_EE13_Rb_tree_implIS6_Lb1EED2Ev(%"struct.std::_Rb_tree<char, std::pair<const char, int>, std::_Select1st<std::pair<const char, int>>, std::less<char>>::_Rb_tree_impl"* nonnull align 8 dereferenceable(48) %0) unnamed_addr #3 comdat align 2 {
  %2 = alloca %"struct.std::_Rb_tree<char, std::pair<const char, int>, std::_Select1st<std::pair<const char, int>>, std::less<char>>::_Rb_tree_impl"*, align 8
  store %"struct.std::_Rb_tree<char, std::pair<const char, int>, std::_Select1st<std::pair<const char, int>>, std::less<char>>::_Rb_tree_impl"* %0, %"struct.std::_Rb_tree<char, std::pair<const char, int>, std::_Select1st<std::pair<const char, int>>, std::less<char>>::_Rb_tree_impl"** %2, align 8
  %3 = load %"struct.std::_Rb_tree<char, std::pair<const char, int>, std::_Select1st<std::pair<const char, int>>, std::less<char>>::_Rb_tree_impl"*, %"struct.std::_Rb_tree<char, std::pair<const char, int>, std::_Select1st<std::pair<const char, int>>, std::less<char>>::_Rb_tree_impl"** %2, align 8
  %4 = bitcast %"struct.std::_Rb_tree<char, std::pair<const char, int>, std::_Select1st<std::pair<const char, int>>, std::less<char>>::_Rb_tree_impl"* %3 to %"class.std::allocator.0"*
  call void @_ZNSaISt13_Rb_tree_nodeISt4pairIKciEEED2Ev(%"class.std::allocator.0"* nonnull align 1 dereferenceable(1) %4) #2
  ret void
}

; Function Attrs: mustprogress noinline nounwind optnone uwtable
define linkonce_odr dso_local %"struct.std::_Rb_tree_node"* @_ZNSt8_Rb_treeIcSt4pairIKciESt10_Select1stIS2_ESt4lessIcESaIS2_EE8_S_rightEPSt18_Rb_tree_node_base(%"struct.std::_Rb_tree_node_base"* %0) #7 comdat align 2 {
  %2 = alloca %"struct.std::_Rb_tree_node_base"*, align 8
  store %"struct.std::_Rb_tree_node_base"* %0, %"struct.std::_Rb_tree_node_base"** %2, align 8
  %3 = load %"struct.std::_Rb_tree_node_base"*, %"struct.std::_Rb_tree_node_base"** %2, align 8
  %4 = getelementptr inbounds %"struct.std::_Rb_tree_node_base", %"struct.std::_Rb_tree_node_base"* %3, i32 0, i32 3
  %5 = load %"struct.std::_Rb_tree_node_base"*, %"struct.std::_Rb_tree_node_base"** %4, align 8
  %6 = bitcast %"struct.std::_Rb_tree_node_base"* %5 to %"struct.std::_Rb_tree_node"*
  ret %"struct.std::_Rb_tree_node"* %6
}

; Function Attrs: mustprogress noinline nounwind optnone uwtable
define linkonce_odr dso_local %"struct.std::_Rb_tree_node"* @_ZNSt8_Rb_treeIcSt4pairIKciESt10_Select1stIS2_ESt4lessIcESaIS2_EE7_S_leftEPSt18_Rb_tree_node_base(%"struct.std::_Rb_tree_node_base"* %0) #7 comdat align 2 {
  %2 = alloca %"struct.std::_Rb_tree_node_base"*, align 8
  store %"struct.std::_Rb_tree_node_base"* %0, %"struct.std::_Rb_tree_node_base"** %2, align 8
  %3 = load %"struct.std::_Rb_tree_node_base"*, %"struct.std::_Rb_tree_node_base"** %2, align 8
  %4 = getelementptr inbounds %"struct.std::_Rb_tree_node_base", %"struct.std::_Rb_tree_node_base"* %3, i32 0, i32 2
  %5 = load %"struct.std::_Rb_tree_node_base"*, %"struct.std::_Rb_tree_node_base"** %4, align 8
  %6 = bitcast %"struct.std::_Rb_tree_node_base"* %5 to %"struct.std::_Rb_tree_node"*
  ret %"struct.std::_Rb_tree_node"* %6
}

; Function Attrs: mustprogress noinline nounwind optnone uwtable
define linkonce_odr dso_local void @_ZNSt8_Rb_treeIcSt4pairIKciESt10_Select1stIS2_ESt4lessIcESaIS2_EE12_M_drop_nodeEPSt13_Rb_tree_nodeIS2_E(%"class.std::_Rb_tree"* nonnull align 8 dereferenceable(48) %0, %"struct.std::_Rb_tree_node"* %1) #7 comdat align 2 {
  %3 = alloca %"class.std::_Rb_tree"*, align 8
  %4 = alloca %"struct.std::_Rb_tree_node"*, align 8
  store %"class.std::_Rb_tree"* %0, %"class.std::_Rb_tree"** %3, align 8
  store %"struct.std::_Rb_tree_node"* %1, %"struct.std::_Rb_tree_node"** %4, align 8
  %5 = load %"class.std::_Rb_tree"*, %"class.std::_Rb_tree"** %3, align 8
  %6 = load %"struct.std::_Rb_tree_node"*, %"struct.std::_Rb_tree_node"** %4, align 8
  call void @_ZNSt8_Rb_treeIcSt4pairIKciESt10_Select1stIS2_ESt4lessIcESaIS2_EE15_M_destroy_nodeEPSt13_Rb_tree_nodeIS2_E(%"class.std::_Rb_tree"* nonnull align 8 dereferenceable(48) %5, %"struct.std::_Rb_tree_node"* %6) #2
  %7 = load %"struct.std::_Rb_tree_node"*, %"struct.std::_Rb_tree_node"** %4, align 8
  call void @_ZNSt8_Rb_treeIcSt4pairIKciESt10_Select1stIS2_ESt4lessIcESaIS2_EE11_M_put_nodeEPSt13_Rb_tree_nodeIS2_E(%"class.std::_Rb_tree"* nonnull align 8 dereferenceable(48) %5, %"struct.std::_Rb_tree_node"* %7) #2
  ret void
}

; Function Attrs: mustprogress noinline nounwind optnone uwtable
define linkonce_odr dso_local void @_ZNSt8_Rb_treeIcSt4pairIKciESt10_Select1stIS2_ESt4lessIcESaIS2_EE15_M_destroy_nodeEPSt13_Rb_tree_nodeIS2_E(%"class.std::_Rb_tree"* nonnull align 8 dereferenceable(48) %0, %"struct.std::_Rb_tree_node"* %1) #7 comdat align 2 personality i8* bitcast (i32 (...)* @__gxx_personality_seh0 to i8*) {
  %3 = alloca %"class.std::_Rb_tree"*, align 8
  %4 = alloca %"struct.std::_Rb_tree_node"*, align 8
  store %"class.std::_Rb_tree"* %0, %"class.std::_Rb_tree"** %3, align 8
  store %"struct.std::_Rb_tree_node"* %1, %"struct.std::_Rb_tree_node"** %4, align 8
  %5 = load %"class.std::_Rb_tree"*, %"class.std::_Rb_tree"** %3, align 8
  %6 = call nonnull align 1 dereferenceable(1) %"class.std::allocator.0"* @_ZNSt8_Rb_treeIcSt4pairIKciESt10_Select1stIS2_ESt4lessIcESaIS2_EE21_M_get_Node_allocatorEv(%"class.std::_Rb_tree"* nonnull align 8 dereferenceable(48) %5) #2
  %7 = load %"struct.std::_Rb_tree_node"*, %"struct.std::_Rb_tree_node"** %4, align 8
  %8 = invoke %"struct.std::pair.251"* @_ZNSt13_Rb_tree_nodeISt4pairIKciEE9_M_valptrEv(%"struct.std::_Rb_tree_node"* nonnull align 8 dereferenceable(40) %7)
          to label %9 unwind label %11

9:                                                ; preds = %2
  call void @_ZNSt16allocator_traitsISaISt13_Rb_tree_nodeISt4pairIKciEEEE7destroyIS3_EEvRS5_PT_(%"class.std::allocator.0"* nonnull align 1 dereferenceable(1) %6, %"struct.std::pair.251"* %8) #2
  %10 = load %"struct.std::_Rb_tree_node"*, %"struct.std::_Rb_tree_node"** %4, align 8
  ret void

11:                                               ; preds = %2
  %12 = landingpad { i8*, i32 }
          catch i8* null
  %13 = extractvalue { i8*, i32 } %12, 0
  call void @__clang_call_terminate(i8* %13) #21
  unreachable
}

; Function Attrs: mustprogress noinline nounwind optnone uwtable
define linkonce_odr dso_local void @_ZNSt8_Rb_treeIcSt4pairIKciESt10_Select1stIS2_ESt4lessIcESaIS2_EE11_M_put_nodeEPSt13_Rb_tree_nodeIS2_E(%"class.std::_Rb_tree"* nonnull align 8 dereferenceable(48) %0, %"struct.std::_Rb_tree_node"* %1) #7 comdat align 2 personality i8* bitcast (i32 (...)* @__gxx_personality_seh0 to i8*) {
  %3 = alloca %"class.std::_Rb_tree"*, align 8
  %4 = alloca %"struct.std::_Rb_tree_node"*, align 8
  store %"class.std::_Rb_tree"* %0, %"class.std::_Rb_tree"** %3, align 8
  store %"struct.std::_Rb_tree_node"* %1, %"struct.std::_Rb_tree_node"** %4, align 8
  %5 = load %"class.std::_Rb_tree"*, %"class.std::_Rb_tree"** %3, align 8
  %6 = call nonnull align 1 dereferenceable(1) %"class.std::allocator.0"* @_ZNSt8_Rb_treeIcSt4pairIKciESt10_Select1stIS2_ESt4lessIcESaIS2_EE21_M_get_Node_allocatorEv(%"class.std::_Rb_tree"* nonnull align 8 dereferenceable(48) %5) #2
  %7 = load %"struct.std::_Rb_tree_node"*, %"struct.std::_Rb_tree_node"** %4, align 8
  invoke void @_ZNSt16allocator_traitsISaISt13_Rb_tree_nodeISt4pairIKciEEEE10deallocateERS5_PS4_y(%"class.std::allocator.0"* nonnull align 1 dereferenceable(1) %6, %"struct.std::_Rb_tree_node"* %7, i64 1)
          to label %8 unwind label %9

8:                                                ; preds = %2
  ret void

9:                                                ; preds = %2
  %10 = landingpad { i8*, i32 }
          catch i8* null
  %11 = extractvalue { i8*, i32 } %10, 0
  call void @__clang_call_terminate(i8* %11) #21
  unreachable
}

; Function Attrs: mustprogress noinline nounwind optnone uwtable
define linkonce_odr dso_local void @_ZNSt16allocator_traitsISaISt13_Rb_tree_nodeISt4pairIKciEEEE7destroyIS3_EEvRS5_PT_(%"class.std::allocator.0"* nonnull align 1 dereferenceable(1) %0, %"struct.std::pair.251"* %1) #7 comdat align 2 {
  %3 = alloca %"class.std::allocator.0"*, align 8
  %4 = alloca %"struct.std::pair.251"*, align 8
  store %"class.std::allocator.0"* %0, %"class.std::allocator.0"** %3, align 8
  store %"struct.std::pair.251"* %1, %"struct.std::pair.251"** %4, align 8
  %5 = load %"class.std::allocator.0"*, %"class.std::allocator.0"** %3, align 8
  %6 = bitcast %"class.std::allocator.0"* %5 to %"class.__gnu_cxx::new_allocator.1"*
  %7 = load %"struct.std::pair.251"*, %"struct.std::pair.251"** %4, align 8
  call void @_ZN9__gnu_cxx13new_allocatorISt13_Rb_tree_nodeISt4pairIKciEEE7destroyIS4_EEvPT_(%"class.__gnu_cxx::new_allocator.1"* nonnull align 1 dereferenceable(1) %6, %"struct.std::pair.251"* %7) #2
  ret void
}

; Function Attrs: mustprogress noinline nounwind optnone uwtable
define linkonce_odr dso_local nonnull align 1 dereferenceable(1) %"class.std::allocator.0"* @_ZNSt8_Rb_treeIcSt4pairIKciESt10_Select1stIS2_ESt4lessIcESaIS2_EE21_M_get_Node_allocatorEv(%"class.std::_Rb_tree"* nonnull align 8 dereferenceable(48) %0) #7 comdat align 2 {
  %2 = alloca %"class.std::_Rb_tree"*, align 8
  store %"class.std::_Rb_tree"* %0, %"class.std::_Rb_tree"** %2, align 8
  %3 = load %"class.std::_Rb_tree"*, %"class.std::_Rb_tree"** %2, align 8
  %4 = getelementptr inbounds %"class.std::_Rb_tree", %"class.std::_Rb_tree"* %3, i32 0, i32 0
  %5 = bitcast %"struct.std::_Rb_tree<char, std::pair<const char, int>, std::_Select1st<std::pair<const char, int>>, std::less<char>>::_Rb_tree_impl"* %4 to %"class.std::allocator.0"*
  ret %"class.std::allocator.0"* %5
}

; Function Attrs: mustprogress noinline nounwind optnone uwtable
define linkonce_odr dso_local %"struct.std::pair.251"* @_ZNSt13_Rb_tree_nodeISt4pairIKciEE9_M_valptrEv(%"struct.std::_Rb_tree_node"* nonnull align 8 dereferenceable(40) %0) #7 comdat align 2 {
  %2 = alloca %"struct.std::_Rb_tree_node"*, align 8
  store %"struct.std::_Rb_tree_node"* %0, %"struct.std::_Rb_tree_node"** %2, align 8
  %3 = load %"struct.std::_Rb_tree_node"*, %"struct.std::_Rb_tree_node"** %2, align 8
  %4 = getelementptr inbounds %"struct.std::_Rb_tree_node", %"struct.std::_Rb_tree_node"* %3, i32 0, i32 1
  %5 = call %"struct.std::pair.251"* @_ZN9__gnu_cxx16__aligned_membufISt4pairIKciEE6_M_ptrEv(%"struct.__gnu_cxx::__aligned_membuf"* nonnull align 4 dereferenceable(8) %4) #2
  ret %"struct.std::pair.251"* %5
}

; Function Attrs: mustprogress noinline nounwind optnone uwtable
define linkonce_odr dso_local void @_ZN9__gnu_cxx13new_allocatorISt13_Rb_tree_nodeISt4pairIKciEEE7destroyIS4_EEvPT_(%"class.__gnu_cxx::new_allocator.1"* nonnull align 1 dereferenceable(1) %0, %"struct.std::pair.251"* %1) #7 comdat align 2 {
  %3 = alloca %"class.__gnu_cxx::new_allocator.1"*, align 8
  %4 = alloca %"struct.std::pair.251"*, align 8
  store %"class.__gnu_cxx::new_allocator.1"* %0, %"class.__gnu_cxx::new_allocator.1"** %3, align 8
  store %"struct.std::pair.251"* %1, %"struct.std::pair.251"** %4, align 8
  %5 = load %"class.__gnu_cxx::new_allocator.1"*, %"class.__gnu_cxx::new_allocator.1"** %3, align 8
  %6 = load %"struct.std::pair.251"*, %"struct.std::pair.251"** %4, align 8
  ret void
}

; Function Attrs: mustprogress noinline nounwind optnone uwtable
define linkonce_odr dso_local %"struct.std::pair.251"* @_ZN9__gnu_cxx16__aligned_membufISt4pairIKciEE6_M_ptrEv(%"struct.__gnu_cxx::__aligned_membuf"* nonnull align 4 dereferenceable(8) %0) #7 comdat align 2 {
  %2 = alloca %"struct.__gnu_cxx::__aligned_membuf"*, align 8
  store %"struct.__gnu_cxx::__aligned_membuf"* %0, %"struct.__gnu_cxx::__aligned_membuf"** %2, align 8
  %3 = load %"struct.__gnu_cxx::__aligned_membuf"*, %"struct.__gnu_cxx::__aligned_membuf"** %2, align 8
  %4 = call i8* @_ZN9__gnu_cxx16__aligned_membufISt4pairIKciEE7_M_addrEv(%"struct.__gnu_cxx::__aligned_membuf"* nonnull align 4 dereferenceable(8) %3) #2
  %5 = bitcast i8* %4 to %"struct.std::pair.251"*
  ret %"struct.std::pair.251"* %5
}

; Function Attrs: mustprogress noinline nounwind optnone uwtable
define linkonce_odr dso_local i8* @_ZN9__gnu_cxx16__aligned_membufISt4pairIKciEE7_M_addrEv(%"struct.__gnu_cxx::__aligned_membuf"* nonnull align 4 dereferenceable(8) %0) #7 comdat align 2 {
  %2 = alloca %"struct.__gnu_cxx::__aligned_membuf"*, align 8
  store %"struct.__gnu_cxx::__aligned_membuf"* %0, %"struct.__gnu_cxx::__aligned_membuf"** %2, align 8
  %3 = load %"struct.__gnu_cxx::__aligned_membuf"*, %"struct.__gnu_cxx::__aligned_membuf"** %2, align 8
  %4 = getelementptr inbounds %"struct.__gnu_cxx::__aligned_membuf", %"struct.__gnu_cxx::__aligned_membuf"* %3, i32 0, i32 0
  %5 = bitcast [8 x i8]* %4 to i8*
  ret i8* %5
}

; Function Attrs: mustprogress noinline optnone uwtable
define linkonce_odr dso_local void @_ZNSt16allocator_traitsISaISt13_Rb_tree_nodeISt4pairIKciEEEE10deallocateERS5_PS4_y(%"class.std::allocator.0"* nonnull align 1 dereferenceable(1) %0, %"struct.std::_Rb_tree_node"* %1, i64 %2) #6 comdat align 2 {
  %4 = alloca %"class.std::allocator.0"*, align 8
  %5 = alloca %"struct.std::_Rb_tree_node"*, align 8
  %6 = alloca i64, align 8
  store %"class.std::allocator.0"* %0, %"class.std::allocator.0"** %4, align 8
  store %"struct.std::_Rb_tree_node"* %1, %"struct.std::_Rb_tree_node"** %5, align 8
  store i64 %2, i64* %6, align 8
  %7 = load %"class.std::allocator.0"*, %"class.std::allocator.0"** %4, align 8
  %8 = bitcast %"class.std::allocator.0"* %7 to %"class.__gnu_cxx::new_allocator.1"*
  %9 = load %"struct.std::_Rb_tree_node"*, %"struct.std::_Rb_tree_node"** %5, align 8
  %10 = load i64, i64* %6, align 8
  call void @_ZN9__gnu_cxx13new_allocatorISt13_Rb_tree_nodeISt4pairIKciEEE10deallocateEPS5_y(%"class.__gnu_cxx::new_allocator.1"* nonnull align 1 dereferenceable(1) %8, %"struct.std::_Rb_tree_node"* %9, i64 %10)
  ret void
}

; Function Attrs: mustprogress noinline nounwind optnone uwtable
define linkonce_odr dso_local void @_ZN9__gnu_cxx13new_allocatorISt13_Rb_tree_nodeISt4pairIKciEEE10deallocateEPS5_y(%"class.__gnu_cxx::new_allocator.1"* nonnull align 1 dereferenceable(1) %0, %"struct.std::_Rb_tree_node"* %1, i64 %2) #7 comdat align 2 {
  %4 = alloca %"class.__gnu_cxx::new_allocator.1"*, align 8
  %5 = alloca %"struct.std::_Rb_tree_node"*, align 8
  %6 = alloca i64, align 8
  store %"class.__gnu_cxx::new_allocator.1"* %0, %"class.__gnu_cxx::new_allocator.1"** %4, align 8
  store %"struct.std::_Rb_tree_node"* %1, %"struct.std::_Rb_tree_node"** %5, align 8
  store i64 %2, i64* %6, align 8
  %7 = load %"class.__gnu_cxx::new_allocator.1"*, %"class.__gnu_cxx::new_allocator.1"** %4, align 8
  %8 = load %"struct.std::_Rb_tree_node"*, %"struct.std::_Rb_tree_node"** %5, align 8
  %9 = bitcast %"struct.std::_Rb_tree_node"* %8 to i8*
  call void @_ZdlPv(i8* %9) #2
  ret void
}

; Function Attrs: nobuiltin nounwind
declare dso_local void @_ZdlPv(i8*) #11

; Function Attrs: mustprogress noinline nounwind optnone uwtable
define linkonce_odr dso_local %"struct.std::_Rb_tree_node"* @_ZNKSt8_Rb_treeIcSt4pairIKciESt10_Select1stIS2_ESt4lessIcESaIS2_EE9_M_mbeginEv(%"class.std::_Rb_tree"* nonnull align 8 dereferenceable(48) %0) #7 comdat align 2 {
  %2 = alloca %"class.std::_Rb_tree"*, align 8
  store %"class.std::_Rb_tree"* %0, %"class.std::_Rb_tree"** %2, align 8
  %3 = load %"class.std::_Rb_tree"*, %"class.std::_Rb_tree"** %2, align 8
  %4 = getelementptr inbounds %"class.std::_Rb_tree", %"class.std::_Rb_tree"* %3, i32 0, i32 0
  %5 = bitcast %"struct.std::_Rb_tree<char, std::pair<const char, int>, std::_Select1st<std::pair<const char, int>>, std::less<char>>::_Rb_tree_impl"* %4 to i8*
  %6 = getelementptr inbounds i8, i8* %5, i64 8
  %7 = bitcast i8* %6 to %"struct.std::_Rb_tree_header"*
  %8 = getelementptr inbounds %"struct.std::_Rb_tree_header", %"struct.std::_Rb_tree_header"* %7, i32 0, i32 0
  %9 = getelementptr inbounds %"struct.std::_Rb_tree_node_base", %"struct.std::_Rb_tree_node_base"* %8, i32 0, i32 1
  %10 = load %"struct.std::_Rb_tree_node_base"*, %"struct.std::_Rb_tree_node_base"** %9, align 8
  %11 = bitcast %"struct.std::_Rb_tree_node_base"* %10 to %"struct.std::_Rb_tree_node"*
  ret %"struct.std::_Rb_tree_node"* %11
}

; Function Attrs: noinline nounwind optnone uwtable
define linkonce_odr dso_local void @_ZNSaISt13_Rb_tree_nodeISt4pairIKciEEED2Ev(%"class.std::allocator.0"* nonnull align 1 dereferenceable(1) %0) unnamed_addr #3 comdat align 2 {
  %2 = alloca %"class.std::allocator.0"*, align 8
  store %"class.std::allocator.0"* %0, %"class.std::allocator.0"** %2, align 8
  %3 = load %"class.std::allocator.0"*, %"class.std::allocator.0"** %2, align 8
  %4 = bitcast %"class.std::allocator.0"* %3 to %"class.__gnu_cxx::new_allocator.1"*
  call void @_ZN9__gnu_cxx13new_allocatorISt13_Rb_tree_nodeISt4pairIKciEEED2Ev(%"class.__gnu_cxx::new_allocator.1"* nonnull align 1 dereferenceable(1) %4) #2
  ret void
}

; Function Attrs: noinline nounwind optnone uwtable
define linkonce_odr dso_local void @_ZN9__gnu_cxx13new_allocatorISt13_Rb_tree_nodeISt4pairIKciEEED2Ev(%"class.__gnu_cxx::new_allocator.1"* nonnull align 1 dereferenceable(1) %0) unnamed_addr #3 comdat align 2 {
  %2 = alloca %"class.__gnu_cxx::new_allocator.1"*, align 8
  store %"class.__gnu_cxx::new_allocator.1"* %0, %"class.__gnu_cxx::new_allocator.1"** %2, align 8
  %3 = load %"class.__gnu_cxx::new_allocator.1"*, %"class.__gnu_cxx::new_allocator.1"** %2, align 8
  ret void
}

; Function Attrs: noinline nounwind optnone uwtable
define linkonce_odr dso_local void @_ZNSt8_Rb_treeINSt7__cxx1112basic_stringIcSt11char_traitsIcESaIcEEESt4pairIKS5_PN4llvm10AllocaInstEESt10_Select1stISB_ESt4lessIS5_ESaISB_EEC2Ev(%"class.std::_Rb_tree.97"* nonnull align 8 dereferenceable(48) %0) unnamed_addr #3 comdat align 2 {
  %2 = alloca %"class.std::_Rb_tree.97"*, align 8
  store %"class.std::_Rb_tree.97"* %0, %"class.std::_Rb_tree.97"** %2, align 8
  %3 = load %"class.std::_Rb_tree.97"*, %"class.std::_Rb_tree.97"** %2, align 8
  %4 = getelementptr inbounds %"class.std::_Rb_tree.97", %"class.std::_Rb_tree.97"* %3, i32 0, i32 0
  call void @_ZNSt8_Rb_treeINSt7__cxx1112basic_stringIcSt11char_traitsIcESaIcEEESt4pairIKS5_PN4llvm10AllocaInstEESt10_Select1stISB_ESt4lessIS5_ESaISB_EE13_Rb_tree_implISF_Lb1EEC2Ev(%"struct.std::_Rb_tree<std::__cxx11::basic_string<char>, std::pair<const std::__cxx11::basic_string<char>, llvm::AllocaInst *>, std::_Select1st<std::pair<const std::__cxx11::basic_string<char>, llvm::AllocaInst *>>, std::less<std::__cxx11::basic_string<char>>>::_Rb_tree_impl"* nonnull align 8 dereferenceable(48) %4) #2
  ret void
}

; Function Attrs: noinline nounwind optnone uwtable
define linkonce_odr dso_local void @_ZNSt8_Rb_treeINSt7__cxx1112basic_stringIcSt11char_traitsIcESaIcEEESt4pairIKS5_PN4llvm10AllocaInstEESt10_Select1stISB_ESt4lessIS5_ESaISB_EE13_Rb_tree_implISF_Lb1EEC2Ev(%"struct.std::_Rb_tree<std::__cxx11::basic_string<char>, std::pair<const std::__cxx11::basic_string<char>, llvm::AllocaInst *>, std::_Select1st<std::pair<const std::__cxx11::basic_string<char>, llvm::AllocaInst *>>, std::less<std::__cxx11::basic_string<char>>>::_Rb_tree_impl"* nonnull align 8 dereferenceable(48) %0) unnamed_addr #3 comdat align 2 {
  %2 = alloca %"struct.std::_Rb_tree<std::__cxx11::basic_string<char>, std::pair<const std::__cxx11::basic_string<char>, llvm::AllocaInst *>, std::_Select1st<std::pair<const std::__cxx11::basic_string<char>, llvm::AllocaInst *>>, std::less<std::__cxx11::basic_string<char>>>::_Rb_tree_impl"*, align 8
  store %"struct.std::_Rb_tree<std::__cxx11::basic_string<char>, std::pair<const std::__cxx11::basic_string<char>, llvm::AllocaInst *>, std::_Select1st<std::pair<const std::__cxx11::basic_string<char>, llvm::AllocaInst *>>, std::less<std::__cxx11::basic_string<char>>>::_Rb_tree_impl"* %0, %"struct.std::_Rb_tree<std::__cxx11::basic_string<char>, std::pair<const std::__cxx11::basic_string<char>, llvm::AllocaInst *>, std::_Select1st<std::pair<const std::__cxx11::basic_string<char>, llvm::AllocaInst *>>, std::less<std::__cxx11::basic_string<char>>>::_Rb_tree_impl"** %2, align 8
  %3 = load %"struct.std::_Rb_tree<std::__cxx11::basic_string<char>, std::pair<const std::__cxx11::basic_string<char>, llvm::AllocaInst *>, std::_Select1st<std::pair<const std::__cxx11::basic_string<char>, llvm::AllocaInst *>>, std::less<std::__cxx11::basic_string<char>>>::_Rb_tree_impl"*, %"struct.std::_Rb_tree<std::__cxx11::basic_string<char>, std::pair<const std::__cxx11::basic_string<char>, llvm::AllocaInst *>, std::_Select1st<std::pair<const std::__cxx11::basic_string<char>, llvm::AllocaInst *>>, std::less<std::__cxx11::basic_string<char>>>::_Rb_tree_impl"** %2, align 8
  %4 = bitcast %"struct.std::_Rb_tree<std::__cxx11::basic_string<char>, std::pair<const std::__cxx11::basic_string<char>, llvm::AllocaInst *>, std::_Select1st<std::pair<const std::__cxx11::basic_string<char>, llvm::AllocaInst *>>, std::less<std::__cxx11::basic_string<char>>>::_Rb_tree_impl"* %3 to %"class.std::allocator.98"*
  call void @_ZNSaISt13_Rb_tree_nodeISt4pairIKNSt7__cxx1112basic_stringIcSt11char_traitsIcESaIcEEEPN4llvm10AllocaInstEEEEC2Ev(%"class.std::allocator.98"* nonnull align 1 dereferenceable(1) %4) #2
  %5 = bitcast %"struct.std::_Rb_tree<std::__cxx11::basic_string<char>, std::pair<const std::__cxx11::basic_string<char>, llvm::AllocaInst *>, std::_Select1st<std::pair<const std::__cxx11::basic_string<char>, llvm::AllocaInst *>>, std::less<std::__cxx11::basic_string<char>>>::_Rb_tree_impl"* %3 to %"struct.std::_Rb_tree_key_compare.101"*
  call void @_ZNSt20_Rb_tree_key_compareISt4lessINSt7__cxx1112basic_stringIcSt11char_traitsIcESaIcEEEEEC2Ev(%"struct.std::_Rb_tree_key_compare.101"* nonnull align 1 dereferenceable(1) %5) #2
  %6 = bitcast %"struct.std::_Rb_tree<std::__cxx11::basic_string<char>, std::pair<const std::__cxx11::basic_string<char>, llvm::AllocaInst *>, std::_Select1st<std::pair<const std::__cxx11::basic_string<char>, llvm::AllocaInst *>>, std::less<std::__cxx11::basic_string<char>>>::_Rb_tree_impl"* %3 to i8*
  %7 = getelementptr inbounds i8, i8* %6, i64 8
  %8 = bitcast i8* %7 to %"struct.std::_Rb_tree_header"*
  call void @_ZNSt15_Rb_tree_headerC2Ev(%"struct.std::_Rb_tree_header"* nonnull align 8 dereferenceable(40) %8) #2
  ret void
}

; Function Attrs: noinline nounwind optnone uwtable
define linkonce_odr dso_local void @_ZNSaISt13_Rb_tree_nodeISt4pairIKNSt7__cxx1112basic_stringIcSt11char_traitsIcESaIcEEEPN4llvm10AllocaInstEEEEC2Ev(%"class.std::allocator.98"* nonnull align 1 dereferenceable(1) %0) unnamed_addr #3 comdat align 2 {
  %2 = alloca %"class.std::allocator.98"*, align 8
  store %"class.std::allocator.98"* %0, %"class.std::allocator.98"** %2, align 8
  %3 = load %"class.std::allocator.98"*, %"class.std::allocator.98"** %2, align 8
  %4 = bitcast %"class.std::allocator.98"* %3 to %"class.__gnu_cxx::new_allocator.99"*
  call void @_ZN9__gnu_cxx13new_allocatorISt13_Rb_tree_nodeISt4pairIKNSt7__cxx1112basic_stringIcSt11char_traitsIcESaIcEEEPN4llvm10AllocaInstEEEEC2Ev(%"class.__gnu_cxx::new_allocator.99"* nonnull align 1 dereferenceable(1) %4) #2
  ret void
}

; Function Attrs: noinline nounwind optnone uwtable
define linkonce_odr dso_local void @_ZNSt20_Rb_tree_key_compareISt4lessINSt7__cxx1112basic_stringIcSt11char_traitsIcESaIcEEEEEC2Ev(%"struct.std::_Rb_tree_key_compare.101"* nonnull align 1 dereferenceable(1) %0) unnamed_addr #3 comdat align 2 {
  %2 = alloca %"struct.std::_Rb_tree_key_compare.101"*, align 8
  store %"struct.std::_Rb_tree_key_compare.101"* %0, %"struct.std::_Rb_tree_key_compare.101"** %2, align 8
  %3 = load %"struct.std::_Rb_tree_key_compare.101"*, %"struct.std::_Rb_tree_key_compare.101"** %2, align 8
  %4 = getelementptr inbounds %"struct.std::_Rb_tree_key_compare.101", %"struct.std::_Rb_tree_key_compare.101"* %3, i32 0, i32 0
  ret void
}

; Function Attrs: noinline nounwind optnone uwtable
define linkonce_odr dso_local void @_ZN9__gnu_cxx13new_allocatorISt13_Rb_tree_nodeISt4pairIKNSt7__cxx1112basic_stringIcSt11char_traitsIcESaIcEEEPN4llvm10AllocaInstEEEEC2Ev(%"class.__gnu_cxx::new_allocator.99"* nonnull align 1 dereferenceable(1) %0) unnamed_addr #3 comdat align 2 {
  %2 = alloca %"class.__gnu_cxx::new_allocator.99"*, align 8
  store %"class.__gnu_cxx::new_allocator.99"* %0, %"class.__gnu_cxx::new_allocator.99"** %2, align 8
  %3 = load %"class.__gnu_cxx::new_allocator.99"*, %"class.__gnu_cxx::new_allocator.99"** %2, align 8
  ret void
}

; Function Attrs: noinline nounwind optnone uwtable
define linkonce_odr dso_local void @_ZNSt8_Rb_treeINSt7__cxx1112basic_stringIcSt11char_traitsIcESaIcEEESt4pairIKS5_PN4llvm10AllocaInstEESt10_Select1stISB_ESt4lessIS5_ESaISB_EED2Ev(%"class.std::_Rb_tree.97"* nonnull align 8 dereferenceable(48) %0) unnamed_addr #3 comdat align 2 personality i8* bitcast (i32 (...)* @__gxx_personality_seh0 to i8*) {
  %2 = alloca %"class.std::_Rb_tree.97"*, align 8
  %3 = alloca i8*, align 8
  %4 = alloca i32, align 4
  store %"class.std::_Rb_tree.97"* %0, %"class.std::_Rb_tree.97"** %2, align 8
  %5 = load %"class.std::_Rb_tree.97"*, %"class.std::_Rb_tree.97"** %2, align 8
  %6 = call %"struct.std::_Rb_tree_node.254"* @_ZNSt8_Rb_treeINSt7__cxx1112basic_stringIcSt11char_traitsIcESaIcEEESt4pairIKS5_PN4llvm10AllocaInstEESt10_Select1stISB_ESt4lessIS5_ESaISB_EE8_M_beginEv(%"class.std::_Rb_tree.97"* nonnull align 8 dereferenceable(48) %5) #2
  invoke void @_ZNSt8_Rb_treeINSt7__cxx1112basic_stringIcSt11char_traitsIcESaIcEEESt4pairIKS5_PN4llvm10AllocaInstEESt10_Select1stISB_ESt4lessIS5_ESaISB_EE8_M_eraseEPSt13_Rb_tree_nodeISB_E(%"class.std::_Rb_tree.97"* nonnull align 8 dereferenceable(48) %5, %"struct.std::_Rb_tree_node.254"* %6)
          to label %7 unwind label %9

7:                                                ; preds = %1
  %8 = getelementptr inbounds %"class.std::_Rb_tree.97", %"class.std::_Rb_tree.97"* %5, i32 0, i32 0
  call void @_ZNSt8_Rb_treeINSt7__cxx1112basic_stringIcSt11char_traitsIcESaIcEEESt4pairIKS5_PN4llvm10AllocaInstEESt10_Select1stISB_ESt4lessIS5_ESaISB_EE13_Rb_tree_implISF_Lb1EED2Ev(%"struct.std::_Rb_tree<std::__cxx11::basic_string<char>, std::pair<const std::__cxx11::basic_string<char>, llvm::AllocaInst *>, std::_Select1st<std::pair<const std::__cxx11::basic_string<char>, llvm::AllocaInst *>>, std::less<std::__cxx11::basic_string<char>>>::_Rb_tree_impl"* nonnull align 8 dereferenceable(48) %8) #2
  ret void

9:                                                ; preds = %1
  %10 = landingpad { i8*, i32 }
          catch i8* null
  %11 = extractvalue { i8*, i32 } %10, 0
  store i8* %11, i8** %3, align 8
  %12 = extractvalue { i8*, i32 } %10, 1
  store i32 %12, i32* %4, align 4
  %13 = getelementptr inbounds %"class.std::_Rb_tree.97", %"class.std::_Rb_tree.97"* %5, i32 0, i32 0
  call void @_ZNSt8_Rb_treeINSt7__cxx1112basic_stringIcSt11char_traitsIcESaIcEEESt4pairIKS5_PN4llvm10AllocaInstEESt10_Select1stISB_ESt4lessIS5_ESaISB_EE13_Rb_tree_implISF_Lb1EED2Ev(%"struct.std::_Rb_tree<std::__cxx11::basic_string<char>, std::pair<const std::__cxx11::basic_string<char>, llvm::AllocaInst *>, std::_Select1st<std::pair<const std::__cxx11::basic_string<char>, llvm::AllocaInst *>>, std::less<std::__cxx11::basic_string<char>>>::_Rb_tree_impl"* nonnull align 8 dereferenceable(48) %13) #2
  br label %14

14:                                               ; preds = %9
  %15 = load i8*, i8** %3, align 8
  call void @__clang_call_terminate(i8* %15) #21
  unreachable
}

; Function Attrs: mustprogress noinline optnone uwtable
define linkonce_odr dso_local void @_ZNSt8_Rb_treeINSt7__cxx1112basic_stringIcSt11char_traitsIcESaIcEEESt4pairIKS5_PN4llvm10AllocaInstEESt10_Select1stISB_ESt4lessIS5_ESaISB_EE8_M_eraseEPSt13_Rb_tree_nodeISB_E(%"class.std::_Rb_tree.97"* nonnull align 8 dereferenceable(48) %0, %"struct.std::_Rb_tree_node.254"* %1) #6 comdat align 2 {
  %3 = alloca %"class.std::_Rb_tree.97"*, align 8
  %4 = alloca %"struct.std::_Rb_tree_node.254"*, align 8
  %5 = alloca %"struct.std::_Rb_tree_node.254"*, align 8
  store %"class.std::_Rb_tree.97"* %0, %"class.std::_Rb_tree.97"** %3, align 8
  store %"struct.std::_Rb_tree_node.254"* %1, %"struct.std::_Rb_tree_node.254"** %4, align 8
  %6 = load %"class.std::_Rb_tree.97"*, %"class.std::_Rb_tree.97"** %3, align 8
  br label %7

7:                                                ; preds = %10, %2
  %8 = load %"struct.std::_Rb_tree_node.254"*, %"struct.std::_Rb_tree_node.254"** %4, align 8
  %9 = icmp ne %"struct.std::_Rb_tree_node.254"* %8, null
  br i1 %9, label %10, label %19

10:                                               ; preds = %7
  %11 = load %"struct.std::_Rb_tree_node.254"*, %"struct.std::_Rb_tree_node.254"** %4, align 8
  %12 = bitcast %"struct.std::_Rb_tree_node.254"* %11 to %"struct.std::_Rb_tree_node_base"*
  %13 = call %"struct.std::_Rb_tree_node.254"* @_ZNSt8_Rb_treeINSt7__cxx1112basic_stringIcSt11char_traitsIcESaIcEEESt4pairIKS5_PN4llvm10AllocaInstEESt10_Select1stISB_ESt4lessIS5_ESaISB_EE8_S_rightEPSt18_Rb_tree_node_base(%"struct.std::_Rb_tree_node_base"* %12) #2
  call void @_ZNSt8_Rb_treeINSt7__cxx1112basic_stringIcSt11char_traitsIcESaIcEEESt4pairIKS5_PN4llvm10AllocaInstEESt10_Select1stISB_ESt4lessIS5_ESaISB_EE8_M_eraseEPSt13_Rb_tree_nodeISB_E(%"class.std::_Rb_tree.97"* nonnull align 8 dereferenceable(48) %6, %"struct.std::_Rb_tree_node.254"* %13)
  %14 = load %"struct.std::_Rb_tree_node.254"*, %"struct.std::_Rb_tree_node.254"** %4, align 8
  %15 = bitcast %"struct.std::_Rb_tree_node.254"* %14 to %"struct.std::_Rb_tree_node_base"*
  %16 = call %"struct.std::_Rb_tree_node.254"* @_ZNSt8_Rb_treeINSt7__cxx1112basic_stringIcSt11char_traitsIcESaIcEEESt4pairIKS5_PN4llvm10AllocaInstEESt10_Select1stISB_ESt4lessIS5_ESaISB_EE7_S_leftEPSt18_Rb_tree_node_base(%"struct.std::_Rb_tree_node_base"* %15) #2
  store %"struct.std::_Rb_tree_node.254"* %16, %"struct.std::_Rb_tree_node.254"** %5, align 8
  %17 = load %"struct.std::_Rb_tree_node.254"*, %"struct.std::_Rb_tree_node.254"** %4, align 8
  call void @_ZNSt8_Rb_treeINSt7__cxx1112basic_stringIcSt11char_traitsIcESaIcEEESt4pairIKS5_PN4llvm10AllocaInstEESt10_Select1stISB_ESt4lessIS5_ESaISB_EE12_M_drop_nodeEPSt13_Rb_tree_nodeISB_E(%"class.std::_Rb_tree.97"* nonnull align 8 dereferenceable(48) %6, %"struct.std::_Rb_tree_node.254"* %17) #2
  %18 = load %"struct.std::_Rb_tree_node.254"*, %"struct.std::_Rb_tree_node.254"** %5, align 8
  store %"struct.std::_Rb_tree_node.254"* %18, %"struct.std::_Rb_tree_node.254"** %4, align 8
  br label %7, !llvm.loop !7

19:                                               ; preds = %7
  ret void
}

; Function Attrs: mustprogress noinline nounwind optnone uwtable
define linkonce_odr dso_local %"struct.std::_Rb_tree_node.254"* @_ZNSt8_Rb_treeINSt7__cxx1112basic_stringIcSt11char_traitsIcESaIcEEESt4pairIKS5_PN4llvm10AllocaInstEESt10_Select1stISB_ESt4lessIS5_ESaISB_EE8_M_beginEv(%"class.std::_Rb_tree.97"* nonnull align 8 dereferenceable(48) %0) #7 comdat align 2 {
  %2 = alloca %"class.std::_Rb_tree.97"*, align 8
  store %"class.std::_Rb_tree.97"* %0, %"class.std::_Rb_tree.97"** %2, align 8
  %3 = load %"class.std::_Rb_tree.97"*, %"class.std::_Rb_tree.97"** %2, align 8
  %4 = call %"struct.std::_Rb_tree_node.254"* @_ZNKSt8_Rb_treeINSt7__cxx1112basic_stringIcSt11char_traitsIcESaIcEEESt4pairIKS5_PN4llvm10AllocaInstEESt10_Select1stISB_ESt4lessIS5_ESaISB_EE9_M_mbeginEv(%"class.std::_Rb_tree.97"* nonnull align 8 dereferenceable(48) %3) #2
  ret %"struct.std::_Rb_tree_node.254"* %4
}

; Function Attrs: noinline nounwind optnone uwtable
define linkonce_odr dso_local void @_ZNSt8_Rb_treeINSt7__cxx1112basic_stringIcSt11char_traitsIcESaIcEEESt4pairIKS5_PN4llvm10AllocaInstEESt10_Select1stISB_ESt4lessIS5_ESaISB_EE13_Rb_tree_implISF_Lb1EED2Ev(%"struct.std::_Rb_tree<std::__cxx11::basic_string<char>, std::pair<const std::__cxx11::basic_string<char>, llvm::AllocaInst *>, std::_Select1st<std::pair<const std::__cxx11::basic_string<char>, llvm::AllocaInst *>>, std::less<std::__cxx11::basic_string<char>>>::_Rb_tree_impl"* nonnull align 8 dereferenceable(48) %0) unnamed_addr #3 comdat align 2 {
  %2 = alloca %"struct.std::_Rb_tree<std::__cxx11::basic_string<char>, std::pair<const std::__cxx11::basic_string<char>, llvm::AllocaInst *>, std::_Select1st<std::pair<const std::__cxx11::basic_string<char>, llvm::AllocaInst *>>, std::less<std::__cxx11::basic_string<char>>>::_Rb_tree_impl"*, align 8
  store %"struct.std::_Rb_tree<std::__cxx11::basic_string<char>, std::pair<const std::__cxx11::basic_string<char>, llvm::AllocaInst *>, std::_Select1st<std::pair<const std::__cxx11::basic_string<char>, llvm::AllocaInst *>>, std::less<std::__cxx11::basic_string<char>>>::_Rb_tree_impl"* %0, %"struct.std::_Rb_tree<std::__cxx11::basic_string<char>, std::pair<const std::__cxx11::basic_string<char>, llvm::AllocaInst *>, std::_Select1st<std::pair<const std::__cxx11::basic_string<char>, llvm::AllocaInst *>>, std::less<std::__cxx11::basic_string<char>>>::_Rb_tree_impl"** %2, align 8
  %3 = load %"struct.std::_Rb_tree<std::__cxx11::basic_string<char>, std::pair<const std::__cxx11::basic_string<char>, llvm::AllocaInst *>, std::_Select1st<std::pair<const std::__cxx11::basic_string<char>, llvm::AllocaInst *>>, std::less<std::__cxx11::basic_string<char>>>::_Rb_tree_impl"*, %"struct.std::_Rb_tree<std::__cxx11::basic_string<char>, std::pair<const std::__cxx11::basic_string<char>, llvm::AllocaInst *>, std::_Select1st<std::pair<const std::__cxx11::basic_string<char>, llvm::AllocaInst *>>, std::less<std::__cxx11::basic_string<char>>>::_Rb_tree_impl"** %2, align 8
  %4 = bitcast %"struct.std::_Rb_tree<std::__cxx11::basic_string<char>, std::pair<const std::__cxx11::basic_string<char>, llvm::AllocaInst *>, std::_Select1st<std::pair<const std::__cxx11::basic_string<char>, llvm::AllocaInst *>>, std::less<std::__cxx11::basic_string<char>>>::_Rb_tree_impl"* %3 to %"class.std::allocator.98"*
  call void @_ZNSaISt13_Rb_tree_nodeISt4pairIKNSt7__cxx1112basic_stringIcSt11char_traitsIcESaIcEEEPN4llvm10AllocaInstEEEED2Ev(%"class.std::allocator.98"* nonnull align 1 dereferenceable(1) %4) #2
  ret void
}

; Function Attrs: mustprogress noinline nounwind optnone uwtable
define linkonce_odr dso_local %"struct.std::_Rb_tree_node.254"* @_ZNSt8_Rb_treeINSt7__cxx1112basic_stringIcSt11char_traitsIcESaIcEEESt4pairIKS5_PN4llvm10AllocaInstEESt10_Select1stISB_ESt4lessIS5_ESaISB_EE8_S_rightEPSt18_Rb_tree_node_base(%"struct.std::_Rb_tree_node_base"* %0) #7 comdat align 2 {
  %2 = alloca %"struct.std::_Rb_tree_node_base"*, align 8
  store %"struct.std::_Rb_tree_node_base"* %0, %"struct.std::_Rb_tree_node_base"** %2, align 8
  %3 = load %"struct.std::_Rb_tree_node_base"*, %"struct.std::_Rb_tree_node_base"** %2, align 8
  %4 = getelementptr inbounds %"struct.std::_Rb_tree_node_base", %"struct.std::_Rb_tree_node_base"* %3, i32 0, i32 3
  %5 = load %"struct.std::_Rb_tree_node_base"*, %"struct.std::_Rb_tree_node_base"** %4, align 8
  %6 = bitcast %"struct.std::_Rb_tree_node_base"* %5 to %"struct.std::_Rb_tree_node.254"*
  ret %"struct.std::_Rb_tree_node.254"* %6
}

; Function Attrs: mustprogress noinline nounwind optnone uwtable
define linkonce_odr dso_local %"struct.std::_Rb_tree_node.254"* @_ZNSt8_Rb_treeINSt7__cxx1112basic_stringIcSt11char_traitsIcESaIcEEESt4pairIKS5_PN4llvm10AllocaInstEESt10_Select1stISB_ESt4lessIS5_ESaISB_EE7_S_leftEPSt18_Rb_tree_node_base(%"struct.std::_Rb_tree_node_base"* %0) #7 comdat align 2 {
  %2 = alloca %"struct.std::_Rb_tree_node_base"*, align 8
  store %"struct.std::_Rb_tree_node_base"* %0, %"struct.std::_Rb_tree_node_base"** %2, align 8
  %3 = load %"struct.std::_Rb_tree_node_base"*, %"struct.std::_Rb_tree_node_base"** %2, align 8
  %4 = getelementptr inbounds %"struct.std::_Rb_tree_node_base", %"struct.std::_Rb_tree_node_base"* %3, i32 0, i32 2
  %5 = load %"struct.std::_Rb_tree_node_base"*, %"struct.std::_Rb_tree_node_base"** %4, align 8
  %6 = bitcast %"struct.std::_Rb_tree_node_base"* %5 to %"struct.std::_Rb_tree_node.254"*
  ret %"struct.std::_Rb_tree_node.254"* %6
}

; Function Attrs: mustprogress noinline nounwind optnone uwtable
define linkonce_odr dso_local void @_ZNSt8_Rb_treeINSt7__cxx1112basic_stringIcSt11char_traitsIcESaIcEEESt4pairIKS5_PN4llvm10AllocaInstEESt10_Select1stISB_ESt4lessIS5_ESaISB_EE12_M_drop_nodeEPSt13_Rb_tree_nodeISB_E(%"class.std::_Rb_tree.97"* nonnull align 8 dereferenceable(48) %0, %"struct.std::_Rb_tree_node.254"* %1) #7 comdat align 2 {
  %3 = alloca %"class.std::_Rb_tree.97"*, align 8
  %4 = alloca %"struct.std::_Rb_tree_node.254"*, align 8
  store %"class.std::_Rb_tree.97"* %0, %"class.std::_Rb_tree.97"** %3, align 8
  store %"struct.std::_Rb_tree_node.254"* %1, %"struct.std::_Rb_tree_node.254"** %4, align 8
  %5 = load %"class.std::_Rb_tree.97"*, %"class.std::_Rb_tree.97"** %3, align 8
  %6 = load %"struct.std::_Rb_tree_node.254"*, %"struct.std::_Rb_tree_node.254"** %4, align 8
  call void @_ZNSt8_Rb_treeINSt7__cxx1112basic_stringIcSt11char_traitsIcESaIcEEESt4pairIKS5_PN4llvm10AllocaInstEESt10_Select1stISB_ESt4lessIS5_ESaISB_EE15_M_destroy_nodeEPSt13_Rb_tree_nodeISB_E(%"class.std::_Rb_tree.97"* nonnull align 8 dereferenceable(48) %5, %"struct.std::_Rb_tree_node.254"* %6) #2
  %7 = load %"struct.std::_Rb_tree_node.254"*, %"struct.std::_Rb_tree_node.254"** %4, align 8
  call void @_ZNSt8_Rb_treeINSt7__cxx1112basic_stringIcSt11char_traitsIcESaIcEEESt4pairIKS5_PN4llvm10AllocaInstEESt10_Select1stISB_ESt4lessIS5_ESaISB_EE11_M_put_nodeEPSt13_Rb_tree_nodeISB_E(%"class.std::_Rb_tree.97"* nonnull align 8 dereferenceable(48) %5, %"struct.std::_Rb_tree_node.254"* %7) #2
  ret void
}

; Function Attrs: mustprogress noinline nounwind optnone uwtable
define linkonce_odr dso_local void @_ZNSt8_Rb_treeINSt7__cxx1112basic_stringIcSt11char_traitsIcESaIcEEESt4pairIKS5_PN4llvm10AllocaInstEESt10_Select1stISB_ESt4lessIS5_ESaISB_EE15_M_destroy_nodeEPSt13_Rb_tree_nodeISB_E(%"class.std::_Rb_tree.97"* nonnull align 8 dereferenceable(48) %0, %"struct.std::_Rb_tree_node.254"* %1) #7 comdat align 2 personality i8* bitcast (i32 (...)* @__gxx_personality_seh0 to i8*) {
  %3 = alloca %"class.std::_Rb_tree.97"*, align 8
  %4 = alloca %"struct.std::_Rb_tree_node.254"*, align 8
  store %"class.std::_Rb_tree.97"* %0, %"class.std::_Rb_tree.97"** %3, align 8
  store %"struct.std::_Rb_tree_node.254"* %1, %"struct.std::_Rb_tree_node.254"** %4, align 8
  %5 = load %"class.std::_Rb_tree.97"*, %"class.std::_Rb_tree.97"** %3, align 8
  %6 = call nonnull align 1 dereferenceable(1) %"class.std::allocator.98"* @_ZNSt8_Rb_treeINSt7__cxx1112basic_stringIcSt11char_traitsIcESaIcEEESt4pairIKS5_PN4llvm10AllocaInstEESt10_Select1stISB_ESt4lessIS5_ESaISB_EE21_M_get_Node_allocatorEv(%"class.std::_Rb_tree.97"* nonnull align 8 dereferenceable(48) %5) #2
  %7 = load %"struct.std::_Rb_tree_node.254"*, %"struct.std::_Rb_tree_node.254"** %4, align 8
  %8 = invoke %"struct.std::pair.256"* @_ZNSt13_Rb_tree_nodeISt4pairIKNSt7__cxx1112basic_stringIcSt11char_traitsIcESaIcEEEPN4llvm10AllocaInstEEE9_M_valptrEv(%"struct.std::_Rb_tree_node.254"* nonnull align 8 dereferenceable(72) %7)
          to label %9 unwind label %11

9:                                                ; preds = %2
  call void @_ZNSt16allocator_traitsISaISt13_Rb_tree_nodeISt4pairIKNSt7__cxx1112basic_stringIcSt11char_traitsIcESaIcEEEPN4llvm10AllocaInstEEEEE7destroyISC_EEvRSE_PT_(%"class.std::allocator.98"* nonnull align 1 dereferenceable(1) %6, %"struct.std::pair.256"* %8) #2
  %10 = load %"struct.std::_Rb_tree_node.254"*, %"struct.std::_Rb_tree_node.254"** %4, align 8
  ret void

11:                                               ; preds = %2
  %12 = landingpad { i8*, i32 }
          catch i8* null
  %13 = extractvalue { i8*, i32 } %12, 0
  call void @__clang_call_terminate(i8* %13) #21
  unreachable
}

; Function Attrs: mustprogress noinline nounwind optnone uwtable
define linkonce_odr dso_local void @_ZNSt8_Rb_treeINSt7__cxx1112basic_stringIcSt11char_traitsIcESaIcEEESt4pairIKS5_PN4llvm10AllocaInstEESt10_Select1stISB_ESt4lessIS5_ESaISB_EE11_M_put_nodeEPSt13_Rb_tree_nodeISB_E(%"class.std::_Rb_tree.97"* nonnull align 8 dereferenceable(48) %0, %"struct.std::_Rb_tree_node.254"* %1) #7 comdat align 2 personality i8* bitcast (i32 (...)* @__gxx_personality_seh0 to i8*) {
  %3 = alloca %"class.std::_Rb_tree.97"*, align 8
  %4 = alloca %"struct.std::_Rb_tree_node.254"*, align 8
  store %"class.std::_Rb_tree.97"* %0, %"class.std::_Rb_tree.97"** %3, align 8
  store %"struct.std::_Rb_tree_node.254"* %1, %"struct.std::_Rb_tree_node.254"** %4, align 8
  %5 = load %"class.std::_Rb_tree.97"*, %"class.std::_Rb_tree.97"** %3, align 8
  %6 = call nonnull align 1 dereferenceable(1) %"class.std::allocator.98"* @_ZNSt8_Rb_treeINSt7__cxx1112basic_stringIcSt11char_traitsIcESaIcEEESt4pairIKS5_PN4llvm10AllocaInstEESt10_Select1stISB_ESt4lessIS5_ESaISB_EE21_M_get_Node_allocatorEv(%"class.std::_Rb_tree.97"* nonnull align 8 dereferenceable(48) %5) #2
  %7 = load %"struct.std::_Rb_tree_node.254"*, %"struct.std::_Rb_tree_node.254"** %4, align 8
  invoke void @_ZNSt16allocator_traitsISaISt13_Rb_tree_nodeISt4pairIKNSt7__cxx1112basic_stringIcSt11char_traitsIcESaIcEEEPN4llvm10AllocaInstEEEEE10deallocateERSE_PSD_y(%"class.std::allocator.98"* nonnull align 1 dereferenceable(1) %6, %"struct.std::_Rb_tree_node.254"* %7, i64 1)
          to label %8 unwind label %9

8:                                                ; preds = %2
  ret void

9:                                                ; preds = %2
  %10 = landingpad { i8*, i32 }
          catch i8* null
  %11 = extractvalue { i8*, i32 } %10, 0
  call void @__clang_call_terminate(i8* %11) #21
  unreachable
}

; Function Attrs: mustprogress noinline nounwind optnone uwtable
define linkonce_odr dso_local void @_ZNSt16allocator_traitsISaISt13_Rb_tree_nodeISt4pairIKNSt7__cxx1112basic_stringIcSt11char_traitsIcESaIcEEEPN4llvm10AllocaInstEEEEE7destroyISC_EEvRSE_PT_(%"class.std::allocator.98"* nonnull align 1 dereferenceable(1) %0, %"struct.std::pair.256"* %1) #7 comdat align 2 {
  %3 = alloca %"class.std::allocator.98"*, align 8
  %4 = alloca %"struct.std::pair.256"*, align 8
  store %"class.std::allocator.98"* %0, %"class.std::allocator.98"** %3, align 8
  store %"struct.std::pair.256"* %1, %"struct.std::pair.256"** %4, align 8
  %5 = load %"class.std::allocator.98"*, %"class.std::allocator.98"** %3, align 8
  %6 = bitcast %"class.std::allocator.98"* %5 to %"class.__gnu_cxx::new_allocator.99"*
  %7 = load %"struct.std::pair.256"*, %"struct.std::pair.256"** %4, align 8
  call void @_ZN9__gnu_cxx13new_allocatorISt13_Rb_tree_nodeISt4pairIKNSt7__cxx1112basic_stringIcSt11char_traitsIcESaIcEEEPN4llvm10AllocaInstEEEE7destroyISD_EEvPT_(%"class.__gnu_cxx::new_allocator.99"* nonnull align 1 dereferenceable(1) %6, %"struct.std::pair.256"* %7) #2
  ret void
}

; Function Attrs: mustprogress noinline nounwind optnone uwtable
define linkonce_odr dso_local nonnull align 1 dereferenceable(1) %"class.std::allocator.98"* @_ZNSt8_Rb_treeINSt7__cxx1112basic_stringIcSt11char_traitsIcESaIcEEESt4pairIKS5_PN4llvm10AllocaInstEESt10_Select1stISB_ESt4lessIS5_ESaISB_EE21_M_get_Node_allocatorEv(%"class.std::_Rb_tree.97"* nonnull align 8 dereferenceable(48) %0) #7 comdat align 2 {
  %2 = alloca %"class.std::_Rb_tree.97"*, align 8
  store %"class.std::_Rb_tree.97"* %0, %"class.std::_Rb_tree.97"** %2, align 8
  %3 = load %"class.std::_Rb_tree.97"*, %"class.std::_Rb_tree.97"** %2, align 8
  %4 = getelementptr inbounds %"class.std::_Rb_tree.97", %"class.std::_Rb_tree.97"* %3, i32 0, i32 0
  %5 = bitcast %"struct.std::_Rb_tree<std::__cxx11::basic_string<char>, std::pair<const std::__cxx11::basic_string<char>, llvm::AllocaInst *>, std::_Select1st<std::pair<const std::__cxx11::basic_string<char>, llvm::AllocaInst *>>, std::less<std::__cxx11::basic_string<char>>>::_Rb_tree_impl"* %4 to %"class.std::allocator.98"*
  ret %"class.std::allocator.98"* %5
}

; Function Attrs: mustprogress noinline nounwind optnone uwtable
define linkonce_odr dso_local %"struct.std::pair.256"* @_ZNSt13_Rb_tree_nodeISt4pairIKNSt7__cxx1112basic_stringIcSt11char_traitsIcESaIcEEEPN4llvm10AllocaInstEEE9_M_valptrEv(%"struct.std::_Rb_tree_node.254"* nonnull align 8 dereferenceable(72) %0) #7 comdat align 2 {
  %2 = alloca %"struct.std::_Rb_tree_node.254"*, align 8
  store %"struct.std::_Rb_tree_node.254"* %0, %"struct.std::_Rb_tree_node.254"** %2, align 8
  %3 = load %"struct.std::_Rb_tree_node.254"*, %"struct.std::_Rb_tree_node.254"** %2, align 8
  %4 = getelementptr inbounds %"struct.std::_Rb_tree_node.254", %"struct.std::_Rb_tree_node.254"* %3, i32 0, i32 1
  %5 = call %"struct.std::pair.256"* @_ZN9__gnu_cxx16__aligned_membufISt4pairIKNSt7__cxx1112basic_stringIcSt11char_traitsIcESaIcEEEPN4llvm10AllocaInstEEE6_M_ptrEv(%"struct.__gnu_cxx::__aligned_membuf.255"* nonnull align 8 dereferenceable(40) %4) #2
  ret %"struct.std::pair.256"* %5
}

; Function Attrs: mustprogress noinline nounwind optnone uwtable
define linkonce_odr dso_local void @_ZN9__gnu_cxx13new_allocatorISt13_Rb_tree_nodeISt4pairIKNSt7__cxx1112basic_stringIcSt11char_traitsIcESaIcEEEPN4llvm10AllocaInstEEEE7destroyISD_EEvPT_(%"class.__gnu_cxx::new_allocator.99"* nonnull align 1 dereferenceable(1) %0, %"struct.std::pair.256"* %1) #7 comdat align 2 {
  %3 = alloca %"class.__gnu_cxx::new_allocator.99"*, align 8
  %4 = alloca %"struct.std::pair.256"*, align 8
  store %"class.__gnu_cxx::new_allocator.99"* %0, %"class.__gnu_cxx::new_allocator.99"** %3, align 8
  store %"struct.std::pair.256"* %1, %"struct.std::pair.256"** %4, align 8
  %5 = load %"class.__gnu_cxx::new_allocator.99"*, %"class.__gnu_cxx::new_allocator.99"** %3, align 8
  %6 = load %"struct.std::pair.256"*, %"struct.std::pair.256"** %4, align 8
  call void @_ZNSt4pairIKNSt7__cxx1112basic_stringIcSt11char_traitsIcESaIcEEEPN4llvm10AllocaInstEED2Ev(%"struct.std::pair.256"* nonnull align 8 dereferenceable(40) %6) #2
  ret void
}

; Function Attrs: noinline nounwind optnone uwtable
define linkonce_odr dso_local void @_ZNSt4pairIKNSt7__cxx1112basic_stringIcSt11char_traitsIcESaIcEEEPN4llvm10AllocaInstEED2Ev(%"struct.std::pair.256"* nonnull align 8 dereferenceable(40) %0) unnamed_addr #3 comdat align 2 {
  %2 = alloca %"struct.std::pair.256"*, align 8
  store %"struct.std::pair.256"* %0, %"struct.std::pair.256"** %2, align 8
  %3 = load %"struct.std::pair.256"*, %"struct.std::pair.256"** %2, align 8
  %4 = getelementptr inbounds %"struct.std::pair.256", %"struct.std::pair.256"* %3, i32 0, i32 0
  call void @_ZNSt7__cxx1112basic_stringIcSt11char_traitsIcESaIcEED1Ev(%"class.std::__cxx11::basic_string"* nonnull align 8 dereferenceable(32) %4) #2
  ret void
}

; Function Attrs: mustprogress noinline nounwind optnone uwtable
define linkonce_odr dso_local %"struct.std::pair.256"* @_ZN9__gnu_cxx16__aligned_membufISt4pairIKNSt7__cxx1112basic_stringIcSt11char_traitsIcESaIcEEEPN4llvm10AllocaInstEEE6_M_ptrEv(%"struct.__gnu_cxx::__aligned_membuf.255"* nonnull align 8 dereferenceable(40) %0) #7 comdat align 2 {
  %2 = alloca %"struct.__gnu_cxx::__aligned_membuf.255"*, align 8
  store %"struct.__gnu_cxx::__aligned_membuf.255"* %0, %"struct.__gnu_cxx::__aligned_membuf.255"** %2, align 8
  %3 = load %"struct.__gnu_cxx::__aligned_membuf.255"*, %"struct.__gnu_cxx::__aligned_membuf.255"** %2, align 8
  %4 = call i8* @_ZN9__gnu_cxx16__aligned_membufISt4pairIKNSt7__cxx1112basic_stringIcSt11char_traitsIcESaIcEEEPN4llvm10AllocaInstEEE7_M_addrEv(%"struct.__gnu_cxx::__aligned_membuf.255"* nonnull align 8 dereferenceable(40) %3) #2
  %5 = bitcast i8* %4 to %"struct.std::pair.256"*
  ret %"struct.std::pair.256"* %5
}

; Function Attrs: mustprogress noinline nounwind optnone uwtable
define linkonce_odr dso_local i8* @_ZN9__gnu_cxx16__aligned_membufISt4pairIKNSt7__cxx1112basic_stringIcSt11char_traitsIcESaIcEEEPN4llvm10AllocaInstEEE7_M_addrEv(%"struct.__gnu_cxx::__aligned_membuf.255"* nonnull align 8 dereferenceable(40) %0) #7 comdat align 2 {
  %2 = alloca %"struct.__gnu_cxx::__aligned_membuf.255"*, align 8
  store %"struct.__gnu_cxx::__aligned_membuf.255"* %0, %"struct.__gnu_cxx::__aligned_membuf.255"** %2, align 8
  %3 = load %"struct.__gnu_cxx::__aligned_membuf.255"*, %"struct.__gnu_cxx::__aligned_membuf.255"** %2, align 8
  %4 = getelementptr inbounds %"struct.__gnu_cxx::__aligned_membuf.255", %"struct.__gnu_cxx::__aligned_membuf.255"* %3, i32 0, i32 0
  %5 = bitcast [40 x i8]* %4 to i8*
  ret i8* %5
}

; Function Attrs: mustprogress noinline optnone uwtable
define linkonce_odr dso_local void @_ZNSt16allocator_traitsISaISt13_Rb_tree_nodeISt4pairIKNSt7__cxx1112basic_stringIcSt11char_traitsIcESaIcEEEPN4llvm10AllocaInstEEEEE10deallocateERSE_PSD_y(%"class.std::allocator.98"* nonnull align 1 dereferenceable(1) %0, %"struct.std::_Rb_tree_node.254"* %1, i64 %2) #6 comdat align 2 {
  %4 = alloca %"class.std::allocator.98"*, align 8
  %5 = alloca %"struct.std::_Rb_tree_node.254"*, align 8
  %6 = alloca i64, align 8
  store %"class.std::allocator.98"* %0, %"class.std::allocator.98"** %4, align 8
  store %"struct.std::_Rb_tree_node.254"* %1, %"struct.std::_Rb_tree_node.254"** %5, align 8
  store i64 %2, i64* %6, align 8
  %7 = load %"class.std::allocator.98"*, %"class.std::allocator.98"** %4, align 8
  %8 = bitcast %"class.std::allocator.98"* %7 to %"class.__gnu_cxx::new_allocator.99"*
  %9 = load %"struct.std::_Rb_tree_node.254"*, %"struct.std::_Rb_tree_node.254"** %5, align 8
  %10 = load i64, i64* %6, align 8
  call void @_ZN9__gnu_cxx13new_allocatorISt13_Rb_tree_nodeISt4pairIKNSt7__cxx1112basic_stringIcSt11char_traitsIcESaIcEEEPN4llvm10AllocaInstEEEE10deallocateEPSE_y(%"class.__gnu_cxx::new_allocator.99"* nonnull align 1 dereferenceable(1) %8, %"struct.std::_Rb_tree_node.254"* %9, i64 %10)
  ret void
}

; Function Attrs: mustprogress noinline nounwind optnone uwtable
define linkonce_odr dso_local void @_ZN9__gnu_cxx13new_allocatorISt13_Rb_tree_nodeISt4pairIKNSt7__cxx1112basic_stringIcSt11char_traitsIcESaIcEEEPN4llvm10AllocaInstEEEE10deallocateEPSE_y(%"class.__gnu_cxx::new_allocator.99"* nonnull align 1 dereferenceable(1) %0, %"struct.std::_Rb_tree_node.254"* %1, i64 %2) #7 comdat align 2 {
  %4 = alloca %"class.__gnu_cxx::new_allocator.99"*, align 8
  %5 = alloca %"struct.std::_Rb_tree_node.254"*, align 8
  %6 = alloca i64, align 8
  store %"class.__gnu_cxx::new_allocator.99"* %0, %"class.__gnu_cxx::new_allocator.99"** %4, align 8
  store %"struct.std::_Rb_tree_node.254"* %1, %"struct.std::_Rb_tree_node.254"** %5, align 8
  store i64 %2, i64* %6, align 8
  %7 = load %"class.__gnu_cxx::new_allocator.99"*, %"class.__gnu_cxx::new_allocator.99"** %4, align 8
  %8 = load %"struct.std::_Rb_tree_node.254"*, %"struct.std::_Rb_tree_node.254"** %5, align 8
  %9 = bitcast %"struct.std::_Rb_tree_node.254"* %8 to i8*
  call void @_ZdlPv(i8* %9) #2
  ret void
}

; Function Attrs: mustprogress noinline nounwind optnone uwtable
define linkonce_odr dso_local %"struct.std::_Rb_tree_node.254"* @_ZNKSt8_Rb_treeINSt7__cxx1112basic_stringIcSt11char_traitsIcESaIcEEESt4pairIKS5_PN4llvm10AllocaInstEESt10_Select1stISB_ESt4lessIS5_ESaISB_EE9_M_mbeginEv(%"class.std::_Rb_tree.97"* nonnull align 8 dereferenceable(48) %0) #7 comdat align 2 {
  %2 = alloca %"class.std::_Rb_tree.97"*, align 8
  store %"class.std::_Rb_tree.97"* %0, %"class.std::_Rb_tree.97"** %2, align 8
  %3 = load %"class.std::_Rb_tree.97"*, %"class.std::_Rb_tree.97"** %2, align 8
  %4 = getelementptr inbounds %"class.std::_Rb_tree.97", %"class.std::_Rb_tree.97"* %3, i32 0, i32 0
  %5 = bitcast %"struct.std::_Rb_tree<std::__cxx11::basic_string<char>, std::pair<const std::__cxx11::basic_string<char>, llvm::AllocaInst *>, std::_Select1st<std::pair<const std::__cxx11::basic_string<char>, llvm::AllocaInst *>>, std::less<std::__cxx11::basic_string<char>>>::_Rb_tree_impl"* %4 to i8*
  %6 = getelementptr inbounds i8, i8* %5, i64 8
  %7 = bitcast i8* %6 to %"struct.std::_Rb_tree_header"*
  %8 = getelementptr inbounds %"struct.std::_Rb_tree_header", %"struct.std::_Rb_tree_header"* %7, i32 0, i32 0
  %9 = getelementptr inbounds %"struct.std::_Rb_tree_node_base", %"struct.std::_Rb_tree_node_base"* %8, i32 0, i32 1
  %10 = load %"struct.std::_Rb_tree_node_base"*, %"struct.std::_Rb_tree_node_base"** %9, align 8
  %11 = bitcast %"struct.std::_Rb_tree_node_base"* %10 to %"struct.std::_Rb_tree_node.254"*
  ret %"struct.std::_Rb_tree_node.254"* %11
}

; Function Attrs: noinline nounwind optnone uwtable
define linkonce_odr dso_local void @_ZNSaISt13_Rb_tree_nodeISt4pairIKNSt7__cxx1112basic_stringIcSt11char_traitsIcESaIcEEEPN4llvm10AllocaInstEEEED2Ev(%"class.std::allocator.98"* nonnull align 1 dereferenceable(1) %0) unnamed_addr #3 comdat align 2 {
  %2 = alloca %"class.std::allocator.98"*, align 8
  store %"class.std::allocator.98"* %0, %"class.std::allocator.98"** %2, align 8
  %3 = load %"class.std::allocator.98"*, %"class.std::allocator.98"** %2, align 8
  %4 = bitcast %"class.std::allocator.98"* %3 to %"class.__gnu_cxx::new_allocator.99"*
  call void @_ZN9__gnu_cxx13new_allocatorISt13_Rb_tree_nodeISt4pairIKNSt7__cxx1112basic_stringIcSt11char_traitsIcESaIcEEEPN4llvm10AllocaInstEEEED2Ev(%"class.__gnu_cxx::new_allocator.99"* nonnull align 1 dereferenceable(1) %4) #2
  ret void
}

; Function Attrs: noinline nounwind optnone uwtable
define linkonce_odr dso_local void @_ZN9__gnu_cxx13new_allocatorISt13_Rb_tree_nodeISt4pairIKNSt7__cxx1112basic_stringIcSt11char_traitsIcESaIcEEEPN4llvm10AllocaInstEEEED2Ev(%"class.__gnu_cxx::new_allocator.99"* nonnull align 1 dereferenceable(1) %0) unnamed_addr #3 comdat align 2 {
  %2 = alloca %"class.__gnu_cxx::new_allocator.99"*, align 8
  store %"class.__gnu_cxx::new_allocator.99"* %0, %"class.__gnu_cxx::new_allocator.99"** %2, align 8
  %3 = load %"class.__gnu_cxx::new_allocator.99"*, %"class.__gnu_cxx::new_allocator.99"** %2, align 8
  ret void
}

; Function Attrs: noinline nounwind optnone uwtable
define internal void @_ZNSt8_Rb_treeINSt7__cxx1112basic_stringIcSt11char_traitsIcESaIcEEESt4pairIKS5_St10unique_ptrIN12_GLOBAL__N_112PrototypeASTESt14default_deleteISA_EEESt10_Select1stISE_ESt4lessIS5_ESaISE_EEC2Ev(%"class.std::_Rb_tree.105"* nonnull align 8 dereferenceable(48) %0) unnamed_addr #3 align 2 {
  %2 = alloca %"class.std::_Rb_tree.105"*, align 8
  store %"class.std::_Rb_tree.105"* %0, %"class.std::_Rb_tree.105"** %2, align 8
  %3 = load %"class.std::_Rb_tree.105"*, %"class.std::_Rb_tree.105"** %2, align 8
  %4 = getelementptr inbounds %"class.std::_Rb_tree.105", %"class.std::_Rb_tree.105"* %3, i32 0, i32 0
  call void @_ZNSt8_Rb_treeINSt7__cxx1112basic_stringIcSt11char_traitsIcESaIcEEESt4pairIKS5_St10unique_ptrIN12_GLOBAL__N_112PrototypeASTESt14default_deleteISA_EEESt10_Select1stISE_ESt4lessIS5_ESaISE_EE13_Rb_tree_implISI_Lb1EEC2Ev(%"struct.std::_Rb_tree<std::__cxx11::basic_string<char>, std::pair<const std::__cxx11::basic_string<char>, std::unique_ptr<(anonymous namespace)::PrototypeAST>>, std::_Select1st<std::pair<const std::__cxx11::basic_string<char>, std::unique_ptr<(anonymous namespace)::PrototypeAST>>>, std::less<std::__cxx11::basic_string<char>>>::_Rb_tree_impl"* nonnull align 8 dereferenceable(48) %4) #2
  ret void
}

; Function Attrs: noinline nounwind optnone uwtable
define internal void @_ZNSt8_Rb_treeINSt7__cxx1112basic_stringIcSt11char_traitsIcESaIcEEESt4pairIKS5_St10unique_ptrIN12_GLOBAL__N_112PrototypeASTESt14default_deleteISA_EEESt10_Select1stISE_ESt4lessIS5_ESaISE_EE13_Rb_tree_implISI_Lb1EEC2Ev(%"struct.std::_Rb_tree<std::__cxx11::basic_string<char>, std::pair<const std::__cxx11::basic_string<char>, std::unique_ptr<(anonymous namespace)::PrototypeAST>>, std::_Select1st<std::pair<const std::__cxx11::basic_string<char>, std::unique_ptr<(anonymous namespace)::PrototypeAST>>>, std::less<std::__cxx11::basic_string<char>>>::_Rb_tree_impl"* nonnull align 8 dereferenceable(48) %0) unnamed_addr #3 align 2 {
  %2 = alloca %"struct.std::_Rb_tree<std::__cxx11::basic_string<char>, std::pair<const std::__cxx11::basic_string<char>, std::unique_ptr<(anonymous namespace)::PrototypeAST>>, std::_Select1st<std::pair<const std::__cxx11::basic_string<char>, std::unique_ptr<(anonymous namespace)::PrototypeAST>>>, std::less<std::__cxx11::basic_string<char>>>::_Rb_tree_impl"*, align 8
  store %"struct.std::_Rb_tree<std::__cxx11::basic_string<char>, std::pair<const std::__cxx11::basic_string<char>, std::unique_ptr<(anonymous namespace)::PrototypeAST>>, std::_Select1st<std::pair<const std::__cxx11::basic_string<char>, std::unique_ptr<(anonymous namespace)::PrototypeAST>>>, std::less<std::__cxx11::basic_string<char>>>::_Rb_tree_impl"* %0, %"struct.std::_Rb_tree<std::__cxx11::basic_string<char>, std::pair<const std::__cxx11::basic_string<char>, std::unique_ptr<(anonymous namespace)::PrototypeAST>>, std::_Select1st<std::pair<const std::__cxx11::basic_string<char>, std::unique_ptr<(anonymous namespace)::PrototypeAST>>>, std::less<std::__cxx11::basic_string<char>>>::_Rb_tree_impl"** %2, align 8
  %3 = load %"struct.std::_Rb_tree<std::__cxx11::basic_string<char>, std::pair<const std::__cxx11::basic_string<char>, std::unique_ptr<(anonymous namespace)::PrototypeAST>>, std::_Select1st<std::pair<const std::__cxx11::basic_string<char>, std::unique_ptr<(anonymous namespace)::PrototypeAST>>>, std::less<std::__cxx11::basic_string<char>>>::_Rb_tree_impl"*, %"struct.std::_Rb_tree<std::__cxx11::basic_string<char>, std::pair<const std::__cxx11::basic_string<char>, std::unique_ptr<(anonymous namespace)::PrototypeAST>>, std::_Select1st<std::pair<const std::__cxx11::basic_string<char>, std::unique_ptr<(anonymous namespace)::PrototypeAST>>>, std::less<std::__cxx11::basic_string<char>>>::_Rb_tree_impl"** %2, align 8
  %4 = bitcast %"struct.std::_Rb_tree<std::__cxx11::basic_string<char>, std::pair<const std::__cxx11::basic_string<char>, std::unique_ptr<(anonymous namespace)::PrototypeAST>>, std::_Select1st<std::pair<const std::__cxx11::basic_string<char>, std::unique_ptr<(anonymous namespace)::PrototypeAST>>>, std::less<std::__cxx11::basic_string<char>>>::_Rb_tree_impl"* %3 to %"class.std::allocator.106"*
  call void @_ZNSaISt13_Rb_tree_nodeISt4pairIKNSt7__cxx1112basic_stringIcSt11char_traitsIcESaIcEEESt10unique_ptrIN12_GLOBAL__N_112PrototypeASTESt14default_deleteISA_EEEEEC2Ev(%"class.std::allocator.106"* nonnull align 1 dereferenceable(1) %4) #2
  %5 = bitcast %"struct.std::_Rb_tree<std::__cxx11::basic_string<char>, std::pair<const std::__cxx11::basic_string<char>, std::unique_ptr<(anonymous namespace)::PrototypeAST>>, std::_Select1st<std::pair<const std::__cxx11::basic_string<char>, std::unique_ptr<(anonymous namespace)::PrototypeAST>>>, std::less<std::__cxx11::basic_string<char>>>::_Rb_tree_impl"* %3 to %"struct.std::_Rb_tree_key_compare.101"*
  call void @_ZNSt20_Rb_tree_key_compareISt4lessINSt7__cxx1112basic_stringIcSt11char_traitsIcESaIcEEEEEC2Ev(%"struct.std::_Rb_tree_key_compare.101"* nonnull align 1 dereferenceable(1) %5) #2
  %6 = bitcast %"struct.std::_Rb_tree<std::__cxx11::basic_string<char>, std::pair<const std::__cxx11::basic_string<char>, std::unique_ptr<(anonymous namespace)::PrototypeAST>>, std::_Select1st<std::pair<const std::__cxx11::basic_string<char>, std::unique_ptr<(anonymous namespace)::PrototypeAST>>>, std::less<std::__cxx11::basic_string<char>>>::_Rb_tree_impl"* %3 to i8*
  %7 = getelementptr inbounds i8, i8* %6, i64 8
  %8 = bitcast i8* %7 to %"struct.std::_Rb_tree_header"*
  call void @_ZNSt15_Rb_tree_headerC2Ev(%"struct.std::_Rb_tree_header"* nonnull align 8 dereferenceable(40) %8) #2
  ret void
}

; Function Attrs: noinline nounwind optnone uwtable
define internal void @_ZNSaISt13_Rb_tree_nodeISt4pairIKNSt7__cxx1112basic_stringIcSt11char_traitsIcESaIcEEESt10unique_ptrIN12_GLOBAL__N_112PrototypeASTESt14default_deleteISA_EEEEEC2Ev(%"class.std::allocator.106"* nonnull align 1 dereferenceable(1) %0) unnamed_addr #3 align 2 {
  %2 = alloca %"class.std::allocator.106"*, align 8
  store %"class.std::allocator.106"* %0, %"class.std::allocator.106"** %2, align 8
  %3 = load %"class.std::allocator.106"*, %"class.std::allocator.106"** %2, align 8
  %4 = bitcast %"class.std::allocator.106"* %3 to %"class.__gnu_cxx::new_allocator.107"*
  call void @_ZN9__gnu_cxx13new_allocatorISt13_Rb_tree_nodeISt4pairIKNSt7__cxx1112basic_stringIcSt11char_traitsIcESaIcEEESt10unique_ptrIN12_GLOBAL__N_112PrototypeASTESt14default_deleteISC_EEEEEC2Ev(%"class.__gnu_cxx::new_allocator.107"* nonnull align 1 dereferenceable(1) %4) #2
  ret void
}

; Function Attrs: noinline nounwind optnone uwtable
define internal void @_ZN9__gnu_cxx13new_allocatorISt13_Rb_tree_nodeISt4pairIKNSt7__cxx1112basic_stringIcSt11char_traitsIcESaIcEEESt10unique_ptrIN12_GLOBAL__N_112PrototypeASTESt14default_deleteISC_EEEEEC2Ev(%"class.__gnu_cxx::new_allocator.107"* nonnull align 1 dereferenceable(1) %0) unnamed_addr #3 align 2 {
  %2 = alloca %"class.__gnu_cxx::new_allocator.107"*, align 8
  store %"class.__gnu_cxx::new_allocator.107"* %0, %"class.__gnu_cxx::new_allocator.107"** %2, align 8
  %3 = load %"class.__gnu_cxx::new_allocator.107"*, %"class.__gnu_cxx::new_allocator.107"** %2, align 8
  ret void
}

; Function Attrs: noinline nounwind optnone uwtable
define internal void @_ZNSt8_Rb_treeINSt7__cxx1112basic_stringIcSt11char_traitsIcESaIcEEESt4pairIKS5_St10unique_ptrIN12_GLOBAL__N_112PrototypeASTESt14default_deleteISA_EEESt10_Select1stISE_ESt4lessIS5_ESaISE_EED2Ev(%"class.std::_Rb_tree.105"* nonnull align 8 dereferenceable(48) %0) unnamed_addr #3 align 2 personality i8* bitcast (i32 (...)* @__gxx_personality_seh0 to i8*) {
  %2 = alloca %"class.std::_Rb_tree.105"*, align 8
  %3 = alloca i8*, align 8
  %4 = alloca i32, align 4
  store %"class.std::_Rb_tree.105"* %0, %"class.std::_Rb_tree.105"** %2, align 8
  %5 = load %"class.std::_Rb_tree.105"*, %"class.std::_Rb_tree.105"** %2, align 8
  %6 = call %"struct.std::_Rb_tree_node.261"* @_ZNSt8_Rb_treeINSt7__cxx1112basic_stringIcSt11char_traitsIcESaIcEEESt4pairIKS5_St10unique_ptrIN12_GLOBAL__N_112PrototypeASTESt14default_deleteISA_EEESt10_Select1stISE_ESt4lessIS5_ESaISE_EE8_M_beginEv(%"class.std::_Rb_tree.105"* nonnull align 8 dereferenceable(48) %5) #2
  invoke void @_ZNSt8_Rb_treeINSt7__cxx1112basic_stringIcSt11char_traitsIcESaIcEEESt4pairIKS5_St10unique_ptrIN12_GLOBAL__N_112PrototypeASTESt14default_deleteISA_EEESt10_Select1stISE_ESt4lessIS5_ESaISE_EE8_M_eraseEPSt13_Rb_tree_nodeISE_E(%"class.std::_Rb_tree.105"* nonnull align 8 dereferenceable(48) %5, %"struct.std::_Rb_tree_node.261"* %6)
          to label %7 unwind label %9

7:                                                ; preds = %1
  %8 = getelementptr inbounds %"class.std::_Rb_tree.105", %"class.std::_Rb_tree.105"* %5, i32 0, i32 0
  call void @_ZNSt8_Rb_treeINSt7__cxx1112basic_stringIcSt11char_traitsIcESaIcEEESt4pairIKS5_St10unique_ptrIN12_GLOBAL__N_112PrototypeASTESt14default_deleteISA_EEESt10_Select1stISE_ESt4lessIS5_ESaISE_EE13_Rb_tree_implISI_Lb1EED2Ev(%"struct.std::_Rb_tree<std::__cxx11::basic_string<char>, std::pair<const std::__cxx11::basic_string<char>, std::unique_ptr<(anonymous namespace)::PrototypeAST>>, std::_Select1st<std::pair<const std::__cxx11::basic_string<char>, std::unique_ptr<(anonymous namespace)::PrototypeAST>>>, std::less<std::__cxx11::basic_string<char>>>::_Rb_tree_impl"* nonnull align 8 dereferenceable(48) %8) #2
  ret void

9:                                                ; preds = %1
  %10 = landingpad { i8*, i32 }
          catch i8* null
  %11 = extractvalue { i8*, i32 } %10, 0
  store i8* %11, i8** %3, align 8
  %12 = extractvalue { i8*, i32 } %10, 1
  store i32 %12, i32* %4, align 4
  %13 = getelementptr inbounds %"class.std::_Rb_tree.105", %"class.std::_Rb_tree.105"* %5, i32 0, i32 0
  call void @_ZNSt8_Rb_treeINSt7__cxx1112basic_stringIcSt11char_traitsIcESaIcEEESt4pairIKS5_St10unique_ptrIN12_GLOBAL__N_112PrototypeASTESt14default_deleteISA_EEESt10_Select1stISE_ESt4lessIS5_ESaISE_EE13_Rb_tree_implISI_Lb1EED2Ev(%"struct.std::_Rb_tree<std::__cxx11::basic_string<char>, std::pair<const std::__cxx11::basic_string<char>, std::unique_ptr<(anonymous namespace)::PrototypeAST>>, std::_Select1st<std::pair<const std::__cxx11::basic_string<char>, std::unique_ptr<(anonymous namespace)::PrototypeAST>>>, std::less<std::__cxx11::basic_string<char>>>::_Rb_tree_impl"* nonnull align 8 dereferenceable(48) %13) #2
  br label %14

14:                                               ; preds = %9
  %15 = load i8*, i8** %3, align 8
  call void @__clang_call_terminate(i8* %15) #21
  unreachable
}

; Function Attrs: mustprogress noinline optnone uwtable
define internal void @_ZNSt8_Rb_treeINSt7__cxx1112basic_stringIcSt11char_traitsIcESaIcEEESt4pairIKS5_St10unique_ptrIN12_GLOBAL__N_112PrototypeASTESt14default_deleteISA_EEESt10_Select1stISE_ESt4lessIS5_ESaISE_EE8_M_eraseEPSt13_Rb_tree_nodeISE_E(%"class.std::_Rb_tree.105"* nonnull align 8 dereferenceable(48) %0, %"struct.std::_Rb_tree_node.261"* %1) #6 align 2 {
  %3 = alloca %"class.std::_Rb_tree.105"*, align 8
  %4 = alloca %"struct.std::_Rb_tree_node.261"*, align 8
  %5 = alloca %"struct.std::_Rb_tree_node.261"*, align 8
  store %"class.std::_Rb_tree.105"* %0, %"class.std::_Rb_tree.105"** %3, align 8
  store %"struct.std::_Rb_tree_node.261"* %1, %"struct.std::_Rb_tree_node.261"** %4, align 8
  %6 = load %"class.std::_Rb_tree.105"*, %"class.std::_Rb_tree.105"** %3, align 8
  br label %7

7:                                                ; preds = %10, %2
  %8 = load %"struct.std::_Rb_tree_node.261"*, %"struct.std::_Rb_tree_node.261"** %4, align 8
  %9 = icmp ne %"struct.std::_Rb_tree_node.261"* %8, null
  br i1 %9, label %10, label %19

10:                                               ; preds = %7
  %11 = load %"struct.std::_Rb_tree_node.261"*, %"struct.std::_Rb_tree_node.261"** %4, align 8
  %12 = bitcast %"struct.std::_Rb_tree_node.261"* %11 to %"struct.std::_Rb_tree_node_base"*
  %13 = call %"struct.std::_Rb_tree_node.261"* @_ZNSt8_Rb_treeINSt7__cxx1112basic_stringIcSt11char_traitsIcESaIcEEESt4pairIKS5_St10unique_ptrIN12_GLOBAL__N_112PrototypeASTESt14default_deleteISA_EEESt10_Select1stISE_ESt4lessIS5_ESaISE_EE8_S_rightEPSt18_Rb_tree_node_base(%"struct.std::_Rb_tree_node_base"* %12) #2
  call void @_ZNSt8_Rb_treeINSt7__cxx1112basic_stringIcSt11char_traitsIcESaIcEEESt4pairIKS5_St10unique_ptrIN12_GLOBAL__N_112PrototypeASTESt14default_deleteISA_EEESt10_Select1stISE_ESt4lessIS5_ESaISE_EE8_M_eraseEPSt13_Rb_tree_nodeISE_E(%"class.std::_Rb_tree.105"* nonnull align 8 dereferenceable(48) %6, %"struct.std::_Rb_tree_node.261"* %13)
  %14 = load %"struct.std::_Rb_tree_node.261"*, %"struct.std::_Rb_tree_node.261"** %4, align 8
  %15 = bitcast %"struct.std::_Rb_tree_node.261"* %14 to %"struct.std::_Rb_tree_node_base"*
  %16 = call %"struct.std::_Rb_tree_node.261"* @_ZNSt8_Rb_treeINSt7__cxx1112basic_stringIcSt11char_traitsIcESaIcEEESt4pairIKS5_St10unique_ptrIN12_GLOBAL__N_112PrototypeASTESt14default_deleteISA_EEESt10_Select1stISE_ESt4lessIS5_ESaISE_EE7_S_leftEPSt18_Rb_tree_node_base(%"struct.std::_Rb_tree_node_base"* %15) #2
  store %"struct.std::_Rb_tree_node.261"* %16, %"struct.std::_Rb_tree_node.261"** %5, align 8
  %17 = load %"struct.std::_Rb_tree_node.261"*, %"struct.std::_Rb_tree_node.261"** %4, align 8
  call void @_ZNSt8_Rb_treeINSt7__cxx1112basic_stringIcSt11char_traitsIcESaIcEEESt4pairIKS5_St10unique_ptrIN12_GLOBAL__N_112PrototypeASTESt14default_deleteISA_EEESt10_Select1stISE_ESt4lessIS5_ESaISE_EE12_M_drop_nodeEPSt13_Rb_tree_nodeISE_E(%"class.std::_Rb_tree.105"* nonnull align 8 dereferenceable(48) %6, %"struct.std::_Rb_tree_node.261"* %17) #2
  %18 = load %"struct.std::_Rb_tree_node.261"*, %"struct.std::_Rb_tree_node.261"** %5, align 8
  store %"struct.std::_Rb_tree_node.261"* %18, %"struct.std::_Rb_tree_node.261"** %4, align 8
  br label %7, !llvm.loop !8

19:                                               ; preds = %7
  ret void
}

; Function Attrs: mustprogress noinline nounwind optnone uwtable
define internal %"struct.std::_Rb_tree_node.261"* @_ZNSt8_Rb_treeINSt7__cxx1112basic_stringIcSt11char_traitsIcESaIcEEESt4pairIKS5_St10unique_ptrIN12_GLOBAL__N_112PrototypeASTESt14default_deleteISA_EEESt10_Select1stISE_ESt4lessIS5_ESaISE_EE8_M_beginEv(%"class.std::_Rb_tree.105"* nonnull align 8 dereferenceable(48) %0) #7 align 2 {
  %2 = alloca %"class.std::_Rb_tree.105"*, align 8
  store %"class.std::_Rb_tree.105"* %0, %"class.std::_Rb_tree.105"** %2, align 8
  %3 = load %"class.std::_Rb_tree.105"*, %"class.std::_Rb_tree.105"** %2, align 8
  %4 = call %"struct.std::_Rb_tree_node.261"* @_ZNKSt8_Rb_treeINSt7__cxx1112basic_stringIcSt11char_traitsIcESaIcEEESt4pairIKS5_St10unique_ptrIN12_GLOBAL__N_112PrototypeASTESt14default_deleteISA_EEESt10_Select1stISE_ESt4lessIS5_ESaISE_EE9_M_mbeginEv(%"class.std::_Rb_tree.105"* nonnull align 8 dereferenceable(48) %3) #2
  ret %"struct.std::_Rb_tree_node.261"* %4
}

; Function Attrs: noinline nounwind optnone uwtable
define internal void @_ZNSt8_Rb_treeINSt7__cxx1112basic_stringIcSt11char_traitsIcESaIcEEESt4pairIKS5_St10unique_ptrIN12_GLOBAL__N_112PrototypeASTESt14default_deleteISA_EEESt10_Select1stISE_ESt4lessIS5_ESaISE_EE13_Rb_tree_implISI_Lb1EED2Ev(%"struct.std::_Rb_tree<std::__cxx11::basic_string<char>, std::pair<const std::__cxx11::basic_string<char>, std::unique_ptr<(anonymous namespace)::PrototypeAST>>, std::_Select1st<std::pair<const std::__cxx11::basic_string<char>, std::unique_ptr<(anonymous namespace)::PrototypeAST>>>, std::less<std::__cxx11::basic_string<char>>>::_Rb_tree_impl"* nonnull align 8 dereferenceable(48) %0) unnamed_addr #3 align 2 {
  %2 = alloca %"struct.std::_Rb_tree<std::__cxx11::basic_string<char>, std::pair<const std::__cxx11::basic_string<char>, std::unique_ptr<(anonymous namespace)::PrototypeAST>>, std::_Select1st<std::pair<const std::__cxx11::basic_string<char>, std::unique_ptr<(anonymous namespace)::PrototypeAST>>>, std::less<std::__cxx11::basic_string<char>>>::_Rb_tree_impl"*, align 8
  store %"struct.std::_Rb_tree<std::__cxx11::basic_string<char>, std::pair<const std::__cxx11::basic_string<char>, std::unique_ptr<(anonymous namespace)::PrototypeAST>>, std::_Select1st<std::pair<const std::__cxx11::basic_string<char>, std::unique_ptr<(anonymous namespace)::PrototypeAST>>>, std::less<std::__cxx11::basic_string<char>>>::_Rb_tree_impl"* %0, %"struct.std::_Rb_tree<std::__cxx11::basic_string<char>, std::pair<const std::__cxx11::basic_string<char>, std::unique_ptr<(anonymous namespace)::PrototypeAST>>, std::_Select1st<std::pair<const std::__cxx11::basic_string<char>, std::unique_ptr<(anonymous namespace)::PrototypeAST>>>, std::less<std::__cxx11::basic_string<char>>>::_Rb_tree_impl"** %2, align 8
  %3 = load %"struct.std::_Rb_tree<std::__cxx11::basic_string<char>, std::pair<const std::__cxx11::basic_string<char>, std::unique_ptr<(anonymous namespace)::PrototypeAST>>, std::_Select1st<std::pair<const std::__cxx11::basic_string<char>, std::unique_ptr<(anonymous namespace)::PrototypeAST>>>, std::less<std::__cxx11::basic_string<char>>>::_Rb_tree_impl"*, %"struct.std::_Rb_tree<std::__cxx11::basic_string<char>, std::pair<const std::__cxx11::basic_string<char>, std::unique_ptr<(anonymous namespace)::PrototypeAST>>, std::_Select1st<std::pair<const std::__cxx11::basic_string<char>, std::unique_ptr<(anonymous namespace)::PrototypeAST>>>, std::less<std::__cxx11::basic_string<char>>>::_Rb_tree_impl"** %2, align 8
  %4 = bitcast %"struct.std::_Rb_tree<std::__cxx11::basic_string<char>, std::pair<const std::__cxx11::basic_string<char>, std::unique_ptr<(anonymous namespace)::PrototypeAST>>, std::_Select1st<std::pair<const std::__cxx11::basic_string<char>, std::unique_ptr<(anonymous namespace)::PrototypeAST>>>, std::less<std::__cxx11::basic_string<char>>>::_Rb_tree_impl"* %3 to %"class.std::allocator.106"*
  call void @_ZNSaISt13_Rb_tree_nodeISt4pairIKNSt7__cxx1112basic_stringIcSt11char_traitsIcESaIcEEESt10unique_ptrIN12_GLOBAL__N_112PrototypeASTESt14default_deleteISA_EEEEED2Ev(%"class.std::allocator.106"* nonnull align 1 dereferenceable(1) %4) #2
  ret void
}

; Function Attrs: mustprogress noinline nounwind optnone uwtable
define internal %"struct.std::_Rb_tree_node.261"* @_ZNSt8_Rb_treeINSt7__cxx1112basic_stringIcSt11char_traitsIcESaIcEEESt4pairIKS5_St10unique_ptrIN12_GLOBAL__N_112PrototypeASTESt14default_deleteISA_EEESt10_Select1stISE_ESt4lessIS5_ESaISE_EE8_S_rightEPSt18_Rb_tree_node_base(%"struct.std::_Rb_tree_node_base"* %0) #7 align 2 {
  %2 = alloca %"struct.std::_Rb_tree_node_base"*, align 8
  store %"struct.std::_Rb_tree_node_base"* %0, %"struct.std::_Rb_tree_node_base"** %2, align 8
  %3 = load %"struct.std::_Rb_tree_node_base"*, %"struct.std::_Rb_tree_node_base"** %2, align 8
  %4 = getelementptr inbounds %"struct.std::_Rb_tree_node_base", %"struct.std::_Rb_tree_node_base"* %3, i32 0, i32 3
  %5 = load %"struct.std::_Rb_tree_node_base"*, %"struct.std::_Rb_tree_node_base"** %4, align 8
  %6 = bitcast %"struct.std::_Rb_tree_node_base"* %5 to %"struct.std::_Rb_tree_node.261"*
  ret %"struct.std::_Rb_tree_node.261"* %6
}

; Function Attrs: mustprogress noinline nounwind optnone uwtable
define internal %"struct.std::_Rb_tree_node.261"* @_ZNSt8_Rb_treeINSt7__cxx1112basic_stringIcSt11char_traitsIcESaIcEEESt4pairIKS5_St10unique_ptrIN12_GLOBAL__N_112PrototypeASTESt14default_deleteISA_EEESt10_Select1stISE_ESt4lessIS5_ESaISE_EE7_S_leftEPSt18_Rb_tree_node_base(%"struct.std::_Rb_tree_node_base"* %0) #7 align 2 {
  %2 = alloca %"struct.std::_Rb_tree_node_base"*, align 8
  store %"struct.std::_Rb_tree_node_base"* %0, %"struct.std::_Rb_tree_node_base"** %2, align 8
  %3 = load %"struct.std::_Rb_tree_node_base"*, %"struct.std::_Rb_tree_node_base"** %2, align 8
  %4 = getelementptr inbounds %"struct.std::_Rb_tree_node_base", %"struct.std::_Rb_tree_node_base"* %3, i32 0, i32 2
  %5 = load %"struct.std::_Rb_tree_node_base"*, %"struct.std::_Rb_tree_node_base"** %4, align 8
  %6 = bitcast %"struct.std::_Rb_tree_node_base"* %5 to %"struct.std::_Rb_tree_node.261"*
  ret %"struct.std::_Rb_tree_node.261"* %6
}

; Function Attrs: mustprogress noinline nounwind optnone uwtable
define internal void @_ZNSt8_Rb_treeINSt7__cxx1112basic_stringIcSt11char_traitsIcESaIcEEESt4pairIKS5_St10unique_ptrIN12_GLOBAL__N_112PrototypeASTESt14default_deleteISA_EEESt10_Select1stISE_ESt4lessIS5_ESaISE_EE12_M_drop_nodeEPSt13_Rb_tree_nodeISE_E(%"class.std::_Rb_tree.105"* nonnull align 8 dereferenceable(48) %0, %"struct.std::_Rb_tree_node.261"* %1) #7 align 2 {
  %3 = alloca %"class.std::_Rb_tree.105"*, align 8
  %4 = alloca %"struct.std::_Rb_tree_node.261"*, align 8
  store %"class.std::_Rb_tree.105"* %0, %"class.std::_Rb_tree.105"** %3, align 8
  store %"struct.std::_Rb_tree_node.261"* %1, %"struct.std::_Rb_tree_node.261"** %4, align 8
  %5 = load %"class.std::_Rb_tree.105"*, %"class.std::_Rb_tree.105"** %3, align 8
  %6 = load %"struct.std::_Rb_tree_node.261"*, %"struct.std::_Rb_tree_node.261"** %4, align 8
  call void @_ZNSt8_Rb_treeINSt7__cxx1112basic_stringIcSt11char_traitsIcESaIcEEESt4pairIKS5_St10unique_ptrIN12_GLOBAL__N_112PrototypeASTESt14default_deleteISA_EEESt10_Select1stISE_ESt4lessIS5_ESaISE_EE15_M_destroy_nodeEPSt13_Rb_tree_nodeISE_E(%"class.std::_Rb_tree.105"* nonnull align 8 dereferenceable(48) %5, %"struct.std::_Rb_tree_node.261"* %6) #2
  %7 = load %"struct.std::_Rb_tree_node.261"*, %"struct.std::_Rb_tree_node.261"** %4, align 8
  call void @_ZNSt8_Rb_treeINSt7__cxx1112basic_stringIcSt11char_traitsIcESaIcEEESt4pairIKS5_St10unique_ptrIN12_GLOBAL__N_112PrototypeASTESt14default_deleteISA_EEESt10_Select1stISE_ESt4lessIS5_ESaISE_EE11_M_put_nodeEPSt13_Rb_tree_nodeISE_E(%"class.std::_Rb_tree.105"* nonnull align 8 dereferenceable(48) %5, %"struct.std::_Rb_tree_node.261"* %7) #2
  ret void
}

; Function Attrs: mustprogress noinline nounwind optnone uwtable
define internal void @_ZNSt8_Rb_treeINSt7__cxx1112basic_stringIcSt11char_traitsIcESaIcEEESt4pairIKS5_St10unique_ptrIN12_GLOBAL__N_112PrototypeASTESt14default_deleteISA_EEESt10_Select1stISE_ESt4lessIS5_ESaISE_EE15_M_destroy_nodeEPSt13_Rb_tree_nodeISE_E(%"class.std::_Rb_tree.105"* nonnull align 8 dereferenceable(48) %0, %"struct.std::_Rb_tree_node.261"* %1) #7 align 2 personality i8* bitcast (i32 (...)* @__gxx_personality_seh0 to i8*) {
  %3 = alloca %"class.std::_Rb_tree.105"*, align 8
  %4 = alloca %"struct.std::_Rb_tree_node.261"*, align 8
  store %"class.std::_Rb_tree.105"* %0, %"class.std::_Rb_tree.105"** %3, align 8
  store %"struct.std::_Rb_tree_node.261"* %1, %"struct.std::_Rb_tree_node.261"** %4, align 8
  %5 = load %"class.std::_Rb_tree.105"*, %"class.std::_Rb_tree.105"** %3, align 8
  %6 = call nonnull align 1 dereferenceable(1) %"class.std::allocator.106"* @_ZNSt8_Rb_treeINSt7__cxx1112basic_stringIcSt11char_traitsIcESaIcEEESt4pairIKS5_St10unique_ptrIN12_GLOBAL__N_112PrototypeASTESt14default_deleteISA_EEESt10_Select1stISE_ESt4lessIS5_ESaISE_EE21_M_get_Node_allocatorEv(%"class.std::_Rb_tree.105"* nonnull align 8 dereferenceable(48) %5) #2
  %7 = load %"struct.std::_Rb_tree_node.261"*, %"struct.std::_Rb_tree_node.261"** %4, align 8
  %8 = invoke %"struct.std::pair"* @_ZNSt13_Rb_tree_nodeISt4pairIKNSt7__cxx1112basic_stringIcSt11char_traitsIcESaIcEEESt10unique_ptrIN12_GLOBAL__N_112PrototypeASTESt14default_deleteISA_EEEE9_M_valptrEv(%"struct.std::_Rb_tree_node.261"* nonnull align 8 dereferenceable(72) %7)
          to label %9 unwind label %11

9:                                                ; preds = %2
  call void @_ZNSt16allocator_traitsISaISt13_Rb_tree_nodeISt4pairIKNSt7__cxx1112basic_stringIcSt11char_traitsIcESaIcEEESt10unique_ptrIN12_GLOBAL__N_112PrototypeASTESt14default_deleteISB_EEEEEE7destroyISF_EEvRSH_PT_(%"class.std::allocator.106"* nonnull align 1 dereferenceable(1) %6, %"struct.std::pair"* %8) #2
  %10 = load %"struct.std::_Rb_tree_node.261"*, %"struct.std::_Rb_tree_node.261"** %4, align 8
  ret void

11:                                               ; preds = %2
  %12 = landingpad { i8*, i32 }
          catch i8* null
  %13 = extractvalue { i8*, i32 } %12, 0
  call void @__clang_call_terminate(i8* %13) #21
  unreachable
}

; Function Attrs: mustprogress noinline nounwind optnone uwtable
define internal void @_ZNSt8_Rb_treeINSt7__cxx1112basic_stringIcSt11char_traitsIcESaIcEEESt4pairIKS5_St10unique_ptrIN12_GLOBAL__N_112PrototypeASTESt14default_deleteISA_EEESt10_Select1stISE_ESt4lessIS5_ESaISE_EE11_M_put_nodeEPSt13_Rb_tree_nodeISE_E(%"class.std::_Rb_tree.105"* nonnull align 8 dereferenceable(48) %0, %"struct.std::_Rb_tree_node.261"* %1) #7 align 2 personality i8* bitcast (i32 (...)* @__gxx_personality_seh0 to i8*) {
  %3 = alloca %"class.std::_Rb_tree.105"*, align 8
  %4 = alloca %"struct.std::_Rb_tree_node.261"*, align 8
  store %"class.std::_Rb_tree.105"* %0, %"class.std::_Rb_tree.105"** %3, align 8
  store %"struct.std::_Rb_tree_node.261"* %1, %"struct.std::_Rb_tree_node.261"** %4, align 8
  %5 = load %"class.std::_Rb_tree.105"*, %"class.std::_Rb_tree.105"** %3, align 8
  %6 = call nonnull align 1 dereferenceable(1) %"class.std::allocator.106"* @_ZNSt8_Rb_treeINSt7__cxx1112basic_stringIcSt11char_traitsIcESaIcEEESt4pairIKS5_St10unique_ptrIN12_GLOBAL__N_112PrototypeASTESt14default_deleteISA_EEESt10_Select1stISE_ESt4lessIS5_ESaISE_EE21_M_get_Node_allocatorEv(%"class.std::_Rb_tree.105"* nonnull align 8 dereferenceable(48) %5) #2
  %7 = load %"struct.std::_Rb_tree_node.261"*, %"struct.std::_Rb_tree_node.261"** %4, align 8
  invoke void @_ZNSt16allocator_traitsISaISt13_Rb_tree_nodeISt4pairIKNSt7__cxx1112basic_stringIcSt11char_traitsIcESaIcEEESt10unique_ptrIN12_GLOBAL__N_112PrototypeASTESt14default_deleteISB_EEEEEE10deallocateERSH_PSG_y(%"class.std::allocator.106"* nonnull align 1 dereferenceable(1) %6, %"struct.std::_Rb_tree_node.261"* %7, i64 1)
          to label %8 unwind label %9

8:                                                ; preds = %2
  ret void

9:                                                ; preds = %2
  %10 = landingpad { i8*, i32 }
          catch i8* null
  %11 = extractvalue { i8*, i32 } %10, 0
  call void @__clang_call_terminate(i8* %11) #21
  unreachable
}

; Function Attrs: mustprogress noinline nounwind optnone uwtable
define internal void @_ZNSt16allocator_traitsISaISt13_Rb_tree_nodeISt4pairIKNSt7__cxx1112basic_stringIcSt11char_traitsIcESaIcEEESt10unique_ptrIN12_GLOBAL__N_112PrototypeASTESt14default_deleteISB_EEEEEE7destroyISF_EEvRSH_PT_(%"class.std::allocator.106"* nonnull align 1 dereferenceable(1) %0, %"struct.std::pair"* %1) #7 align 2 {
  %3 = alloca %"class.std::allocator.106"*, align 8
  %4 = alloca %"struct.std::pair"*, align 8
  store %"class.std::allocator.106"* %0, %"class.std::allocator.106"** %3, align 8
  store %"struct.std::pair"* %1, %"struct.std::pair"** %4, align 8
  %5 = load %"class.std::allocator.106"*, %"class.std::allocator.106"** %3, align 8
  %6 = bitcast %"class.std::allocator.106"* %5 to %"class.__gnu_cxx::new_allocator.107"*
  %7 = load %"struct.std::pair"*, %"struct.std::pair"** %4, align 8
  call void @_ZN9__gnu_cxx13new_allocatorISt13_Rb_tree_nodeISt4pairIKNSt7__cxx1112basic_stringIcSt11char_traitsIcESaIcEEESt10unique_ptrIN12_GLOBAL__N_112PrototypeASTESt14default_deleteISC_EEEEE7destroyISG_EEvPT_(%"class.__gnu_cxx::new_allocator.107"* nonnull align 1 dereferenceable(1) %6, %"struct.std::pair"* %7) #2
  ret void
}

; Function Attrs: mustprogress noinline nounwind optnone uwtable
define internal nonnull align 1 dereferenceable(1) %"class.std::allocator.106"* @_ZNSt8_Rb_treeINSt7__cxx1112basic_stringIcSt11char_traitsIcESaIcEEESt4pairIKS5_St10unique_ptrIN12_GLOBAL__N_112PrototypeASTESt14default_deleteISA_EEESt10_Select1stISE_ESt4lessIS5_ESaISE_EE21_M_get_Node_allocatorEv(%"class.std::_Rb_tree.105"* nonnull align 8 dereferenceable(48) %0) #7 align 2 {
  %2 = alloca %"class.std::_Rb_tree.105"*, align 8
  store %"class.std::_Rb_tree.105"* %0, %"class.std::_Rb_tree.105"** %2, align 8
  %3 = load %"class.std::_Rb_tree.105"*, %"class.std::_Rb_tree.105"** %2, align 8
  %4 = getelementptr inbounds %"class.std::_Rb_tree.105", %"class.std::_Rb_tree.105"* %3, i32 0, i32 0
  %5 = bitcast %"struct.std::_Rb_tree<std::__cxx11::basic_string<char>, std::pair<const std::__cxx11::basic_string<char>, std::unique_ptr<(anonymous namespace)::PrototypeAST>>, std::_Select1st<std::pair<const std::__cxx11::basic_string<char>, std::unique_ptr<(anonymous namespace)::PrototypeAST>>>, std::less<std::__cxx11::basic_string<char>>>::_Rb_tree_impl"* %4 to %"class.std::allocator.106"*
  ret %"class.std::allocator.106"* %5
}

; Function Attrs: mustprogress noinline nounwind optnone uwtable
define internal %"struct.std::pair"* @_ZNSt13_Rb_tree_nodeISt4pairIKNSt7__cxx1112basic_stringIcSt11char_traitsIcESaIcEEESt10unique_ptrIN12_GLOBAL__N_112PrototypeASTESt14default_deleteISA_EEEE9_M_valptrEv(%"struct.std::_Rb_tree_node.261"* nonnull align 8 dereferenceable(72) %0) #7 align 2 {
  %2 = alloca %"struct.std::_Rb_tree_node.261"*, align 8
  store %"struct.std::_Rb_tree_node.261"* %0, %"struct.std::_Rb_tree_node.261"** %2, align 8
  %3 = load %"struct.std::_Rb_tree_node.261"*, %"struct.std::_Rb_tree_node.261"** %2, align 8
  %4 = getelementptr inbounds %"struct.std::_Rb_tree_node.261", %"struct.std::_Rb_tree_node.261"* %3, i32 0, i32 1
  %5 = call %"struct.std::pair"* @_ZN9__gnu_cxx16__aligned_membufISt4pairIKNSt7__cxx1112basic_stringIcSt11char_traitsIcESaIcEEESt10unique_ptrIN12_GLOBAL__N_112PrototypeASTESt14default_deleteISB_EEEE6_M_ptrEv(%"struct.__gnu_cxx::__aligned_membuf.262"* nonnull align 8 dereferenceable(40) %4) #2
  ret %"struct.std::pair"* %5
}

; Function Attrs: mustprogress noinline nounwind optnone uwtable
define internal void @_ZN9__gnu_cxx13new_allocatorISt13_Rb_tree_nodeISt4pairIKNSt7__cxx1112basic_stringIcSt11char_traitsIcESaIcEEESt10unique_ptrIN12_GLOBAL__N_112PrototypeASTESt14default_deleteISC_EEEEE7destroyISG_EEvPT_(%"class.__gnu_cxx::new_allocator.107"* nonnull align 1 dereferenceable(1) %0, %"struct.std::pair"* %1) #7 align 2 {
  %3 = alloca %"class.__gnu_cxx::new_allocator.107"*, align 8
  %4 = alloca %"struct.std::pair"*, align 8
  store %"class.__gnu_cxx::new_allocator.107"* %0, %"class.__gnu_cxx::new_allocator.107"** %3, align 8
  store %"struct.std::pair"* %1, %"struct.std::pair"** %4, align 8
  %5 = load %"class.__gnu_cxx::new_allocator.107"*, %"class.__gnu_cxx::new_allocator.107"** %3, align 8
  %6 = load %"struct.std::pair"*, %"struct.std::pair"** %4, align 8
  call void @_ZNSt4pairIKNSt7__cxx1112basic_stringIcSt11char_traitsIcESaIcEEESt10unique_ptrIN12_GLOBAL__N_112PrototypeASTESt14default_deleteIS9_EEED2Ev(%"struct.std::pair"* nonnull align 8 dereferenceable(40) %6) #2
  ret void
}

; Function Attrs: noinline nounwind optnone uwtable
define internal void @_ZNSt4pairIKNSt7__cxx1112basic_stringIcSt11char_traitsIcESaIcEEESt10unique_ptrIN12_GLOBAL__N_112PrototypeASTESt14default_deleteIS9_EEED2Ev(%"struct.std::pair"* nonnull align 8 dereferenceable(40) %0) unnamed_addr #3 align 2 {
  %2 = alloca %"struct.std::pair"*, align 8
  store %"struct.std::pair"* %0, %"struct.std::pair"** %2, align 8
  %3 = load %"struct.std::pair"*, %"struct.std::pair"** %2, align 8
  %4 = getelementptr inbounds %"struct.std::pair", %"struct.std::pair"* %3, i32 0, i32 1
  call void @_ZNSt10unique_ptrIN12_GLOBAL__N_112PrototypeASTESt14default_deleteIS1_EED2Ev(%"class.std::unique_ptr.125"* nonnull align 8 dereferenceable(8) %4) #2
  %5 = getelementptr inbounds %"struct.std::pair", %"struct.std::pair"* %3, i32 0, i32 0
  call void @_ZNSt7__cxx1112basic_stringIcSt11char_traitsIcESaIcEED1Ev(%"class.std::__cxx11::basic_string"* nonnull align 8 dereferenceable(32) %5) #2
  ret void
}

; Function Attrs: noinline nounwind optnone uwtable
define internal void @_ZNSt10unique_ptrIN12_GLOBAL__N_112PrototypeASTESt14default_deleteIS1_EED2Ev(%"class.std::unique_ptr.125"* nonnull align 8 dereferenceable(8) %0) unnamed_addr #3 align 2 personality i8* bitcast (i32 (...)* @__gxx_personality_seh0 to i8*) {
  %2 = alloca %"class.std::unique_ptr.125"*, align 8
  %3 = alloca %"class.(anonymous namespace)::PrototypeAST"**, align 8
  store %"class.std::unique_ptr.125"* %0, %"class.std::unique_ptr.125"** %2, align 8
  %4 = load %"class.std::unique_ptr.125"*, %"class.std::unique_ptr.125"** %2, align 8
  %5 = getelementptr inbounds %"class.std::unique_ptr.125", %"class.std::unique_ptr.125"* %4, i32 0, i32 0
  %6 = bitcast %"struct.std::__uniq_ptr_data.126"* %5 to %"class.std::__uniq_ptr_impl.127"*
  %7 = invoke nonnull align 8 dereferenceable(8) %"class.(anonymous namespace)::PrototypeAST"** @_ZNSt15__uniq_ptr_implIN12_GLOBAL__N_112PrototypeASTESt14default_deleteIS1_EE6_M_ptrEv(%"class.std::__uniq_ptr_impl.127"* nonnull align 8 dereferenceable(8) %6)
          to label %8 unwind label %20

8:                                                ; preds = %1
  store %"class.(anonymous namespace)::PrototypeAST"** %7, %"class.(anonymous namespace)::PrototypeAST"*** %3, align 8
  %9 = load %"class.(anonymous namespace)::PrototypeAST"**, %"class.(anonymous namespace)::PrototypeAST"*** %3, align 8
  %10 = load %"class.(anonymous namespace)::PrototypeAST"*, %"class.(anonymous namespace)::PrototypeAST"** %9, align 8
  %11 = icmp ne %"class.(anonymous namespace)::PrototypeAST"* %10, null
  br i1 %11, label %12, label %18

12:                                               ; preds = %8
  %13 = call nonnull align 1 dereferenceable(1) %"struct.std::default_delete"* @_ZNSt10unique_ptrIN12_GLOBAL__N_112PrototypeASTESt14default_deleteIS1_EE11get_deleterEv(%"class.std::unique_ptr.125"* nonnull align 8 dereferenceable(8) %4) #2
  %14 = load %"class.(anonymous namespace)::PrototypeAST"**, %"class.(anonymous namespace)::PrototypeAST"*** %3, align 8
  %15 = call nonnull align 8 dereferenceable(8) %"class.(anonymous namespace)::PrototypeAST"** @_ZSt4moveIRPN12_GLOBAL__N_112PrototypeASTEEONSt16remove_referenceIT_E4typeEOS5_(%"class.(anonymous namespace)::PrototypeAST"** nonnull align 8 dereferenceable(8) %14) #2
  %16 = load %"class.(anonymous namespace)::PrototypeAST"*, %"class.(anonymous namespace)::PrototypeAST"** %15, align 8
  invoke void @_ZNKSt14default_deleteIN12_GLOBAL__N_112PrototypeASTEEclEPS1_(%"struct.std::default_delete"* nonnull align 1 dereferenceable(1) %13, %"class.(anonymous namespace)::PrototypeAST"* %16)
          to label %17 unwind label %20

17:                                               ; preds = %12
  br label %18

18:                                               ; preds = %17, %8
  %19 = load %"class.(anonymous namespace)::PrototypeAST"**, %"class.(anonymous namespace)::PrototypeAST"*** %3, align 8
  store %"class.(anonymous namespace)::PrototypeAST"* null, %"class.(anonymous namespace)::PrototypeAST"** %19, align 8
  ret void

20:                                               ; preds = %12, %1
  %21 = landingpad { i8*, i32 }
          catch i8* null
  %22 = extractvalue { i8*, i32 } %21, 0
  call void @__clang_call_terminate(i8* %22) #21
  unreachable
}

; Function Attrs: mustprogress noinline nounwind optnone uwtable
define internal nonnull align 8 dereferenceable(8) %"class.(anonymous namespace)::PrototypeAST"** @_ZNSt15__uniq_ptr_implIN12_GLOBAL__N_112PrototypeASTESt14default_deleteIS1_EE6_M_ptrEv(%"class.std::__uniq_ptr_impl.127"* nonnull align 8 dereferenceable(8) %0) #7 align 2 {
  %2 = alloca %"class.std::__uniq_ptr_impl.127"*, align 8
  store %"class.std::__uniq_ptr_impl.127"* %0, %"class.std::__uniq_ptr_impl.127"** %2, align 8
  %3 = load %"class.std::__uniq_ptr_impl.127"*, %"class.std::__uniq_ptr_impl.127"** %2, align 8
  %4 = getelementptr inbounds %"class.std::__uniq_ptr_impl.127", %"class.std::__uniq_ptr_impl.127"* %3, i32 0, i32 0
  %5 = call nonnull align 8 dereferenceable(8) %"class.(anonymous namespace)::PrototypeAST"** @_ZSt3getILy0EJPN12_GLOBAL__N_112PrototypeASTESt14default_deleteIS1_EEERNSt13tuple_elementIXT_ESt5tupleIJDpT0_EEE4typeERS9_(%"class.std::tuple.128"* nonnull align 8 dereferenceable(8) %4) #2
  ret %"class.(anonymous namespace)::PrototypeAST"** %5
}

; Function Attrs: mustprogress noinline nounwind optnone uwtable
define internal nonnull align 1 dereferenceable(1) %"struct.std::default_delete"* @_ZNSt10unique_ptrIN12_GLOBAL__N_112PrototypeASTESt14default_deleteIS1_EE11get_deleterEv(%"class.std::unique_ptr.125"* nonnull align 8 dereferenceable(8) %0) #7 align 2 personality i8* bitcast (i32 (...)* @__gxx_personality_seh0 to i8*) {
  %2 = alloca %"class.std::unique_ptr.125"*, align 8
  store %"class.std::unique_ptr.125"* %0, %"class.std::unique_ptr.125"** %2, align 8
  %3 = load %"class.std::unique_ptr.125"*, %"class.std::unique_ptr.125"** %2, align 8
  %4 = getelementptr inbounds %"class.std::unique_ptr.125", %"class.std::unique_ptr.125"* %3, i32 0, i32 0
  %5 = bitcast %"struct.std::__uniq_ptr_data.126"* %4 to %"class.std::__uniq_ptr_impl.127"*
  %6 = invoke nonnull align 1 dereferenceable(1) %"struct.std::default_delete"* @_ZNSt15__uniq_ptr_implIN12_GLOBAL__N_112PrototypeASTESt14default_deleteIS1_EE10_M_deleterEv(%"class.std::__uniq_ptr_impl.127"* nonnull align 8 dereferenceable(8) %5)
          to label %7 unwind label %8

7:                                                ; preds = %1
  ret %"struct.std::default_delete"* %6

8:                                                ; preds = %1
  %9 = landingpad { i8*, i32 }
          catch i8* null
  %10 = extractvalue { i8*, i32 } %9, 0
  call void @__clang_call_terminate(i8* %10) #21
  unreachable
}

; Function Attrs: mustprogress noinline nounwind optnone uwtable
define internal void @_ZNKSt14default_deleteIN12_GLOBAL__N_112PrototypeASTEEclEPS1_(%"struct.std::default_delete"* nonnull align 1 dereferenceable(1) %0, %"class.(anonymous namespace)::PrototypeAST"* %1) #7 align 2 {
  %3 = alloca %"struct.std::default_delete"*, align 8
  %4 = alloca %"class.(anonymous namespace)::PrototypeAST"*, align 8
  store %"struct.std::default_delete"* %0, %"struct.std::default_delete"** %3, align 8
  store %"class.(anonymous namespace)::PrototypeAST"* %1, %"class.(anonymous namespace)::PrototypeAST"** %4, align 8
  %5 = load %"struct.std::default_delete"*, %"struct.std::default_delete"** %3, align 8
  %6 = load %"class.(anonymous namespace)::PrototypeAST"*, %"class.(anonymous namespace)::PrototypeAST"** %4, align 8
  %7 = icmp eq %"class.(anonymous namespace)::PrototypeAST"* %6, null
  br i1 %7, label %10, label %8

8:                                                ; preds = %2
  call void @_ZN12_GLOBAL__N_112PrototypeASTD2Ev(%"class.(anonymous namespace)::PrototypeAST"* nonnull align 8 dereferenceable(64) %6) #2
  %9 = bitcast %"class.(anonymous namespace)::PrototypeAST"* %6 to i8*
  call void @_ZdlPv(i8* %9) #22
  br label %10

10:                                               ; preds = %8, %2
  ret void
}

; Function Attrs: mustprogress noinline nounwind optnone uwtable
define internal nonnull align 8 dereferenceable(8) %"class.(anonymous namespace)::PrototypeAST"** @_ZSt4moveIRPN12_GLOBAL__N_112PrototypeASTEEONSt16remove_referenceIT_E4typeEOS5_(%"class.(anonymous namespace)::PrototypeAST"** nonnull align 8 dereferenceable(8) %0) #7 {
  %2 = alloca %"class.(anonymous namespace)::PrototypeAST"**, align 8
  store %"class.(anonymous namespace)::PrototypeAST"** %0, %"class.(anonymous namespace)::PrototypeAST"*** %2, align 8
  %3 = load %"class.(anonymous namespace)::PrototypeAST"**, %"class.(anonymous namespace)::PrototypeAST"*** %2, align 8
  ret %"class.(anonymous namespace)::PrototypeAST"** %3
}

; Function Attrs: mustprogress noinline nounwind optnone uwtable
define internal nonnull align 8 dereferenceable(8) %"class.(anonymous namespace)::PrototypeAST"** @_ZSt3getILy0EJPN12_GLOBAL__N_112PrototypeASTESt14default_deleteIS1_EEERNSt13tuple_elementIXT_ESt5tupleIJDpT0_EEE4typeERS9_(%"class.std::tuple.128"* nonnull align 8 dereferenceable(8) %0) #7 {
  %2 = alloca %"class.std::tuple.128"*, align 8
  store %"class.std::tuple.128"* %0, %"class.std::tuple.128"** %2, align 8
  %3 = load %"class.std::tuple.128"*, %"class.std::tuple.128"** %2, align 8
  %4 = bitcast %"class.std::tuple.128"* %3 to %"struct.std::_Tuple_impl.129"*
  %5 = call nonnull align 8 dereferenceable(8) %"class.(anonymous namespace)::PrototypeAST"** @_ZSt12__get_helperILy0EPN12_GLOBAL__N_112PrototypeASTEJSt14default_deleteIS1_EEERT0_RSt11_Tuple_implIXT_EJS5_DpT1_EE(%"struct.std::_Tuple_impl.129"* nonnull align 8 dereferenceable(8) %4) #2
  ret %"class.(anonymous namespace)::PrototypeAST"** %5
}

; Function Attrs: mustprogress noinline nounwind optnone uwtable
define internal nonnull align 8 dereferenceable(8) %"class.(anonymous namespace)::PrototypeAST"** @_ZSt12__get_helperILy0EPN12_GLOBAL__N_112PrototypeASTEJSt14default_deleteIS1_EEERT0_RSt11_Tuple_implIXT_EJS5_DpT1_EE(%"struct.std::_Tuple_impl.129"* nonnull align 8 dereferenceable(8) %0) #7 {
  %2 = alloca %"struct.std::_Tuple_impl.129"*, align 8
  store %"struct.std::_Tuple_impl.129"* %0, %"struct.std::_Tuple_impl.129"** %2, align 8
  %3 = load %"struct.std::_Tuple_impl.129"*, %"struct.std::_Tuple_impl.129"** %2, align 8
  %4 = call nonnull align 8 dereferenceable(8) %"class.(anonymous namespace)::PrototypeAST"** @_ZNSt11_Tuple_implILy0EJPN12_GLOBAL__N_112PrototypeASTESt14default_deleteIS1_EEE7_M_headERS5_(%"struct.std::_Tuple_impl.129"* nonnull align 8 dereferenceable(8) %3) #2
  ret %"class.(anonymous namespace)::PrototypeAST"** %4
}

; Function Attrs: mustprogress noinline nounwind optnone uwtable
define internal nonnull align 8 dereferenceable(8) %"class.(anonymous namespace)::PrototypeAST"** @_ZNSt11_Tuple_implILy0EJPN12_GLOBAL__N_112PrototypeASTESt14default_deleteIS1_EEE7_M_headERS5_(%"struct.std::_Tuple_impl.129"* nonnull align 8 dereferenceable(8) %0) #7 align 2 {
  %2 = alloca %"struct.std::_Tuple_impl.129"*, align 8
  store %"struct.std::_Tuple_impl.129"* %0, %"struct.std::_Tuple_impl.129"** %2, align 8
  %3 = load %"struct.std::_Tuple_impl.129"*, %"struct.std::_Tuple_impl.129"** %2, align 8
  %4 = bitcast %"struct.std::_Tuple_impl.129"* %3 to %"struct.std::_Head_base.132"*
  %5 = call nonnull align 8 dereferenceable(8) %"class.(anonymous namespace)::PrototypeAST"** @_ZNSt10_Head_baseILy0EPN12_GLOBAL__N_112PrototypeASTELb0EE7_M_headERS3_(%"struct.std::_Head_base.132"* nonnull align 8 dereferenceable(8) %4) #2
  ret %"class.(anonymous namespace)::PrototypeAST"** %5
}

; Function Attrs: mustprogress noinline nounwind optnone uwtable
define internal nonnull align 8 dereferenceable(8) %"class.(anonymous namespace)::PrototypeAST"** @_ZNSt10_Head_baseILy0EPN12_GLOBAL__N_112PrototypeASTELb0EE7_M_headERS3_(%"struct.std::_Head_base.132"* nonnull align 8 dereferenceable(8) %0) #7 align 2 {
  %2 = alloca %"struct.std::_Head_base.132"*, align 8
  store %"struct.std::_Head_base.132"* %0, %"struct.std::_Head_base.132"** %2, align 8
  %3 = load %"struct.std::_Head_base.132"*, %"struct.std::_Head_base.132"** %2, align 8
  %4 = getelementptr inbounds %"struct.std::_Head_base.132", %"struct.std::_Head_base.132"* %3, i32 0, i32 0
  ret %"class.(anonymous namespace)::PrototypeAST"** %4
}

; Function Attrs: mustprogress noinline nounwind optnone uwtable
define internal nonnull align 1 dereferenceable(1) %"struct.std::default_delete"* @_ZNSt15__uniq_ptr_implIN12_GLOBAL__N_112PrototypeASTESt14default_deleteIS1_EE10_M_deleterEv(%"class.std::__uniq_ptr_impl.127"* nonnull align 8 dereferenceable(8) %0) #7 align 2 {
  %2 = alloca %"class.std::__uniq_ptr_impl.127"*, align 8
  store %"class.std::__uniq_ptr_impl.127"* %0, %"class.std::__uniq_ptr_impl.127"** %2, align 8
  %3 = load %"class.std::__uniq_ptr_impl.127"*, %"class.std::__uniq_ptr_impl.127"** %2, align 8
  %4 = getelementptr inbounds %"class.std::__uniq_ptr_impl.127", %"class.std::__uniq_ptr_impl.127"* %3, i32 0, i32 0
  %5 = call nonnull align 1 dereferenceable(1) %"struct.std::default_delete"* @_ZSt3getILy1EJPN12_GLOBAL__N_112PrototypeASTESt14default_deleteIS1_EEERNSt13tuple_elementIXT_ESt5tupleIJDpT0_EEE4typeERS9_(%"class.std::tuple.128"* nonnull align 8 dereferenceable(8) %4) #2
  ret %"struct.std::default_delete"* %5
}

; Function Attrs: mustprogress noinline nounwind optnone uwtable
define internal nonnull align 1 dereferenceable(1) %"struct.std::default_delete"* @_ZSt3getILy1EJPN12_GLOBAL__N_112PrototypeASTESt14default_deleteIS1_EEERNSt13tuple_elementIXT_ESt5tupleIJDpT0_EEE4typeERS9_(%"class.std::tuple.128"* nonnull align 8 dereferenceable(8) %0) #7 {
  %2 = alloca %"class.std::tuple.128"*, align 8
  store %"class.std::tuple.128"* %0, %"class.std::tuple.128"** %2, align 8
  %3 = load %"class.std::tuple.128"*, %"class.std::tuple.128"** %2, align 8
  %4 = bitcast %"class.std::tuple.128"* %3 to %"struct.std::_Tuple_impl.130"*
  %5 = call nonnull align 1 dereferenceable(1) %"struct.std::default_delete"* @_ZSt12__get_helperILy1ESt14default_deleteIN12_GLOBAL__N_112PrototypeASTEEJEERT0_RSt11_Tuple_implIXT_EJS4_DpT1_EE(%"struct.std::_Tuple_impl.130"* nonnull align 1 dereferenceable(1) %4) #2
  ret %"struct.std::default_delete"* %5
}

; Function Attrs: mustprogress noinline nounwind optnone uwtable
define internal nonnull align 1 dereferenceable(1) %"struct.std::default_delete"* @_ZSt12__get_helperILy1ESt14default_deleteIN12_GLOBAL__N_112PrototypeASTEEJEERT0_RSt11_Tuple_implIXT_EJS4_DpT1_EE(%"struct.std::_Tuple_impl.130"* nonnull align 1 dereferenceable(1) %0) #7 {
  %2 = alloca %"struct.std::_Tuple_impl.130"*, align 8
  store %"struct.std::_Tuple_impl.130"* %0, %"struct.std::_Tuple_impl.130"** %2, align 8
  %3 = load %"struct.std::_Tuple_impl.130"*, %"struct.std::_Tuple_impl.130"** %2, align 8
  %4 = call nonnull align 1 dereferenceable(1) %"struct.std::default_delete"* @_ZNSt11_Tuple_implILy1EJSt14default_deleteIN12_GLOBAL__N_112PrototypeASTEEEE7_M_headERS4_(%"struct.std::_Tuple_impl.130"* nonnull align 1 dereferenceable(1) %3) #2
  ret %"struct.std::default_delete"* %4
}

; Function Attrs: mustprogress noinline nounwind optnone uwtable
define internal nonnull align 1 dereferenceable(1) %"struct.std::default_delete"* @_ZNSt11_Tuple_implILy1EJSt14default_deleteIN12_GLOBAL__N_112PrototypeASTEEEE7_M_headERS4_(%"struct.std::_Tuple_impl.130"* nonnull align 1 dereferenceable(1) %0) #7 align 2 {
  %2 = alloca %"struct.std::_Tuple_impl.130"*, align 8
  store %"struct.std::_Tuple_impl.130"* %0, %"struct.std::_Tuple_impl.130"** %2, align 8
  %3 = load %"struct.std::_Tuple_impl.130"*, %"struct.std::_Tuple_impl.130"** %2, align 8
  %4 = bitcast %"struct.std::_Tuple_impl.130"* %3 to %"struct.std::_Head_base.131"*
  %5 = call nonnull align 1 dereferenceable(1) %"struct.std::default_delete"* @_ZNSt10_Head_baseILy1ESt14default_deleteIN12_GLOBAL__N_112PrototypeASTEELb1EE7_M_headERS4_(%"struct.std::_Head_base.131"* nonnull align 1 dereferenceable(1) %4) #2
  ret %"struct.std::default_delete"* %5
}

; Function Attrs: mustprogress noinline nounwind optnone uwtable
define internal nonnull align 1 dereferenceable(1) %"struct.std::default_delete"* @_ZNSt10_Head_baseILy1ESt14default_deleteIN12_GLOBAL__N_112PrototypeASTEELb1EE7_M_headERS4_(%"struct.std::_Head_base.131"* nonnull align 1 dereferenceable(1) %0) #7 align 2 {
  %2 = alloca %"struct.std::_Head_base.131"*, align 8
  store %"struct.std::_Head_base.131"* %0, %"struct.std::_Head_base.131"** %2, align 8
  %3 = load %"struct.std::_Head_base.131"*, %"struct.std::_Head_base.131"** %2, align 8
  %4 = bitcast %"struct.std::_Head_base.131"* %3 to %"struct.std::default_delete"*
  ret %"struct.std::default_delete"* %4
}

; Function Attrs: noinline nounwind optnone uwtable
define internal void @_ZN12_GLOBAL__N_112PrototypeASTD2Ev(%"class.(anonymous namespace)::PrototypeAST"* nonnull align 8 dereferenceable(64) %0) unnamed_addr #3 align 2 {
  %2 = alloca %"class.(anonymous namespace)::PrototypeAST"*, align 8
  store %"class.(anonymous namespace)::PrototypeAST"* %0, %"class.(anonymous namespace)::PrototypeAST"** %2, align 8
  %3 = load %"class.(anonymous namespace)::PrototypeAST"*, %"class.(anonymous namespace)::PrototypeAST"** %2, align 8
  %4 = getelementptr inbounds %"class.(anonymous namespace)::PrototypeAST", %"class.(anonymous namespace)::PrototypeAST"* %3, i32 0, i32 1
  call void @_ZNSt6vectorINSt7__cxx1112basic_stringIcSt11char_traitsIcESaIcEEESaIS5_EED2Ev(%"class.std::vector"* nonnull align 8 dereferenceable(24) %4) #2
  %5 = getelementptr inbounds %"class.(anonymous namespace)::PrototypeAST", %"class.(anonymous namespace)::PrototypeAST"* %3, i32 0, i32 0
  call void @_ZNSt7__cxx1112basic_stringIcSt11char_traitsIcESaIcEED1Ev(%"class.std::__cxx11::basic_string"* nonnull align 8 dereferenceable(32) %5) #2
  ret void
}

; Function Attrs: noinline nounwind optnone uwtable
define linkonce_odr dso_local void @_ZNSt6vectorINSt7__cxx1112basic_stringIcSt11char_traitsIcESaIcEEESaIS5_EED2Ev(%"class.std::vector"* nonnull align 8 dereferenceable(24) %0) unnamed_addr #3 comdat align 2 personality i8* bitcast (i32 (...)* @__gxx_personality_seh0 to i8*) {
  %2 = alloca %"class.std::vector"*, align 8
  %3 = alloca i8*, align 8
  %4 = alloca i32, align 4
  store %"class.std::vector"* %0, %"class.std::vector"** %2, align 8
  %5 = load %"class.std::vector"*, %"class.std::vector"** %2, align 8
  %6 = bitcast %"class.std::vector"* %5 to %"struct.std::_Vector_base"*
  %7 = getelementptr inbounds %"struct.std::_Vector_base", %"struct.std::_Vector_base"* %6, i32 0, i32 0
  %8 = bitcast %"struct.std::_Vector_base<std::__cxx11::basic_string<char>, std::allocator<std::__cxx11::basic_string<char>>>::_Vector_impl"* %7 to %"struct.std::_Vector_base<std::__cxx11::basic_string<char>, std::allocator<std::__cxx11::basic_string<char>>>::_Vector_impl_data"*
  %9 = getelementptr inbounds %"struct.std::_Vector_base<std::__cxx11::basic_string<char>, std::allocator<std::__cxx11::basic_string<char>>>::_Vector_impl_data", %"struct.std::_Vector_base<std::__cxx11::basic_string<char>, std::allocator<std::__cxx11::basic_string<char>>>::_Vector_impl_data"* %8, i32 0, i32 0
  %10 = load %"class.std::__cxx11::basic_string"*, %"class.std::__cxx11::basic_string"** %9, align 8
  %11 = bitcast %"class.std::vector"* %5 to %"struct.std::_Vector_base"*
  %12 = getelementptr inbounds %"struct.std::_Vector_base", %"struct.std::_Vector_base"* %11, i32 0, i32 0
  %13 = bitcast %"struct.std::_Vector_base<std::__cxx11::basic_string<char>, std::allocator<std::__cxx11::basic_string<char>>>::_Vector_impl"* %12 to %"struct.std::_Vector_base<std::__cxx11::basic_string<char>, std::allocator<std::__cxx11::basic_string<char>>>::_Vector_impl_data"*
  %14 = getelementptr inbounds %"struct.std::_Vector_base<std::__cxx11::basic_string<char>, std::allocator<std::__cxx11::basic_string<char>>>::_Vector_impl_data", %"struct.std::_Vector_base<std::__cxx11::basic_string<char>, std::allocator<std::__cxx11::basic_string<char>>>::_Vector_impl_data"* %13, i32 0, i32 1
  %15 = load %"class.std::__cxx11::basic_string"*, %"class.std::__cxx11::basic_string"** %14, align 8
  %16 = bitcast %"class.std::vector"* %5 to %"struct.std::_Vector_base"*
  %17 = call nonnull align 1 dereferenceable(1) %"class.std::allocator.133"* @_ZNSt12_Vector_baseINSt7__cxx1112basic_stringIcSt11char_traitsIcESaIcEEESaIS5_EE19_M_get_Tp_allocatorEv(%"struct.std::_Vector_base"* nonnull align 8 dereferenceable(24) %16) #2
  invoke void @_ZSt8_DestroyIPNSt7__cxx1112basic_stringIcSt11char_traitsIcESaIcEEES5_EvT_S7_RSaIT0_E(%"class.std::__cxx11::basic_string"* %10, %"class.std::__cxx11::basic_string"* %15, %"class.std::allocator.133"* nonnull align 1 dereferenceable(1) %17)
          to label %18 unwind label %20

18:                                               ; preds = %1
  %19 = bitcast %"class.std::vector"* %5 to %"struct.std::_Vector_base"*
  call void @_ZNSt12_Vector_baseINSt7__cxx1112basic_stringIcSt11char_traitsIcESaIcEEESaIS5_EED2Ev(%"struct.std::_Vector_base"* nonnull align 8 dereferenceable(24) %19) #2
  ret void

20:                                               ; preds = %1
  %21 = landingpad { i8*, i32 }
          catch i8* null
  %22 = extractvalue { i8*, i32 } %21, 0
  store i8* %22, i8** %3, align 8
  %23 = extractvalue { i8*, i32 } %21, 1
  store i32 %23, i32* %4, align 4
  %24 = bitcast %"class.std::vector"* %5 to %"struct.std::_Vector_base"*
  call void @_ZNSt12_Vector_baseINSt7__cxx1112basic_stringIcSt11char_traitsIcESaIcEEESaIS5_EED2Ev(%"struct.std::_Vector_base"* nonnull align 8 dereferenceable(24) %24) #2
  br label %25

25:                                               ; preds = %20
  %26 = load i8*, i8** %3, align 8
  call void @__clang_call_terminate(i8* %26) #21
  unreachable
}

; Function Attrs: mustprogress noinline optnone uwtable
define linkonce_odr dso_local void @_ZSt8_DestroyIPNSt7__cxx1112basic_stringIcSt11char_traitsIcESaIcEEES5_EvT_S7_RSaIT0_E(%"class.std::__cxx11::basic_string"* %0, %"class.std::__cxx11::basic_string"* %1, %"class.std::allocator.133"* nonnull align 1 dereferenceable(1) %2) #6 comdat {
  %4 = alloca %"class.std::__cxx11::basic_string"*, align 8
  %5 = alloca %"class.std::__cxx11::basic_string"*, align 8
  %6 = alloca %"class.std::allocator.133"*, align 8
  store %"class.std::__cxx11::basic_string"* %0, %"class.std::__cxx11::basic_string"** %4, align 8
  store %"class.std::__cxx11::basic_string"* %1, %"class.std::__cxx11::basic_string"** %5, align 8
  store %"class.std::allocator.133"* %2, %"class.std::allocator.133"** %6, align 8
  %7 = load %"class.std::__cxx11::basic_string"*, %"class.std::__cxx11::basic_string"** %4, align 8
  %8 = load %"class.std::__cxx11::basic_string"*, %"class.std::__cxx11::basic_string"** %5, align 8
  call void @_ZSt8_DestroyIPNSt7__cxx1112basic_stringIcSt11char_traitsIcESaIcEEEEvT_S7_(%"class.std::__cxx11::basic_string"* %7, %"class.std::__cxx11::basic_string"* %8)
  ret void
}

; Function Attrs: mustprogress noinline nounwind optnone uwtable
define linkonce_odr dso_local nonnull align 1 dereferenceable(1) %"class.std::allocator.133"* @_ZNSt12_Vector_baseINSt7__cxx1112basic_stringIcSt11char_traitsIcESaIcEEESaIS5_EE19_M_get_Tp_allocatorEv(%"struct.std::_Vector_base"* nonnull align 8 dereferenceable(24) %0) #7 comdat align 2 {
  %2 = alloca %"struct.std::_Vector_base"*, align 8
  store %"struct.std::_Vector_base"* %0, %"struct.std::_Vector_base"** %2, align 8
  %3 = load %"struct.std::_Vector_base"*, %"struct.std::_Vector_base"** %2, align 8
  %4 = getelementptr inbounds %"struct.std::_Vector_base", %"struct.std::_Vector_base"* %3, i32 0, i32 0
  %5 = bitcast %"struct.std::_Vector_base<std::__cxx11::basic_string<char>, std::allocator<std::__cxx11::basic_string<char>>>::_Vector_impl"* %4 to %"class.std::allocator.133"*
  ret %"class.std::allocator.133"* %5
}

; Function Attrs: noinline nounwind optnone uwtable
define linkonce_odr dso_local void @_ZNSt12_Vector_baseINSt7__cxx1112basic_stringIcSt11char_traitsIcESaIcEEESaIS5_EED2Ev(%"struct.std::_Vector_base"* nonnull align 8 dereferenceable(24) %0) unnamed_addr #3 comdat align 2 personality i8* bitcast (i32 (...)* @__gxx_personality_seh0 to i8*) {
  %2 = alloca %"struct.std::_Vector_base"*, align 8
  %3 = alloca i8*, align 8
  %4 = alloca i32, align 4
  store %"struct.std::_Vector_base"* %0, %"struct.std::_Vector_base"** %2, align 8
  %5 = load %"struct.std::_Vector_base"*, %"struct.std::_Vector_base"** %2, align 8
  %6 = getelementptr inbounds %"struct.std::_Vector_base", %"struct.std::_Vector_base"* %5, i32 0, i32 0
  %7 = bitcast %"struct.std::_Vector_base<std::__cxx11::basic_string<char>, std::allocator<std::__cxx11::basic_string<char>>>::_Vector_impl"* %6 to %"struct.std::_Vector_base<std::__cxx11::basic_string<char>, std::allocator<std::__cxx11::basic_string<char>>>::_Vector_impl_data"*
  %8 = getelementptr inbounds %"struct.std::_Vector_base<std::__cxx11::basic_string<char>, std::allocator<std::__cxx11::basic_string<char>>>::_Vector_impl_data", %"struct.std::_Vector_base<std::__cxx11::basic_string<char>, std::allocator<std::__cxx11::basic_string<char>>>::_Vector_impl_data"* %7, i32 0, i32 0
  %9 = load %"class.std::__cxx11::basic_string"*, %"class.std::__cxx11::basic_string"** %8, align 8
  %10 = getelementptr inbounds %"struct.std::_Vector_base", %"struct.std::_Vector_base"* %5, i32 0, i32 0
  %11 = bitcast %"struct.std::_Vector_base<std::__cxx11::basic_string<char>, std::allocator<std::__cxx11::basic_string<char>>>::_Vector_impl"* %10 to %"struct.std::_Vector_base<std::__cxx11::basic_string<char>, std::allocator<std::__cxx11::basic_string<char>>>::_Vector_impl_data"*
  %12 = getelementptr inbounds %"struct.std::_Vector_base<std::__cxx11::basic_string<char>, std::allocator<std::__cxx11::basic_string<char>>>::_Vector_impl_data", %"struct.std::_Vector_base<std::__cxx11::basic_string<char>, std::allocator<std::__cxx11::basic_string<char>>>::_Vector_impl_data"* %11, i32 0, i32 2
  %13 = load %"class.std::__cxx11::basic_string"*, %"class.std::__cxx11::basic_string"** %12, align 8
  %14 = getelementptr inbounds %"struct.std::_Vector_base", %"struct.std::_Vector_base"* %5, i32 0, i32 0
  %15 = bitcast %"struct.std::_Vector_base<std::__cxx11::basic_string<char>, std::allocator<std::__cxx11::basic_string<char>>>::_Vector_impl"* %14 to %"struct.std::_Vector_base<std::__cxx11::basic_string<char>, std::allocator<std::__cxx11::basic_string<char>>>::_Vector_impl_data"*
  %16 = getelementptr inbounds %"struct.std::_Vector_base<std::__cxx11::basic_string<char>, std::allocator<std::__cxx11::basic_string<char>>>::_Vector_impl_data", %"struct.std::_Vector_base<std::__cxx11::basic_string<char>, std::allocator<std::__cxx11::basic_string<char>>>::_Vector_impl_data"* %15, i32 0, i32 0
  %17 = load %"class.std::__cxx11::basic_string"*, %"class.std::__cxx11::basic_string"** %16, align 8
  %18 = ptrtoint %"class.std::__cxx11::basic_string"* %13 to i64
  %19 = ptrtoint %"class.std::__cxx11::basic_string"* %17 to i64
  %20 = sub i64 %18, %19
  %21 = sdiv exact i64 %20, 32
  invoke void @_ZNSt12_Vector_baseINSt7__cxx1112basic_stringIcSt11char_traitsIcESaIcEEESaIS5_EE13_M_deallocateEPS5_y(%"struct.std::_Vector_base"* nonnull align 8 dereferenceable(24) %5, %"class.std::__cxx11::basic_string"* %9, i64 %21)
          to label %22 unwind label %24

22:                                               ; preds = %1
  %23 = getelementptr inbounds %"struct.std::_Vector_base", %"struct.std::_Vector_base"* %5, i32 0, i32 0
  call void @_ZNSt12_Vector_baseINSt7__cxx1112basic_stringIcSt11char_traitsIcESaIcEEESaIS5_EE12_Vector_implD2Ev(%"struct.std::_Vector_base<std::__cxx11::basic_string<char>, std::allocator<std::__cxx11::basic_string<char>>>::_Vector_impl"* nonnull align 8 dereferenceable(24) %23) #2
  ret void

24:                                               ; preds = %1
  %25 = landingpad { i8*, i32 }
          catch i8* null
  %26 = extractvalue { i8*, i32 } %25, 0
  store i8* %26, i8** %3, align 8
  %27 = extractvalue { i8*, i32 } %25, 1
  store i32 %27, i32* %4, align 4
  %28 = getelementptr inbounds %"struct.std::_Vector_base", %"struct.std::_Vector_base"* %5, i32 0, i32 0
  call void @_ZNSt12_Vector_baseINSt7__cxx1112basic_stringIcSt11char_traitsIcESaIcEEESaIS5_EE12_Vector_implD2Ev(%"struct.std::_Vector_base<std::__cxx11::basic_string<char>, std::allocator<std::__cxx11::basic_string<char>>>::_Vector_impl"* nonnull align 8 dereferenceable(24) %28) #2
  br label %29

29:                                               ; preds = %24
  %30 = load i8*, i8** %3, align 8
  call void @__clang_call_terminate(i8* %30) #21
  unreachable
}

; Function Attrs: mustprogress noinline optnone uwtable
define linkonce_odr dso_local void @_ZSt8_DestroyIPNSt7__cxx1112basic_stringIcSt11char_traitsIcESaIcEEEEvT_S7_(%"class.std::__cxx11::basic_string"* %0, %"class.std::__cxx11::basic_string"* %1) #6 comdat {
  %3 = alloca %"class.std::__cxx11::basic_string"*, align 8
  %4 = alloca %"class.std::__cxx11::basic_string"*, align 8
  store %"class.std::__cxx11::basic_string"* %0, %"class.std::__cxx11::basic_string"** %3, align 8
  store %"class.std::__cxx11::basic_string"* %1, %"class.std::__cxx11::basic_string"** %4, align 8
  %5 = load %"class.std::__cxx11::basic_string"*, %"class.std::__cxx11::basic_string"** %3, align 8
  %6 = load %"class.std::__cxx11::basic_string"*, %"class.std::__cxx11::basic_string"** %4, align 8
  call void @_ZNSt12_Destroy_auxILb0EE9__destroyIPNSt7__cxx1112basic_stringIcSt11char_traitsIcESaIcEEEEEvT_S9_(%"class.std::__cxx11::basic_string"* %5, %"class.std::__cxx11::basic_string"* %6)
  ret void
}

; Function Attrs: mustprogress noinline optnone uwtable
define linkonce_odr dso_local void @_ZNSt12_Destroy_auxILb0EE9__destroyIPNSt7__cxx1112basic_stringIcSt11char_traitsIcESaIcEEEEEvT_S9_(%"class.std::__cxx11::basic_string"* %0, %"class.std::__cxx11::basic_string"* %1) #6 comdat align 2 {
  %3 = alloca %"class.std::__cxx11::basic_string"*, align 8
  %4 = alloca %"class.std::__cxx11::basic_string"*, align 8
  store %"class.std::__cxx11::basic_string"* %0, %"class.std::__cxx11::basic_string"** %3, align 8
  store %"class.std::__cxx11::basic_string"* %1, %"class.std::__cxx11::basic_string"** %4, align 8
  br label %5

5:                                                ; preds = %12, %2
  %6 = load %"class.std::__cxx11::basic_string"*, %"class.std::__cxx11::basic_string"** %3, align 8
  %7 = load %"class.std::__cxx11::basic_string"*, %"class.std::__cxx11::basic_string"** %4, align 8
  %8 = icmp ne %"class.std::__cxx11::basic_string"* %6, %7
  br i1 %8, label %9, label %15

9:                                                ; preds = %5
  %10 = load %"class.std::__cxx11::basic_string"*, %"class.std::__cxx11::basic_string"** %3, align 8
  %11 = call %"class.std::__cxx11::basic_string"* @_ZSt11__addressofINSt7__cxx1112basic_stringIcSt11char_traitsIcESaIcEEEEPT_RS6_(%"class.std::__cxx11::basic_string"* nonnull align 8 dereferenceable(32) %10) #2
  call void @_ZSt8_DestroyINSt7__cxx1112basic_stringIcSt11char_traitsIcESaIcEEEEvPT_(%"class.std::__cxx11::basic_string"* %11)
  br label %12

12:                                               ; preds = %9
  %13 = load %"class.std::__cxx11::basic_string"*, %"class.std::__cxx11::basic_string"** %3, align 8
  %14 = getelementptr inbounds %"class.std::__cxx11::basic_string", %"class.std::__cxx11::basic_string"* %13, i32 1
  store %"class.std::__cxx11::basic_string"* %14, %"class.std::__cxx11::basic_string"** %3, align 8
  br label %5, !llvm.loop !9

15:                                               ; preds = %5
  ret void
}

; Function Attrs: mustprogress noinline nounwind optnone uwtable
define linkonce_odr dso_local void @_ZSt8_DestroyINSt7__cxx1112basic_stringIcSt11char_traitsIcESaIcEEEEvPT_(%"class.std::__cxx11::basic_string"* %0) #7 comdat {
  %2 = alloca %"class.std::__cxx11::basic_string"*, align 8
  store %"class.std::__cxx11::basic_string"* %0, %"class.std::__cxx11::basic_string"** %2, align 8
  %3 = load %"class.std::__cxx11::basic_string"*, %"class.std::__cxx11::basic_string"** %2, align 8
  call void @_ZNSt7__cxx1112basic_stringIcSt11char_traitsIcESaIcEED1Ev(%"class.std::__cxx11::basic_string"* nonnull align 8 dereferenceable(32) %3) #2
  ret void
}

; Function Attrs: mustprogress noinline nounwind optnone uwtable
define linkonce_odr dso_local %"class.std::__cxx11::basic_string"* @_ZSt11__addressofINSt7__cxx1112basic_stringIcSt11char_traitsIcESaIcEEEEPT_RS6_(%"class.std::__cxx11::basic_string"* nonnull align 8 dereferenceable(32) %0) #7 comdat {
  %2 = alloca %"class.std::__cxx11::basic_string"*, align 8
  store %"class.std::__cxx11::basic_string"* %0, %"class.std::__cxx11::basic_string"** %2, align 8
  %3 = load %"class.std::__cxx11::basic_string"*, %"class.std::__cxx11::basic_string"** %2, align 8
  ret %"class.std::__cxx11::basic_string"* %3
}

; Function Attrs: mustprogress noinline optnone uwtable
define linkonce_odr dso_local void @_ZNSt12_Vector_baseINSt7__cxx1112basic_stringIcSt11char_traitsIcESaIcEEESaIS5_EE13_M_deallocateEPS5_y(%"struct.std::_Vector_base"* nonnull align 8 dereferenceable(24) %0, %"class.std::__cxx11::basic_string"* %1, i64 %2) #6 comdat align 2 {
  %4 = alloca %"struct.std::_Vector_base"*, align 8
  %5 = alloca %"class.std::__cxx11::basic_string"*, align 8
  %6 = alloca i64, align 8
  store %"struct.std::_Vector_base"* %0, %"struct.std::_Vector_base"** %4, align 8
  store %"class.std::__cxx11::basic_string"* %1, %"class.std::__cxx11::basic_string"** %5, align 8
  store i64 %2, i64* %6, align 8
  %7 = load %"struct.std::_Vector_base"*, %"struct.std::_Vector_base"** %4, align 8
  %8 = load %"class.std::__cxx11::basic_string"*, %"class.std::__cxx11::basic_string"** %5, align 8
  %9 = icmp ne %"class.std::__cxx11::basic_string"* %8, null
  br i1 %9, label %10, label %15

10:                                               ; preds = %3
  %11 = getelementptr inbounds %"struct.std::_Vector_base", %"struct.std::_Vector_base"* %7, i32 0, i32 0
  %12 = bitcast %"struct.std::_Vector_base<std::__cxx11::basic_string<char>, std::allocator<std::__cxx11::basic_string<char>>>::_Vector_impl"* %11 to %"class.std::allocator.133"*
  %13 = load %"class.std::__cxx11::basic_string"*, %"class.std::__cxx11::basic_string"** %5, align 8
  %14 = load i64, i64* %6, align 8
  call void @_ZNSt16allocator_traitsISaINSt7__cxx1112basic_stringIcSt11char_traitsIcESaIcEEEEE10deallocateERS6_PS5_y(%"class.std::allocator.133"* nonnull align 1 dereferenceable(1) %12, %"class.std::__cxx11::basic_string"* %13, i64 %14)
  br label %15

15:                                               ; preds = %10, %3
  ret void
}

; Function Attrs: noinline nounwind optnone uwtable
define linkonce_odr dso_local void @_ZNSt12_Vector_baseINSt7__cxx1112basic_stringIcSt11char_traitsIcESaIcEEESaIS5_EE12_Vector_implD2Ev(%"struct.std::_Vector_base<std::__cxx11::basic_string<char>, std::allocator<std::__cxx11::basic_string<char>>>::_Vector_impl"* nonnull align 8 dereferenceable(24) %0) unnamed_addr #3 comdat align 2 {
  %2 = alloca %"struct.std::_Vector_base<std::__cxx11::basic_string<char>, std::allocator<std::__cxx11::basic_string<char>>>::_Vector_impl"*, align 8
  store %"struct.std::_Vector_base<std::__cxx11::basic_string<char>, std::allocator<std::__cxx11::basic_string<char>>>::_Vector_impl"* %0, %"struct.std::_Vector_base<std::__cxx11::basic_string<char>, std::allocator<std::__cxx11::basic_string<char>>>::_Vector_impl"** %2, align 8
  %3 = load %"struct.std::_Vector_base<std::__cxx11::basic_string<char>, std::allocator<std::__cxx11::basic_string<char>>>::_Vector_impl"*, %"struct.std::_Vector_base<std::__cxx11::basic_string<char>, std::allocator<std::__cxx11::basic_string<char>>>::_Vector_impl"** %2, align 8
  %4 = bitcast %"struct.std::_Vector_base<std::__cxx11::basic_string<char>, std::allocator<std::__cxx11::basic_string<char>>>::_Vector_impl"* %3 to %"class.std::allocator.133"*
  call void @_ZNSaINSt7__cxx1112basic_stringIcSt11char_traitsIcESaIcEEEED2Ev(%"class.std::allocator.133"* nonnull align 1 dereferenceable(1) %4) #2
  ret void
}

; Function Attrs: mustprogress noinline optnone uwtable
define linkonce_odr dso_local void @_ZNSt16allocator_traitsISaINSt7__cxx1112basic_stringIcSt11char_traitsIcESaIcEEEEE10deallocateERS6_PS5_y(%"class.std::allocator.133"* nonnull align 1 dereferenceable(1) %0, %"class.std::__cxx11::basic_string"* %1, i64 %2) #6 comdat align 2 {
  %4 = alloca %"class.std::allocator.133"*, align 8
  %5 = alloca %"class.std::__cxx11::basic_string"*, align 8
  %6 = alloca i64, align 8
  store %"class.std::allocator.133"* %0, %"class.std::allocator.133"** %4, align 8
  store %"class.std::__cxx11::basic_string"* %1, %"class.std::__cxx11::basic_string"** %5, align 8
  store i64 %2, i64* %6, align 8
  %7 = load %"class.std::allocator.133"*, %"class.std::allocator.133"** %4, align 8
  %8 = bitcast %"class.std::allocator.133"* %7 to %"class.__gnu_cxx::new_allocator.134"*
  %9 = load %"class.std::__cxx11::basic_string"*, %"class.std::__cxx11::basic_string"** %5, align 8
  %10 = load i64, i64* %6, align 8
  call void @_ZN9__gnu_cxx13new_allocatorINSt7__cxx1112basic_stringIcSt11char_traitsIcESaIcEEEE10deallocateEPS6_y(%"class.__gnu_cxx::new_allocator.134"* nonnull align 1 dereferenceable(1) %8, %"class.std::__cxx11::basic_string"* %9, i64 %10)
  ret void
}

; Function Attrs: mustprogress noinline nounwind optnone uwtable
define linkonce_odr dso_local void @_ZN9__gnu_cxx13new_allocatorINSt7__cxx1112basic_stringIcSt11char_traitsIcESaIcEEEE10deallocateEPS6_y(%"class.__gnu_cxx::new_allocator.134"* nonnull align 1 dereferenceable(1) %0, %"class.std::__cxx11::basic_string"* %1, i64 %2) #7 comdat align 2 {
  %4 = alloca %"class.__gnu_cxx::new_allocator.134"*, align 8
  %5 = alloca %"class.std::__cxx11::basic_string"*, align 8
  %6 = alloca i64, align 8
  store %"class.__gnu_cxx::new_allocator.134"* %0, %"class.__gnu_cxx::new_allocator.134"** %4, align 8
  store %"class.std::__cxx11::basic_string"* %1, %"class.std::__cxx11::basic_string"** %5, align 8
  store i64 %2, i64* %6, align 8
  %7 = load %"class.__gnu_cxx::new_allocator.134"*, %"class.__gnu_cxx::new_allocator.134"** %4, align 8
  %8 = load %"class.std::__cxx11::basic_string"*, %"class.std::__cxx11::basic_string"** %5, align 8
  %9 = bitcast %"class.std::__cxx11::basic_string"* %8 to i8*
  call void @_ZdlPv(i8* %9) #2
  ret void
}

; Function Attrs: noinline nounwind optnone uwtable
define linkonce_odr dso_local void @_ZN9__gnu_cxx13new_allocatorINSt7__cxx1112basic_stringIcSt11char_traitsIcESaIcEEEED2Ev(%"class.__gnu_cxx::new_allocator.134"* nonnull align 1 dereferenceable(1) %0) unnamed_addr #3 comdat align 2 {
  %2 = alloca %"class.__gnu_cxx::new_allocator.134"*, align 8
  store %"class.__gnu_cxx::new_allocator.134"* %0, %"class.__gnu_cxx::new_allocator.134"** %2, align 8
  %3 = load %"class.__gnu_cxx::new_allocator.134"*, %"class.__gnu_cxx::new_allocator.134"** %2, align 8
  ret void
}

; Function Attrs: mustprogress noinline nounwind optnone uwtable
define internal %"struct.std::pair"* @_ZN9__gnu_cxx16__aligned_membufISt4pairIKNSt7__cxx1112basic_stringIcSt11char_traitsIcESaIcEEESt10unique_ptrIN12_GLOBAL__N_112PrototypeASTESt14default_deleteISB_EEEE6_M_ptrEv(%"struct.__gnu_cxx::__aligned_membuf.262"* nonnull align 8 dereferenceable(40) %0) #7 align 2 {
  %2 = alloca %"struct.__gnu_cxx::__aligned_membuf.262"*, align 8
  store %"struct.__gnu_cxx::__aligned_membuf.262"* %0, %"struct.__gnu_cxx::__aligned_membuf.262"** %2, align 8
  %3 = load %"struct.__gnu_cxx::__aligned_membuf.262"*, %"struct.__gnu_cxx::__aligned_membuf.262"** %2, align 8
  %4 = call i8* @_ZN9__gnu_cxx16__aligned_membufISt4pairIKNSt7__cxx1112basic_stringIcSt11char_traitsIcESaIcEEESt10unique_ptrIN12_GLOBAL__N_112PrototypeASTESt14default_deleteISB_EEEE7_M_addrEv(%"struct.__gnu_cxx::__aligned_membuf.262"* nonnull align 8 dereferenceable(40) %3) #2
  %5 = bitcast i8* %4 to %"struct.std::pair"*
  ret %"struct.std::pair"* %5
}

; Function Attrs: mustprogress noinline nounwind optnone uwtable
define internal i8* @_ZN9__gnu_cxx16__aligned_membufISt4pairIKNSt7__cxx1112basic_stringIcSt11char_traitsIcESaIcEEESt10unique_ptrIN12_GLOBAL__N_112PrototypeASTESt14default_deleteISB_EEEE7_M_addrEv(%"struct.__gnu_cxx::__aligned_membuf.262"* nonnull align 8 dereferenceable(40) %0) #7 align 2 {
  %2 = alloca %"struct.__gnu_cxx::__aligned_membuf.262"*, align 8
  store %"struct.__gnu_cxx::__aligned_membuf.262"* %0, %"struct.__gnu_cxx::__aligned_membuf.262"** %2, align 8
  %3 = load %"struct.__gnu_cxx::__aligned_membuf.262"*, %"struct.__gnu_cxx::__aligned_membuf.262"** %2, align 8
  %4 = getelementptr inbounds %"struct.__gnu_cxx::__aligned_membuf.262", %"struct.__gnu_cxx::__aligned_membuf.262"* %3, i32 0, i32 0
  %5 = bitcast [40 x i8]* %4 to i8*
  ret i8* %5
}

; Function Attrs: mustprogress noinline optnone uwtable
define internal void @_ZNSt16allocator_traitsISaISt13_Rb_tree_nodeISt4pairIKNSt7__cxx1112basic_stringIcSt11char_traitsIcESaIcEEESt10unique_ptrIN12_GLOBAL__N_112PrototypeASTESt14default_deleteISB_EEEEEE10deallocateERSH_PSG_y(%"class.std::allocator.106"* nonnull align 1 dereferenceable(1) %0, %"struct.std::_Rb_tree_node.261"* %1, i64 %2) #6 align 2 {
  %4 = alloca %"class.std::allocator.106"*, align 8
  %5 = alloca %"struct.std::_Rb_tree_node.261"*, align 8
  %6 = alloca i64, align 8
  store %"class.std::allocator.106"* %0, %"class.std::allocator.106"** %4, align 8
  store %"struct.std::_Rb_tree_node.261"* %1, %"struct.std::_Rb_tree_node.261"** %5, align 8
  store i64 %2, i64* %6, align 8
  %7 = load %"class.std::allocator.106"*, %"class.std::allocator.106"** %4, align 8
  %8 = bitcast %"class.std::allocator.106"* %7 to %"class.__gnu_cxx::new_allocator.107"*
  %9 = load %"struct.std::_Rb_tree_node.261"*, %"struct.std::_Rb_tree_node.261"** %5, align 8
  %10 = load i64, i64* %6, align 8
  call void @_ZN9__gnu_cxx13new_allocatorISt13_Rb_tree_nodeISt4pairIKNSt7__cxx1112basic_stringIcSt11char_traitsIcESaIcEEESt10unique_ptrIN12_GLOBAL__N_112PrototypeASTESt14default_deleteISC_EEEEE10deallocateEPSH_y(%"class.__gnu_cxx::new_allocator.107"* nonnull align 1 dereferenceable(1) %8, %"struct.std::_Rb_tree_node.261"* %9, i64 %10)
  ret void
}

; Function Attrs: mustprogress noinline nounwind optnone uwtable
define internal void @_ZN9__gnu_cxx13new_allocatorISt13_Rb_tree_nodeISt4pairIKNSt7__cxx1112basic_stringIcSt11char_traitsIcESaIcEEESt10unique_ptrIN12_GLOBAL__N_112PrototypeASTESt14default_deleteISC_EEEEE10deallocateEPSH_y(%"class.__gnu_cxx::new_allocator.107"* nonnull align 1 dereferenceable(1) %0, %"struct.std::_Rb_tree_node.261"* %1, i64 %2) #7 align 2 {
  %4 = alloca %"class.__gnu_cxx::new_allocator.107"*, align 8
  %5 = alloca %"struct.std::_Rb_tree_node.261"*, align 8
  %6 = alloca i64, align 8
  store %"class.__gnu_cxx::new_allocator.107"* %0, %"class.__gnu_cxx::new_allocator.107"** %4, align 8
  store %"struct.std::_Rb_tree_node.261"* %1, %"struct.std::_Rb_tree_node.261"** %5, align 8
  store i64 %2, i64* %6, align 8
  %7 = load %"class.__gnu_cxx::new_allocator.107"*, %"class.__gnu_cxx::new_allocator.107"** %4, align 8
  %8 = load %"struct.std::_Rb_tree_node.261"*, %"struct.std::_Rb_tree_node.261"** %5, align 8
  %9 = bitcast %"struct.std::_Rb_tree_node.261"* %8 to i8*
  call void @_ZdlPv(i8* %9) #2
  ret void
}

; Function Attrs: mustprogress noinline nounwind optnone uwtable
define internal %"struct.std::_Rb_tree_node.261"* @_ZNKSt8_Rb_treeINSt7__cxx1112basic_stringIcSt11char_traitsIcESaIcEEESt4pairIKS5_St10unique_ptrIN12_GLOBAL__N_112PrototypeASTESt14default_deleteISA_EEESt10_Select1stISE_ESt4lessIS5_ESaISE_EE9_M_mbeginEv(%"class.std::_Rb_tree.105"* nonnull align 8 dereferenceable(48) %0) #7 align 2 {
  %2 = alloca %"class.std::_Rb_tree.105"*, align 8
  store %"class.std::_Rb_tree.105"* %0, %"class.std::_Rb_tree.105"** %2, align 8
  %3 = load %"class.std::_Rb_tree.105"*, %"class.std::_Rb_tree.105"** %2, align 8
  %4 = getelementptr inbounds %"class.std::_Rb_tree.105", %"class.std::_Rb_tree.105"* %3, i32 0, i32 0
  %5 = bitcast %"struct.std::_Rb_tree<std::__cxx11::basic_string<char>, std::pair<const std::__cxx11::basic_string<char>, std::unique_ptr<(anonymous namespace)::PrototypeAST>>, std::_Select1st<std::pair<const std::__cxx11::basic_string<char>, std::unique_ptr<(anonymous namespace)::PrototypeAST>>>, std::less<std::__cxx11::basic_string<char>>>::_Rb_tree_impl"* %4 to i8*
  %6 = getelementptr inbounds i8, i8* %5, i64 8
  %7 = bitcast i8* %6 to %"struct.std::_Rb_tree_header"*
  %8 = getelementptr inbounds %"struct.std::_Rb_tree_header", %"struct.std::_Rb_tree_header"* %7, i32 0, i32 0
  %9 = getelementptr inbounds %"struct.std::_Rb_tree_node_base", %"struct.std::_Rb_tree_node_base"* %8, i32 0, i32 1
  %10 = load %"struct.std::_Rb_tree_node_base"*, %"struct.std::_Rb_tree_node_base"** %9, align 8
  %11 = bitcast %"struct.std::_Rb_tree_node_base"* %10 to %"struct.std::_Rb_tree_node.261"*
  ret %"struct.std::_Rb_tree_node.261"* %11
}

; Function Attrs: noinline nounwind optnone uwtable
define internal void @_ZNSaISt13_Rb_tree_nodeISt4pairIKNSt7__cxx1112basic_stringIcSt11char_traitsIcESaIcEEESt10unique_ptrIN12_GLOBAL__N_112PrototypeASTESt14default_deleteISA_EEEEED2Ev(%"class.std::allocator.106"* nonnull align 1 dereferenceable(1) %0) unnamed_addr #3 align 2 {
  %2 = alloca %"class.std::allocator.106"*, align 8
  store %"class.std::allocator.106"* %0, %"class.std::allocator.106"** %2, align 8
  %3 = load %"class.std::allocator.106"*, %"class.std::allocator.106"** %2, align 8
  %4 = bitcast %"class.std::allocator.106"* %3 to %"class.__gnu_cxx::new_allocator.107"*
  call void @_ZN9__gnu_cxx13new_allocatorISt13_Rb_tree_nodeISt4pairIKNSt7__cxx1112basic_stringIcSt11char_traitsIcESaIcEEESt10unique_ptrIN12_GLOBAL__N_112PrototypeASTESt14default_deleteISC_EEEEED2Ev(%"class.__gnu_cxx::new_allocator.107"* nonnull align 1 dereferenceable(1) %4) #2
  ret void
}

; Function Attrs: noinline nounwind optnone uwtable
define internal void @_ZN9__gnu_cxx13new_allocatorISt13_Rb_tree_nodeISt4pairIKNSt7__cxx1112basic_stringIcSt11char_traitsIcESaIcEEESt10unique_ptrIN12_GLOBAL__N_112PrototypeASTESt14default_deleteISC_EEEEED2Ev(%"class.__gnu_cxx::new_allocator.107"* nonnull align 1 dereferenceable(1) %0) unnamed_addr #3 align 2 {
  %2 = alloca %"class.__gnu_cxx::new_allocator.107"*, align 8
  store %"class.__gnu_cxx::new_allocator.107"* %0, %"class.__gnu_cxx::new_allocator.107"** %2, align 8
  %3 = load %"class.__gnu_cxx::new_allocator.107"*, %"class.__gnu_cxx::new_allocator.107"** %2, align 8
  ret void
}

; Function Attrs: mustprogress noinline nounwind optnone uwtable
define linkonce_odr dso_local nonnull align 8 dereferenceable(32) %"class.std::__cxx11::basic_string"* @_ZSt4moveIRNSt7__cxx1112basic_stringIcSt11char_traitsIcESaIcEEEEONSt16remove_referenceIT_E4typeEOS8_(%"class.std::__cxx11::basic_string"* nonnull align 8 dereferenceable(32) %0) #7 comdat {
  %2 = alloca %"class.std::__cxx11::basic_string"*, align 8
  store %"class.std::__cxx11::basic_string"* %0, %"class.std::__cxx11::basic_string"** %2, align 8
  %3 = load %"class.std::__cxx11::basic_string"*, %"class.std::__cxx11::basic_string"** %2, align 8
  ret %"class.std::__cxx11::basic_string"* %3
}

; Function Attrs: nounwind
declare dso_local void @_ZNSt7__cxx1112basic_stringIcSt11char_traitsIcESaIcEEC1EOS4_(%"class.std::__cxx11::basic_string"* nonnull align 8 dereferenceable(32), %"class.std::__cxx11::basic_string"* nonnull align 8 dereferenceable(32)) unnamed_addr #1

; Function Attrs: noinline optnone uwtable
define linkonce_odr dso_local void @_ZNSt8functionIFiRKN4llvm5ErrorEEEC2IZNS0_11ExitOnErrorC1ENSt7__cxx1112basic_stringIcSt11char_traitsIcESaIcEEEiEUlS3_E_vvEET_(%"class.std::function"* nonnull align 8 dereferenceable(32) %0, i32 %1) unnamed_addr #5 comdat align 2 personality i8* bitcast (i32 (...)* @__gxx_personality_seh0 to i8*) {
  %3 = alloca %class.anon, align 4
  %4 = alloca %"class.std::function"*, align 8
  %5 = alloca i8*, align 8
  %6 = alloca i32, align 4
  %7 = getelementptr inbounds %class.anon, %class.anon* %3, i32 0, i32 0
  store i32 %1, i32* %7, align 4
  store %"class.std::function"* %0, %"class.std::function"** %4, align 8
  %8 = load %"class.std::function"*, %"class.std::function"** %4, align 8
  %9 = bitcast %"class.std::function"* %8 to %"struct.std::_Maybe_unary_or_binary_function"*
  %10 = bitcast %"class.std::function"* %8 to %"class.std::_Function_base"*
  call void @_ZNSt14_Function_baseC2Ev(%"class.std::_Function_base"* nonnull align 8 dereferenceable(24) %10)
  %11 = invoke zeroext i1 @_ZNSt14_Function_base13_Base_managerIZN4llvm11ExitOnErrorC1ENSt7__cxx1112basic_stringIcSt11char_traitsIcESaIcEEEiEUlRKNS1_5ErrorEE_E21_M_not_empty_functionISC_EEbRKT_(%class.anon* nonnull align 4 dereferenceable(4) %3)
          to label %12 unwind label %21

12:                                               ; preds = %2
  br i1 %11, label %13, label %26

13:                                               ; preds = %12
  %14 = bitcast %"class.std::function"* %8 to %"class.std::_Function_base"*
  %15 = getelementptr inbounds %"class.std::_Function_base", %"class.std::_Function_base"* %14, i32 0, i32 0
  %16 = call nonnull align 4 dereferenceable(4) %class.anon* @_ZSt4moveIRZN4llvm11ExitOnErrorC1ENSt7__cxx1112basic_stringIcSt11char_traitsIcESaIcEEEiEUlRKNS0_5ErrorEE_EONSt16remove_referenceIT_E4typeEOSE_(%class.anon* nonnull align 4 dereferenceable(4) %3) #2
  invoke void @_ZNSt14_Function_base13_Base_managerIZN4llvm11ExitOnErrorC1ENSt7__cxx1112basic_stringIcSt11char_traitsIcESaIcEEEiEUlRKNS1_5ErrorEE_E15_M_init_functorERSt9_Any_dataOSC_(%"union.std::_Any_data"* nonnull align 8 dereferenceable(16) %15, %class.anon* nonnull align 4 dereferenceable(4) %16)
          to label %17 unwind label %21

17:                                               ; preds = %13
  %18 = getelementptr inbounds %"class.std::function", %"class.std::function"* %8, i32 0, i32 1
  store i32 (%"union.std::_Any_data"*, %"class.llvm::Error"*)* @_ZNSt17_Function_handlerIFiRKN4llvm5ErrorEEZNS0_11ExitOnErrorC1ENSt7__cxx1112basic_stringIcSt11char_traitsIcESaIcEEEiEUlS3_E_E9_M_invokeERKSt9_Any_dataS3_, i32 (%"union.std::_Any_data"*, %"class.llvm::Error"*)** %18, align 8
  %19 = bitcast %"class.std::function"* %8 to %"class.std::_Function_base"*
  %20 = getelementptr inbounds %"class.std::_Function_base", %"class.std::_Function_base"* %19, i32 0, i32 1
  store i1 (%"union.std::_Any_data"*, %"union.std::_Any_data"*, i32)* @_ZNSt17_Function_handlerIFiRKN4llvm5ErrorEEZNS0_11ExitOnErrorC1ENSt7__cxx1112basic_stringIcSt11char_traitsIcESaIcEEEiEUlS3_E_E10_M_managerERSt9_Any_dataRKSE_St18_Manager_operation, i1 (%"union.std::_Any_data"*, %"union.std::_Any_data"*, i32)** %20, align 8
  br label %26

21:                                               ; preds = %13, %2
  %22 = landingpad { i8*, i32 }
          cleanup
  %23 = extractvalue { i8*, i32 } %22, 0
  store i8* %23, i8** %5, align 8
  %24 = extractvalue { i8*, i32 } %22, 1
  store i32 %24, i32* %6, align 4
  %25 = bitcast %"class.std::function"* %8 to %"class.std::_Function_base"*
  call void @_ZNSt14_Function_baseD2Ev(%"class.std::_Function_base"* nonnull align 8 dereferenceable(24) %25) #2
  br label %27

26:                                               ; preds = %17, %12
  ret void

27:                                               ; preds = %21
  %28 = load i8*, i8** %5, align 8
  %29 = load i32, i32* %6, align 4
  %30 = insertvalue { i8*, i32 } undef, i8* %28, 0
  %31 = insertvalue { i8*, i32 } %30, i32 %29, 1
  resume { i8*, i32 } %31
}

; Function Attrs: noinline nounwind optnone uwtable
define linkonce_odr dso_local void @_ZNSt14_Function_baseC2Ev(%"class.std::_Function_base"* nonnull align 8 dereferenceable(24) %0) unnamed_addr #3 comdat align 2 {
  %2 = alloca %"class.std::_Function_base"*, align 8
  store %"class.std::_Function_base"* %0, %"class.std::_Function_base"** %2, align 8
  %3 = load %"class.std::_Function_base"*, %"class.std::_Function_base"** %2, align 8
  %4 = getelementptr inbounds %"class.std::_Function_base", %"class.std::_Function_base"* %3, i32 0, i32 0
  %5 = getelementptr inbounds %"class.std::_Function_base", %"class.std::_Function_base"* %3, i32 0, i32 1
  store i1 (%"union.std::_Any_data"*, %"union.std::_Any_data"*, i32)* null, i1 (%"union.std::_Any_data"*, %"union.std::_Any_data"*, i32)** %5, align 8
  ret void
}

; Function Attrs: mustprogress noinline nounwind optnone uwtable
define linkonce_odr dso_local zeroext i1 @_ZNSt14_Function_base13_Base_managerIZN4llvm11ExitOnErrorC1ENSt7__cxx1112basic_stringIcSt11char_traitsIcESaIcEEEiEUlRKNS1_5ErrorEE_E21_M_not_empty_functionISC_EEbRKT_(%class.anon* nonnull align 4 dereferenceable(4) %0) #7 comdat align 2 {
  %2 = alloca %class.anon*, align 8
  store %class.anon* %0, %class.anon** %2, align 8
  ret i1 true
}

; Function Attrs: mustprogress noinline optnone uwtable
define linkonce_odr dso_local void @_ZNSt14_Function_base13_Base_managerIZN4llvm11ExitOnErrorC1ENSt7__cxx1112basic_stringIcSt11char_traitsIcESaIcEEEiEUlRKNS1_5ErrorEE_E15_M_init_functorERSt9_Any_dataOSC_(%"union.std::_Any_data"* nonnull align 8 dereferenceable(16) %0, %class.anon* nonnull align 4 dereferenceable(4) %1) #6 comdat align 2 {
  %3 = alloca %"union.std::_Any_data"*, align 8
  %4 = alloca %class.anon*, align 8
  %5 = alloca %"struct.std::integral_constant", align 1
  store %"union.std::_Any_data"* %0, %"union.std::_Any_data"** %3, align 8
  store %class.anon* %1, %class.anon** %4, align 8
  %6 = load %"union.std::_Any_data"*, %"union.std::_Any_data"** %3, align 8
  %7 = load %class.anon*, %class.anon** %4, align 8
  %8 = call nonnull align 4 dereferenceable(4) %class.anon* @_ZSt4moveIRZN4llvm11ExitOnErrorC1ENSt7__cxx1112basic_stringIcSt11char_traitsIcESaIcEEEiEUlRKNS0_5ErrorEE_EONSt16remove_referenceIT_E4typeEOSE_(%class.anon* nonnull align 4 dereferenceable(4) %7) #2
  %9 = getelementptr inbounds %"struct.std::integral_constant", %"struct.std::integral_constant"* %5, i32 0, i32 0
  %10 = load i8, i8* %9, align 1
  call void @_ZNSt14_Function_base13_Base_managerIZN4llvm11ExitOnErrorC1ENSt7__cxx1112basic_stringIcSt11char_traitsIcESaIcEEEiEUlRKNS1_5ErrorEE_E15_M_init_functorERSt9_Any_dataOSC_St17integral_constantIbLb1EE(%"union.std::_Any_data"* nonnull align 8 dereferenceable(16) %6, %class.anon* nonnull align 4 dereferenceable(4) %8, i8 %10)
  ret void
}

; Function Attrs: mustprogress noinline nounwind optnone uwtable
define linkonce_odr dso_local nonnull align 4 dereferenceable(4) %class.anon* @_ZSt4moveIRZN4llvm11ExitOnErrorC1ENSt7__cxx1112basic_stringIcSt11char_traitsIcESaIcEEEiEUlRKNS0_5ErrorEE_EONSt16remove_referenceIT_E4typeEOSE_(%class.anon* nonnull align 4 dereferenceable(4) %0) #7 comdat {
  %2 = alloca %class.anon*, align 8
  store %class.anon* %0, %class.anon** %2, align 8
  %3 = load %class.anon*, %class.anon** %2, align 8
  ret %class.anon* %3
}

; Function Attrs: mustprogress noinline optnone uwtable
define linkonce_odr dso_local i32 @_ZNSt17_Function_handlerIFiRKN4llvm5ErrorEEZNS0_11ExitOnErrorC1ENSt7__cxx1112basic_stringIcSt11char_traitsIcESaIcEEEiEUlS3_E_E9_M_invokeERKSt9_Any_dataS3_(%"union.std::_Any_data"* nonnull align 8 dereferenceable(16) %0, %"class.llvm::Error"* nonnull align 8 dereferenceable(8) %1) #6 comdat align 2 {
  %3 = alloca %"union.std::_Any_data"*, align 8
  %4 = alloca %"class.llvm::Error"*, align 8
  store %"union.std::_Any_data"* %0, %"union.std::_Any_data"** %3, align 8
  store %"class.llvm::Error"* %1, %"class.llvm::Error"** %4, align 8
  %5 = load %"union.std::_Any_data"*, %"union.std::_Any_data"** %3, align 8
  %6 = call %class.anon* @_ZNSt14_Function_base13_Base_managerIZN4llvm11ExitOnErrorC1ENSt7__cxx1112basic_stringIcSt11char_traitsIcESaIcEEEiEUlRKNS1_5ErrorEE_E14_M_get_pointerERKSt9_Any_data(%"union.std::_Any_data"* nonnull align 8 dereferenceable(16) %5)
  %7 = load %"class.llvm::Error"*, %"class.llvm::Error"** %4, align 8
  %8 = call nonnull align 8 dereferenceable(8) %"class.llvm::Error"* @_ZSt7forwardIRKN4llvm5ErrorEEOT_RNSt16remove_referenceIS4_E4typeE(%"class.llvm::Error"* nonnull align 8 dereferenceable(8) %7) #2
  %9 = call i32 @_ZSt10__invoke_rIiRZN4llvm11ExitOnErrorC1ENSt7__cxx1112basic_stringIcSt11char_traitsIcESaIcEEEiEUlRKNS0_5ErrorEE_JSA_EENSt9enable_ifIXsr6__and_ISt6__not_ISt7is_voidIT_EESt14is_convertibleINSt15__invoke_resultIT0_JDpT1_EE4typeESG_EEE5valueESG_E4typeEOSL_DpOSM_(%class.anon* nonnull align 4 dereferenceable(4) %6, %"class.llvm::Error"* nonnull align 8 dereferenceable(8) %8)
  ret i32 %9
}

; Function Attrs: mustprogress noinline optnone uwtable
define linkonce_odr dso_local zeroext i1 @_ZNSt17_Function_handlerIFiRKN4llvm5ErrorEEZNS0_11ExitOnErrorC1ENSt7__cxx1112basic_stringIcSt11char_traitsIcESaIcEEEiEUlS3_E_E10_M_managerERSt9_Any_dataRKSE_St18_Manager_operation(%"union.std::_Any_data"* nonnull align 8 dereferenceable(16) %0, %"union.std::_Any_data"* nonnull align 8 dereferenceable(16) %1, i32 %2) #6 comdat align 2 {
  %4 = alloca %"union.std::_Any_data"*, align 8
  %5 = alloca %"union.std::_Any_data"*, align 8
  %6 = alloca i32, align 4
  store %"union.std::_Any_data"* %0, %"union.std::_Any_data"** %4, align 8
  store %"union.std::_Any_data"* %1, %"union.std::_Any_data"** %5, align 8
  store i32 %2, i32* %6, align 4
  %7 = load i32, i32* %6, align 4
  switch i32 %7, label %16 [
    i32 0, label %8
    i32 1, label %11
  ]

8:                                                ; preds = %3
  %9 = load %"union.std::_Any_data"*, %"union.std::_Any_data"** %4, align 8
  %10 = call nonnull align 8 dereferenceable(8) %"class.std::type_info"** @_ZNSt9_Any_data9_M_accessIPKSt9type_infoEERT_v(%"union.std::_Any_data"* nonnull align 8 dereferenceable(16) %9)
  store %"class.std::type_info"* bitcast ({ i8*, i8* }* @_ZTIZN4llvm11ExitOnErrorC1ENSt7__cxx1112basic_stringIcSt11char_traitsIcESaIcEEEiEUlRKNS_5ErrorEE_ to %"class.std::type_info"*), %"class.std::type_info"** %10, align 8
  br label %21

11:                                               ; preds = %3
  %12 = load %"union.std::_Any_data"*, %"union.std::_Any_data"** %5, align 8
  %13 = call %class.anon* @_ZNSt14_Function_base13_Base_managerIZN4llvm11ExitOnErrorC1ENSt7__cxx1112basic_stringIcSt11char_traitsIcESaIcEEEiEUlRKNS1_5ErrorEE_E14_M_get_pointerERKSt9_Any_data(%"union.std::_Any_data"* nonnull align 8 dereferenceable(16) %12)
  %14 = load %"union.std::_Any_data"*, %"union.std::_Any_data"** %4, align 8
  %15 = call nonnull align 8 dereferenceable(8) %class.anon** @_ZNSt9_Any_data9_M_accessIPZN4llvm11ExitOnErrorC1ENSt7__cxx1112basic_stringIcSt11char_traitsIcESaIcEEEiEUlRKNS1_5ErrorEE_EERT_v(%"union.std::_Any_data"* nonnull align 8 dereferenceable(16) %14)
  store %class.anon* %13, %class.anon** %15, align 8
  br label %21

16:                                               ; preds = %3
  %17 = load %"union.std::_Any_data"*, %"union.std::_Any_data"** %4, align 8
  %18 = load %"union.std::_Any_data"*, %"union.std::_Any_data"** %5, align 8
  %19 = load i32, i32* %6, align 4
  %20 = call zeroext i1 @_ZNSt14_Function_base13_Base_managerIZN4llvm11ExitOnErrorC1ENSt7__cxx1112basic_stringIcSt11char_traitsIcESaIcEEEiEUlRKNS1_5ErrorEE_E10_M_managerERSt9_Any_dataRKSE_St18_Manager_operation(%"union.std::_Any_data"* nonnull align 8 dereferenceable(16) %17, %"union.std::_Any_data"* nonnull align 8 dereferenceable(16) %18, i32 %19)
  br label %21

21:                                               ; preds = %16, %11, %8
  ret i1 false
}

; Function Attrs: noinline nounwind optnone uwtable
define linkonce_odr dso_local void @_ZNSt14_Function_baseD2Ev(%"class.std::_Function_base"* nonnull align 8 dereferenceable(24) %0) unnamed_addr #3 comdat align 2 personality i8* bitcast (i32 (...)* @__gxx_personality_seh0 to i8*) {
  %2 = alloca %"class.std::_Function_base"*, align 8
  store %"class.std::_Function_base"* %0, %"class.std::_Function_base"** %2, align 8
  %3 = load %"class.std::_Function_base"*, %"class.std::_Function_base"** %2, align 8
  %4 = getelementptr inbounds %"class.std::_Function_base", %"class.std::_Function_base"* %3, i32 0, i32 1
  %5 = load i1 (%"union.std::_Any_data"*, %"union.std::_Any_data"*, i32)*, i1 (%"union.std::_Any_data"*, %"union.std::_Any_data"*, i32)** %4, align 8
  %6 = icmp ne i1 (%"union.std::_Any_data"*, %"union.std::_Any_data"*, i32)* %5, null
  br i1 %6, label %7, label %14

7:                                                ; preds = %1
  %8 = getelementptr inbounds %"class.std::_Function_base", %"class.std::_Function_base"* %3, i32 0, i32 1
  %9 = load i1 (%"union.std::_Any_data"*, %"union.std::_Any_data"*, i32)*, i1 (%"union.std::_Any_data"*, %"union.std::_Any_data"*, i32)** %8, align 8
  %10 = getelementptr inbounds %"class.std::_Function_base", %"class.std::_Function_base"* %3, i32 0, i32 0
  %11 = getelementptr inbounds %"class.std::_Function_base", %"class.std::_Function_base"* %3, i32 0, i32 0
  %12 = invoke zeroext i1 %9(%"union.std::_Any_data"* nonnull align 8 dereferenceable(16) %10, %"union.std::_Any_data"* nonnull align 8 dereferenceable(16) %11, i32 3)
          to label %13 unwind label %15

13:                                               ; preds = %7
  br label %14

14:                                               ; preds = %13, %1
  ret void

15:                                               ; preds = %7
  %16 = landingpad { i8*, i32 }
          catch i8* null
  %17 = extractvalue { i8*, i32 } %16, 0
  call void @__clang_call_terminate(i8* %17) #21
  unreachable
}

; Function Attrs: mustprogress noinline optnone uwtable
define linkonce_odr dso_local void @_ZNSt14_Function_base13_Base_managerIZN4llvm11ExitOnErrorC1ENSt7__cxx1112basic_stringIcSt11char_traitsIcESaIcEEEiEUlRKNS1_5ErrorEE_E15_M_init_functorERSt9_Any_dataOSC_St17integral_constantIbLb1EE(%"union.std::_Any_data"* nonnull align 8 dereferenceable(16) %0, %class.anon* nonnull align 4 dereferenceable(4) %1, i8 %2) #6 comdat align 2 {
  %4 = alloca %"struct.std::integral_constant", align 1
  %5 = alloca %"union.std::_Any_data"*, align 8
  %6 = alloca %class.anon*, align 8
  %7 = getelementptr inbounds %"struct.std::integral_constant", %"struct.std::integral_constant"* %4, i32 0, i32 0
  store i8 %2, i8* %7, align 1
  store %"union.std::_Any_data"* %0, %"union.std::_Any_data"** %5, align 8
  store %class.anon* %1, %class.anon** %6, align 8
  %8 = load %"union.std::_Any_data"*, %"union.std::_Any_data"** %5, align 8
  %9 = call i8* @_ZNSt9_Any_data9_M_accessEv(%"union.std::_Any_data"* nonnull align 8 dereferenceable(16) %8)
  %10 = bitcast i8* %9 to %class.anon*
  %11 = load %class.anon*, %class.anon** %6, align 8
  %12 = call nonnull align 4 dereferenceable(4) %class.anon* @_ZSt4moveIRZN4llvm11ExitOnErrorC1ENSt7__cxx1112basic_stringIcSt11char_traitsIcESaIcEEEiEUlRKNS0_5ErrorEE_EONSt16remove_referenceIT_E4typeEOSE_(%class.anon* nonnull align 4 dereferenceable(4) %11) #2
  %13 = bitcast %class.anon* %10 to i8*
  %14 = bitcast %class.anon* %12 to i8*
  call void @llvm.memcpy.p0i8.p0i8.i64(i8* align 4 %13, i8* align 4 %14, i64 4, i1 false)
  ret void
}

; Function Attrs: mustprogress noinline nounwind optnone uwtable
define linkonce_odr dso_local i8* @_ZNSt9_Any_data9_M_accessEv(%"union.std::_Any_data"* nonnull align 8 dereferenceable(16) %0) #7 comdat align 2 {
  %2 = alloca %"union.std::_Any_data"*, align 8
  store %"union.std::_Any_data"* %0, %"union.std::_Any_data"** %2, align 8
  %3 = load %"union.std::_Any_data"*, %"union.std::_Any_data"** %2, align 8
  %4 = bitcast %"union.std::_Any_data"* %3 to [16 x i8]*
  %5 = getelementptr inbounds [16 x i8], [16 x i8]* %4, i64 0, i64 0
  ret i8* %5
}

; Function Attrs: mustprogress noinline optnone uwtable
define linkonce_odr dso_local i32 @_ZSt10__invoke_rIiRZN4llvm11ExitOnErrorC1ENSt7__cxx1112basic_stringIcSt11char_traitsIcESaIcEEEiEUlRKNS0_5ErrorEE_JSA_EENSt9enable_ifIXsr6__and_ISt6__not_ISt7is_voidIT_EESt14is_convertibleINSt15__invoke_resultIT0_JDpT1_EE4typeESG_EEE5valueESG_E4typeEOSL_DpOSM_(%class.anon* nonnull align 4 dereferenceable(4) %0, %"class.llvm::Error"* nonnull align 8 dereferenceable(8) %1) #6 comdat {
  %3 = alloca %class.anon*, align 8
  %4 = alloca %"class.llvm::Error"*, align 8
  %5 = alloca %"struct.std::__invoke_other", align 1
  store %class.anon* %0, %class.anon** %3, align 8
  store %"class.llvm::Error"* %1, %"class.llvm::Error"** %4, align 8
  %6 = load %class.anon*, %class.anon** %3, align 8
  %7 = call nonnull align 4 dereferenceable(4) %class.anon* @_ZSt7forwardIRZN4llvm11ExitOnErrorC1ENSt7__cxx1112basic_stringIcSt11char_traitsIcESaIcEEEiEUlRKNS0_5ErrorEE_EOT_RNSt16remove_referenceISD_E4typeE(%class.anon* nonnull align 4 dereferenceable(4) %6) #2
  %8 = load %"class.llvm::Error"*, %"class.llvm::Error"** %4, align 8
  %9 = call nonnull align 8 dereferenceable(8) %"class.llvm::Error"* @_ZSt7forwardIRKN4llvm5ErrorEEOT_RNSt16remove_referenceIS4_E4typeE(%"class.llvm::Error"* nonnull align 8 dereferenceable(8) %8) #2
  %10 = getelementptr inbounds %"struct.std::__invoke_other", %"struct.std::__invoke_other"* %5, i32 0, i32 0
  %11 = load i8, i8* %10, align 1
  %12 = call i32 @_ZSt13__invoke_implIiRZN4llvm11ExitOnErrorC1ENSt7__cxx1112basic_stringIcSt11char_traitsIcESaIcEEEiEUlRKNS0_5ErrorEE_JSA_EET_St14__invoke_otherOT0_DpOT1_(i8 %11, %class.anon* nonnull align 4 dereferenceable(4) %7, %"class.llvm::Error"* nonnull align 8 dereferenceable(8) %9)
  ret i32 %12
}

; Function Attrs: mustprogress noinline optnone uwtable
define linkonce_odr dso_local %class.anon* @_ZNSt14_Function_base13_Base_managerIZN4llvm11ExitOnErrorC1ENSt7__cxx1112basic_stringIcSt11char_traitsIcESaIcEEEiEUlRKNS1_5ErrorEE_E14_M_get_pointerERKSt9_Any_data(%"union.std::_Any_data"* nonnull align 8 dereferenceable(16) %0) #6 comdat align 2 {
  %2 = alloca %"union.std::_Any_data"*, align 8
  %3 = alloca %class.anon*, align 8
  store %"union.std::_Any_data"* %0, %"union.std::_Any_data"** %2, align 8
  %4 = load %"union.std::_Any_data"*, %"union.std::_Any_data"** %2, align 8
  %5 = call nonnull align 4 dereferenceable(4) %class.anon* @_ZNKSt9_Any_data9_M_accessIZN4llvm11ExitOnErrorC1ENSt7__cxx1112basic_stringIcSt11char_traitsIcESaIcEEEiEUlRKNS1_5ErrorEE_EERKT_v(%"union.std::_Any_data"* nonnull align 8 dereferenceable(16) %4)
  store %class.anon* %5, %class.anon** %3, align 8
  %6 = load %class.anon*, %class.anon** %3, align 8
  %7 = call %class.anon* @_ZSt11__addressofIKZN4llvm11ExitOnErrorC1ENSt7__cxx1112basic_stringIcSt11char_traitsIcESaIcEEEiEUlRKNS0_5ErrorEE_EPT_RSD_(%class.anon* nonnull align 4 dereferenceable(4) %6) #2
  ret %class.anon* %7
}

; Function Attrs: mustprogress noinline nounwind optnone uwtable
define linkonce_odr dso_local nonnull align 8 dereferenceable(8) %"class.llvm::Error"* @_ZSt7forwardIRKN4llvm5ErrorEEOT_RNSt16remove_referenceIS4_E4typeE(%"class.llvm::Error"* nonnull align 8 dereferenceable(8) %0) #7 comdat {
  %2 = alloca %"class.llvm::Error"*, align 8
  store %"class.llvm::Error"* %0, %"class.llvm::Error"** %2, align 8
  %3 = load %"class.llvm::Error"*, %"class.llvm::Error"** %2, align 8
  ret %"class.llvm::Error"* %3
}

; Function Attrs: mustprogress noinline optnone uwtable
define linkonce_odr dso_local i32 @_ZSt13__invoke_implIiRZN4llvm11ExitOnErrorC1ENSt7__cxx1112basic_stringIcSt11char_traitsIcESaIcEEEiEUlRKNS0_5ErrorEE_JSA_EET_St14__invoke_otherOT0_DpOT1_(i8 %0, %class.anon* nonnull align 4 dereferenceable(4) %1, %"class.llvm::Error"* nonnull align 8 dereferenceable(8) %2) #6 comdat {
  %4 = alloca %"struct.std::__invoke_other", align 1
  %5 = alloca %class.anon*, align 8
  %6 = alloca %"class.llvm::Error"*, align 8
  %7 = getelementptr inbounds %"struct.std::__invoke_other", %"struct.std::__invoke_other"* %4, i32 0, i32 0
  store i8 %0, i8* %7, align 1
  store %class.anon* %1, %class.anon** %5, align 8
  store %"class.llvm::Error"* %2, %"class.llvm::Error"** %6, align 8
  %8 = load %class.anon*, %class.anon** %5, align 8
  %9 = call nonnull align 4 dereferenceable(4) %class.anon* @_ZSt7forwardIRZN4llvm11ExitOnErrorC1ENSt7__cxx1112basic_stringIcSt11char_traitsIcESaIcEEEiEUlRKNS0_5ErrorEE_EOT_RNSt16remove_referenceISD_E4typeE(%class.anon* nonnull align 4 dereferenceable(4) %8) #2
  %10 = load %"class.llvm::Error"*, %"class.llvm::Error"** %6, align 8
  %11 = call nonnull align 8 dereferenceable(8) %"class.llvm::Error"* @_ZSt7forwardIRKN4llvm5ErrorEEOT_RNSt16remove_referenceIS4_E4typeE(%"class.llvm::Error"* nonnull align 8 dereferenceable(8) %10) #2
  %12 = call i32 @_ZZN4llvm11ExitOnErrorC1ENSt7__cxx1112basic_stringIcSt11char_traitsIcESaIcEEEiENKUlRKNS_5ErrorEE_clES9_(%class.anon* nonnull align 4 dereferenceable(4) %9, %"class.llvm::Error"* nonnull align 8 dereferenceable(8) %11)
  ret i32 %12
}

; Function Attrs: mustprogress noinline nounwind optnone uwtable
define linkonce_odr dso_local nonnull align 4 dereferenceable(4) %class.anon* @_ZSt7forwardIRZN4llvm11ExitOnErrorC1ENSt7__cxx1112basic_stringIcSt11char_traitsIcESaIcEEEiEUlRKNS0_5ErrorEE_EOT_RNSt16remove_referenceISD_E4typeE(%class.anon* nonnull align 4 dereferenceable(4) %0) #7 comdat {
  %2 = alloca %class.anon*, align 8
  store %class.anon* %0, %class.anon** %2, align 8
  %3 = load %class.anon*, %class.anon** %2, align 8
  ret %class.anon* %3
}

; Function Attrs: mustprogress noinline nounwind optnone uwtable
define linkonce_odr dso_local i32 @_ZZN4llvm11ExitOnErrorC1ENSt7__cxx1112basic_stringIcSt11char_traitsIcESaIcEEEiENKUlRKNS_5ErrorEE_clES9_(%class.anon* nonnull align 4 dereferenceable(4) %0, %"class.llvm::Error"* nonnull align 8 dereferenceable(8) %1) #7 comdat align 2 {
  %3 = alloca %class.anon*, align 8
  %4 = alloca %"class.llvm::Error"*, align 8
  store %class.anon* %0, %class.anon** %3, align 8
  store %"class.llvm::Error"* %1, %"class.llvm::Error"** %4, align 8
  %5 = load %class.anon*, %class.anon** %3, align 8
  %6 = getelementptr inbounds %class.anon, %class.anon* %5, i32 0, i32 0
  %7 = load i32, i32* %6, align 4
  ret i32 %7
}

; Function Attrs: mustprogress noinline optnone uwtable
define linkonce_odr dso_local nonnull align 4 dereferenceable(4) %class.anon* @_ZNKSt9_Any_data9_M_accessIZN4llvm11ExitOnErrorC1ENSt7__cxx1112basic_stringIcSt11char_traitsIcESaIcEEEiEUlRKNS1_5ErrorEE_EERKT_v(%"union.std::_Any_data"* nonnull align 8 dereferenceable(16) %0) #6 comdat align 2 {
  %2 = alloca %"union.std::_Any_data"*, align 8
  store %"union.std::_Any_data"* %0, %"union.std::_Any_data"** %2, align 8
  %3 = load %"union.std::_Any_data"*, %"union.std::_Any_data"** %2, align 8
  %4 = call i8* @_ZNKSt9_Any_data9_M_accessEv(%"union.std::_Any_data"* nonnull align 8 dereferenceable(16) %3)
  %5 = bitcast i8* %4 to %class.anon*
  ret %class.anon* %5
}

; Function Attrs: mustprogress noinline nounwind optnone uwtable
define linkonce_odr dso_local %class.anon* @_ZSt11__addressofIKZN4llvm11ExitOnErrorC1ENSt7__cxx1112basic_stringIcSt11char_traitsIcESaIcEEEiEUlRKNS0_5ErrorEE_EPT_RSD_(%class.anon* nonnull align 4 dereferenceable(4) %0) #7 comdat {
  %2 = alloca %class.anon*, align 8
  store %class.anon* %0, %class.anon** %2, align 8
  %3 = load %class.anon*, %class.anon** %2, align 8
  ret %class.anon* %3
}

; Function Attrs: mustprogress noinline nounwind optnone uwtable
define linkonce_odr dso_local i8* @_ZNKSt9_Any_data9_M_accessEv(%"union.std::_Any_data"* nonnull align 8 dereferenceable(16) %0) #7 comdat align 2 {
  %2 = alloca %"union.std::_Any_data"*, align 8
  store %"union.std::_Any_data"* %0, %"union.std::_Any_data"** %2, align 8
  %3 = load %"union.std::_Any_data"*, %"union.std::_Any_data"** %2, align 8
  %4 = bitcast %"union.std::_Any_data"* %3 to [16 x i8]*
  %5 = getelementptr inbounds [16 x i8], [16 x i8]* %4, i64 0, i64 0
  ret i8* %5
}

; Function Attrs: mustprogress noinline nounwind optnone uwtable
define linkonce_odr dso_local nonnull align 8 dereferenceable(8) %"class.std::type_info"** @_ZNSt9_Any_data9_M_accessIPKSt9type_infoEERT_v(%"union.std::_Any_data"* nonnull align 8 dereferenceable(16) %0) #7 comdat align 2 {
  %2 = alloca %"union.std::_Any_data"*, align 8
  store %"union.std::_Any_data"* %0, %"union.std::_Any_data"** %2, align 8
  %3 = load %"union.std::_Any_data"*, %"union.std::_Any_data"** %2, align 8
  %4 = call i8* @_ZNSt9_Any_data9_M_accessEv(%"union.std::_Any_data"* nonnull align 8 dereferenceable(16) %3)
  %5 = bitcast i8* %4 to %"class.std::type_info"**
  ret %"class.std::type_info"** %5
}

; Function Attrs: mustprogress noinline nounwind optnone uwtable
define linkonce_odr dso_local nonnull align 8 dereferenceable(8) %class.anon** @_ZNSt9_Any_data9_M_accessIPZN4llvm11ExitOnErrorC1ENSt7__cxx1112basic_stringIcSt11char_traitsIcESaIcEEEiEUlRKNS1_5ErrorEE_EERT_v(%"union.std::_Any_data"* nonnull align 8 dereferenceable(16) %0) #7 comdat align 2 {
  %2 = alloca %"union.std::_Any_data"*, align 8
  store %"union.std::_Any_data"* %0, %"union.std::_Any_data"** %2, align 8
  %3 = load %"union.std::_Any_data"*, %"union.std::_Any_data"** %2, align 8
  %4 = call i8* @_ZNSt9_Any_data9_M_accessEv(%"union.std::_Any_data"* nonnull align 8 dereferenceable(16) %3)
  %5 = bitcast i8* %4 to %class.anon**
  ret %class.anon** %5
}

; Function Attrs: mustprogress noinline optnone uwtable
define linkonce_odr dso_local zeroext i1 @_ZNSt14_Function_base13_Base_managerIZN4llvm11ExitOnErrorC1ENSt7__cxx1112basic_stringIcSt11char_traitsIcESaIcEEEiEUlRKNS1_5ErrorEE_E10_M_managerERSt9_Any_dataRKSE_St18_Manager_operation(%"union.std::_Any_data"* nonnull align 8 dereferenceable(16) %0, %"union.std::_Any_data"* nonnull align 8 dereferenceable(16) %1, i32 %2) #6 comdat align 2 {
  %4 = alloca %"union.std::_Any_data"*, align 8
  %5 = alloca %"union.std::_Any_data"*, align 8
  %6 = alloca i32, align 4
  %7 = alloca %"struct.std::integral_constant", align 1
  %8 = alloca %"struct.std::integral_constant", align 1
  store %"union.std::_Any_data"* %0, %"union.std::_Any_data"** %4, align 8
  store %"union.std::_Any_data"* %1, %"union.std::_Any_data"** %5, align 8
  store i32 %2, i32* %6, align 4
  %9 = load i32, i32* %6, align 4
  switch i32 %9, label %27 [
    i32 0, label %10
    i32 1, label %13
    i32 2, label %18
    i32 3, label %23
  ]

10:                                               ; preds = %3
  %11 = load %"union.std::_Any_data"*, %"union.std::_Any_data"** %4, align 8
  %12 = call nonnull align 8 dereferenceable(8) %"class.std::type_info"** @_ZNSt9_Any_data9_M_accessIPKSt9type_infoEERT_v(%"union.std::_Any_data"* nonnull align 8 dereferenceable(16) %11)
  store %"class.std::type_info"* bitcast ({ i8*, i8* }* @_ZTIZN4llvm11ExitOnErrorC1ENSt7__cxx1112basic_stringIcSt11char_traitsIcESaIcEEEiEUlRKNS_5ErrorEE_ to %"class.std::type_info"*), %"class.std::type_info"** %12, align 8
  br label %27

13:                                               ; preds = %3
  %14 = load %"union.std::_Any_data"*, %"union.std::_Any_data"** %5, align 8
  %15 = call %class.anon* @_ZNSt14_Function_base13_Base_managerIZN4llvm11ExitOnErrorC1ENSt7__cxx1112basic_stringIcSt11char_traitsIcESaIcEEEiEUlRKNS1_5ErrorEE_E14_M_get_pointerERKSt9_Any_data(%"union.std::_Any_data"* nonnull align 8 dereferenceable(16) %14)
  %16 = load %"union.std::_Any_data"*, %"union.std::_Any_data"** %4, align 8
  %17 = call nonnull align 8 dereferenceable(8) %class.anon** @_ZNSt9_Any_data9_M_accessIPZN4llvm11ExitOnErrorC1ENSt7__cxx1112basic_stringIcSt11char_traitsIcESaIcEEEiEUlRKNS1_5ErrorEE_EERT_v(%"union.std::_Any_data"* nonnull align 8 dereferenceable(16) %16)
  store %class.anon* %15, %class.anon** %17, align 8
  br label %27

18:                                               ; preds = %3
  %19 = load %"union.std::_Any_data"*, %"union.std::_Any_data"** %4, align 8
  %20 = load %"union.std::_Any_data"*, %"union.std::_Any_data"** %5, align 8
  %21 = getelementptr inbounds %"struct.std::integral_constant", %"struct.std::integral_constant"* %7, i32 0, i32 0
  %22 = load i8, i8* %21, align 1
  call void @_ZNSt14_Function_base13_Base_managerIZN4llvm11ExitOnErrorC1ENSt7__cxx1112basic_stringIcSt11char_traitsIcESaIcEEEiEUlRKNS1_5ErrorEE_E8_M_cloneERSt9_Any_dataRKSE_St17integral_constantIbLb1EE(%"union.std::_Any_data"* nonnull align 8 dereferenceable(16) %19, %"union.std::_Any_data"* nonnull align 8 dereferenceable(16) %20, i8 %22)
  br label %27

23:                                               ; preds = %3
  %24 = load %"union.std::_Any_data"*, %"union.std::_Any_data"** %4, align 8
  %25 = getelementptr inbounds %"struct.std::integral_constant", %"struct.std::integral_constant"* %8, i32 0, i32 0
  %26 = load i8, i8* %25, align 1
  call void @_ZNSt14_Function_base13_Base_managerIZN4llvm11ExitOnErrorC1ENSt7__cxx1112basic_stringIcSt11char_traitsIcESaIcEEEiEUlRKNS1_5ErrorEE_E10_M_destroyERSt9_Any_dataSt17integral_constantIbLb1EE(%"union.std::_Any_data"* nonnull align 8 dereferenceable(16) %24, i8 %26)
  br label %27

27:                                               ; preds = %3, %23, %18, %13, %10
  ret i1 false
}

; Function Attrs: mustprogress noinline optnone uwtable
define linkonce_odr dso_local void @_ZNSt14_Function_base13_Base_managerIZN4llvm11ExitOnErrorC1ENSt7__cxx1112basic_stringIcSt11char_traitsIcESaIcEEEiEUlRKNS1_5ErrorEE_E8_M_cloneERSt9_Any_dataRKSE_St17integral_constantIbLb1EE(%"union.std::_Any_data"* nonnull align 8 dereferenceable(16) %0, %"union.std::_Any_data"* nonnull align 8 dereferenceable(16) %1, i8 %2) #6 comdat align 2 {
  %4 = alloca %"struct.std::integral_constant", align 1
  %5 = alloca %"union.std::_Any_data"*, align 8
  %6 = alloca %"union.std::_Any_data"*, align 8
  %7 = getelementptr inbounds %"struct.std::integral_constant", %"struct.std::integral_constant"* %4, i32 0, i32 0
  store i8 %2, i8* %7, align 1
  store %"union.std::_Any_data"* %0, %"union.std::_Any_data"** %5, align 8
  store %"union.std::_Any_data"* %1, %"union.std::_Any_data"** %6, align 8
  %8 = load %"union.std::_Any_data"*, %"union.std::_Any_data"** %5, align 8
  %9 = call i8* @_ZNSt9_Any_data9_M_accessEv(%"union.std::_Any_data"* nonnull align 8 dereferenceable(16) %8)
  %10 = bitcast i8* %9 to %class.anon*
  %11 = load %"union.std::_Any_data"*, %"union.std::_Any_data"** %6, align 8
  %12 = call nonnull align 4 dereferenceable(4) %class.anon* @_ZNKSt9_Any_data9_M_accessIZN4llvm11ExitOnErrorC1ENSt7__cxx1112basic_stringIcSt11char_traitsIcESaIcEEEiEUlRKNS1_5ErrorEE_EERKT_v(%"union.std::_Any_data"* nonnull align 8 dereferenceable(16) %11)
  %13 = bitcast %class.anon* %10 to i8*
  %14 = bitcast %class.anon* %12 to i8*
  call void @llvm.memcpy.p0i8.p0i8.i64(i8* align 4 %13, i8* align 4 %14, i64 4, i1 false)
  ret void
}

; Function Attrs: mustprogress noinline optnone uwtable
define linkonce_odr dso_local void @_ZNSt14_Function_base13_Base_managerIZN4llvm11ExitOnErrorC1ENSt7__cxx1112basic_stringIcSt11char_traitsIcESaIcEEEiEUlRKNS1_5ErrorEE_E10_M_destroyERSt9_Any_dataSt17integral_constantIbLb1EE(%"union.std::_Any_data"* nonnull align 8 dereferenceable(16) %0, i8 %1) #6 comdat align 2 {
  %3 = alloca %"struct.std::integral_constant", align 1
  %4 = alloca %"union.std::_Any_data"*, align 8
  %5 = getelementptr inbounds %"struct.std::integral_constant", %"struct.std::integral_constant"* %3, i32 0, i32 0
  store i8 %1, i8* %5, align 1
  store %"union.std::_Any_data"* %0, %"union.std::_Any_data"** %4, align 8
  %6 = load %"union.std::_Any_data"*, %"union.std::_Any_data"** %4, align 8
  %7 = call nonnull align 4 dereferenceable(4) %class.anon* @_ZNSt9_Any_data9_M_accessIZN4llvm11ExitOnErrorC1ENSt7__cxx1112basic_stringIcSt11char_traitsIcESaIcEEEiEUlRKNS1_5ErrorEE_EERT_v(%"union.std::_Any_data"* nonnull align 8 dereferenceable(16) %6)
  ret void
}

; Function Attrs: mustprogress noinline nounwind optnone uwtable
define linkonce_odr dso_local nonnull align 4 dereferenceable(4) %class.anon* @_ZNSt9_Any_data9_M_accessIZN4llvm11ExitOnErrorC1ENSt7__cxx1112basic_stringIcSt11char_traitsIcESaIcEEEiEUlRKNS1_5ErrorEE_EERT_v(%"union.std::_Any_data"* nonnull align 8 dereferenceable(16) %0) #7 comdat align 2 {
  %2 = alloca %"union.std::_Any_data"*, align 8
  store %"union.std::_Any_data"* %0, %"union.std::_Any_data"** %2, align 8
  %3 = load %"union.std::_Any_data"*, %"union.std::_Any_data"** %2, align 8
  %4 = call i8* @_ZNSt9_Any_data9_M_accessEv(%"union.std::_Any_data"* nonnull align 8 dereferenceable(16) %3)
  %5 = bitcast i8* %4 to %class.anon*
  ret %class.anon* %5
}

; Function Attrs: noinline nounwind optnone uwtable
define linkonce_odr dso_local void @_ZNSt8functionIFiRKN4llvm5ErrorEEED2Ev(%"class.std::function"* nonnull align 8 dereferenceable(32) %0) unnamed_addr #3 comdat align 2 {
  %2 = alloca %"class.std::function"*, align 8
  store %"class.std::function"* %0, %"class.std::function"** %2, align 8
  %3 = load %"class.std::function"*, %"class.std::function"** %2, align 8
  %4 = bitcast %"class.std::function"* %3 to %"class.std::_Function_base"*
  call void @_ZNSt14_Function_baseD2Ev(%"class.std::_Function_base"* nonnull align 8 dereferenceable(24) %4) #2
  ret void
}

; Function Attrs: noinline nounwind optnone uwtable
define internal void @_ZNSt10unique_ptrIN12_GLOBAL__N_17ExprASTESt14default_deleteIS1_EEC2IS3_vEEDn(%"class.std::unique_ptr.109"* nonnull align 8 dereferenceable(8) %0, i8* %1) unnamed_addr #3 align 2 {
  %3 = alloca %"class.std::unique_ptr.109"*, align 8
  %4 = alloca i8*, align 8
  store %"class.std::unique_ptr.109"* %0, %"class.std::unique_ptr.109"** %3, align 8
  store i8* %1, i8** %4, align 8
  %5 = load %"class.std::unique_ptr.109"*, %"class.std::unique_ptr.109"** %3, align 8
  %6 = getelementptr inbounds %"class.std::unique_ptr.109", %"class.std::unique_ptr.109"* %5, i32 0, i32 0
  %7 = bitcast %"struct.std::__uniq_ptr_data.110"* %6 to i8*
  call void @llvm.memset.p0i8.i64(i8* align 8 %7, i8 0, i64 8, i1 false)
  call void @_ZNSt15__uniq_ptr_dataIN12_GLOBAL__N_17ExprASTESt14default_deleteIS1_ELb1ELb1EEC2Ev(%"struct.std::__uniq_ptr_data.110"* nonnull align 8 dereferenceable(8) %6) #2
  ret void
}

; Function Attrs: argmemonly nofree nounwind willreturn writeonly
declare void @llvm.memset.p0i8.i64(i8* nocapture writeonly, i8, i64, i1 immarg) #12

; Function Attrs: noinline nounwind optnone uwtable
define internal void @_ZNSt15__uniq_ptr_dataIN12_GLOBAL__N_17ExprASTESt14default_deleteIS1_ELb1ELb1EEC2Ev(%"struct.std::__uniq_ptr_data.110"* nonnull align 8 dereferenceable(8) %0) unnamed_addr #3 align 2 {
  %2 = alloca %"struct.std::__uniq_ptr_data.110"*, align 8
  store %"struct.std::__uniq_ptr_data.110"* %0, %"struct.std::__uniq_ptr_data.110"** %2, align 8
  %3 = load %"struct.std::__uniq_ptr_data.110"*, %"struct.std::__uniq_ptr_data.110"** %2, align 8
  %4 = bitcast %"struct.std::__uniq_ptr_data.110"* %3 to %"class.std::__uniq_ptr_impl.111"*
  call void @_ZNSt15__uniq_ptr_implIN12_GLOBAL__N_17ExprASTESt14default_deleteIS1_EEC2Ev(%"class.std::__uniq_ptr_impl.111"* nonnull align 8 dereferenceable(8) %4) #2
  ret void
}

; Function Attrs: noinline nounwind optnone uwtable
define internal void @_ZNSt15__uniq_ptr_implIN12_GLOBAL__N_17ExprASTESt14default_deleteIS1_EEC2Ev(%"class.std::__uniq_ptr_impl.111"* nonnull align 8 dereferenceable(8) %0) unnamed_addr #3 align 2 {
  %2 = alloca %"class.std::__uniq_ptr_impl.111"*, align 8
  store %"class.std::__uniq_ptr_impl.111"* %0, %"class.std::__uniq_ptr_impl.111"** %2, align 8
  %3 = load %"class.std::__uniq_ptr_impl.111"*, %"class.std::__uniq_ptr_impl.111"** %2, align 8
  %4 = getelementptr inbounds %"class.std::__uniq_ptr_impl.111", %"class.std::__uniq_ptr_impl.111"* %3, i32 0, i32 0
  call void @_ZNSt5tupleIJPN12_GLOBAL__N_17ExprASTESt14default_deleteIS1_EEEC2ILb1ELb1EEEv(%"class.std::tuple.112"* nonnull align 8 dereferenceable(8) %4) #2
  ret void
}

; Function Attrs: noinline nounwind optnone uwtable
define internal void @_ZNSt5tupleIJPN12_GLOBAL__N_17ExprASTESt14default_deleteIS1_EEEC2ILb1ELb1EEEv(%"class.std::tuple.112"* nonnull align 8 dereferenceable(8) %0) unnamed_addr #3 align 2 personality i8* bitcast (i32 (...)* @__gxx_personality_seh0 to i8*) {
  %2 = alloca %"class.std::tuple.112"*, align 8
  store %"class.std::tuple.112"* %0, %"class.std::tuple.112"** %2, align 8
  %3 = load %"class.std::tuple.112"*, %"class.std::tuple.112"** %2, align 8
  %4 = bitcast %"class.std::tuple.112"* %3 to %"struct.std::_Tuple_impl.113"*
  invoke void @_ZNSt11_Tuple_implILy0EJPN12_GLOBAL__N_17ExprASTESt14default_deleteIS1_EEEC2Ev(%"struct.std::_Tuple_impl.113"* nonnull align 8 dereferenceable(8) %4)
          to label %5 unwind label %6

5:                                                ; preds = %1
  ret void

6:                                                ; preds = %1
  %7 = landingpad { i8*, i32 }
          catch i8* null
  %8 = extractvalue { i8*, i32 } %7, 0
  call void @__clang_call_terminate(i8* %8) #21
  unreachable
}

; Function Attrs: noinline optnone uwtable
define internal void @_ZNSt11_Tuple_implILy0EJPN12_GLOBAL__N_17ExprASTESt14default_deleteIS1_EEEC2Ev(%"struct.std::_Tuple_impl.113"* nonnull align 8 dereferenceable(8) %0) unnamed_addr #5 align 2 {
  %2 = alloca %"struct.std::_Tuple_impl.113"*, align 8
  store %"struct.std::_Tuple_impl.113"* %0, %"struct.std::_Tuple_impl.113"** %2, align 8
  %3 = load %"struct.std::_Tuple_impl.113"*, %"struct.std::_Tuple_impl.113"** %2, align 8
  %4 = bitcast %"struct.std::_Tuple_impl.113"* %3 to %"struct.std::_Tuple_impl.114"*
  call void @_ZNSt11_Tuple_implILy1EJSt14default_deleteIN12_GLOBAL__N_17ExprASTEEEEC2Ev(%"struct.std::_Tuple_impl.114"* nonnull align 1 dereferenceable(1) %4)
  %5 = bitcast %"struct.std::_Tuple_impl.113"* %3 to %"struct.std::_Head_base.116"*
  call void @_ZNSt10_Head_baseILy0EPN12_GLOBAL__N_17ExprASTELb0EEC2Ev(%"struct.std::_Head_base.116"* nonnull align 8 dereferenceable(8) %5)
  ret void
}

; Function Attrs: noinline optnone uwtable
define internal void @_ZNSt11_Tuple_implILy1EJSt14default_deleteIN12_GLOBAL__N_17ExprASTEEEEC2Ev(%"struct.std::_Tuple_impl.114"* nonnull align 1 dereferenceable(1) %0) unnamed_addr #5 align 2 {
  %2 = alloca %"struct.std::_Tuple_impl.114"*, align 8
  store %"struct.std::_Tuple_impl.114"* %0, %"struct.std::_Tuple_impl.114"** %2, align 8
  %3 = load %"struct.std::_Tuple_impl.114"*, %"struct.std::_Tuple_impl.114"** %2, align 8
  %4 = bitcast %"struct.std::_Tuple_impl.114"* %3 to %"struct.std::_Head_base.115"*
  call void @_ZNSt10_Head_baseILy1ESt14default_deleteIN12_GLOBAL__N_17ExprASTEELb1EEC2Ev(%"struct.std::_Head_base.115"* nonnull align 1 dereferenceable(1) %4)
  ret void
}

; Function Attrs: noinline nounwind optnone uwtable
define internal void @_ZNSt10_Head_baseILy0EPN12_GLOBAL__N_17ExprASTELb0EEC2Ev(%"struct.std::_Head_base.116"* nonnull align 8 dereferenceable(8) %0) unnamed_addr #3 align 2 {
  %2 = alloca %"struct.std::_Head_base.116"*, align 8
  store %"struct.std::_Head_base.116"* %0, %"struct.std::_Head_base.116"** %2, align 8
  %3 = load %"struct.std::_Head_base.116"*, %"struct.std::_Head_base.116"** %2, align 8
  %4 = getelementptr inbounds %"struct.std::_Head_base.116", %"struct.std::_Head_base.116"* %3, i32 0, i32 0
  store %"class.(anonymous namespace)::ExprAST"* null, %"class.(anonymous namespace)::ExprAST"** %4, align 8
  ret void
}

; Function Attrs: noinline nounwind optnone uwtable
define internal void @_ZNSt10_Head_baseILy1ESt14default_deleteIN12_GLOBAL__N_17ExprASTEELb1EEC2Ev(%"struct.std::_Head_base.115"* nonnull align 1 dereferenceable(1) %0) unnamed_addr #3 align 2 {
  %2 = alloca %"struct.std::_Head_base.115"*, align 8
  store %"struct.std::_Head_base.115"* %0, %"struct.std::_Head_base.115"** %2, align 8
  %3 = load %"struct.std::_Head_base.115"*, %"struct.std::_Head_base.115"** %2, align 8
  %4 = bitcast %"struct.std::_Head_base.115"* %3 to %"struct.std::default_delete.263"*
  ret void
}

; Function Attrs: nounwind
declare dso_local i8* @_ZNKSt7__cxx1112basic_stringIcSt11char_traitsIcESaIcEE4dataEv(%"class.std::__cxx11::basic_string"* nonnull align 8 dereferenceable(32)) #1

; Function Attrs: nounwind
declare dso_local i64 @_ZNKSt7__cxx1112basic_stringIcSt11char_traitsIcESaIcEE6lengthEv(%"class.std::__cxx11::basic_string"* nonnull align 8 dereferenceable(32)) #1

; Function Attrs: mustprogress noinline nounwind optnone uwtable
define linkonce_odr dso_local i64 @_ZNKSt6vectorINSt7__cxx1112basic_stringIcSt11char_traitsIcESaIcEEESaIS5_EE4sizeEv(%"class.std::vector"* nonnull align 8 dereferenceable(24) %0) #7 comdat align 2 {
  %2 = alloca %"class.std::vector"*, align 8
  store %"class.std::vector"* %0, %"class.std::vector"** %2, align 8
  %3 = load %"class.std::vector"*, %"class.std::vector"** %2, align 8
  %4 = bitcast %"class.std::vector"* %3 to %"struct.std::_Vector_base"*
  %5 = getelementptr inbounds %"struct.std::_Vector_base", %"struct.std::_Vector_base"* %4, i32 0, i32 0
  %6 = bitcast %"struct.std::_Vector_base<std::__cxx11::basic_string<char>, std::allocator<std::__cxx11::basic_string<char>>>::_Vector_impl"* %5 to %"struct.std::_Vector_base<std::__cxx11::basic_string<char>, std::allocator<std::__cxx11::basic_string<char>>>::_Vector_impl_data"*
  %7 = getelementptr inbounds %"struct.std::_Vector_base<std::__cxx11::basic_string<char>, std::allocator<std::__cxx11::basic_string<char>>>::_Vector_impl_data", %"struct.std::_Vector_base<std::__cxx11::basic_string<char>, std::allocator<std::__cxx11::basic_string<char>>>::_Vector_impl_data"* %6, i32 0, i32 1
  %8 = load %"class.std::__cxx11::basic_string"*, %"class.std::__cxx11::basic_string"** %7, align 8
  %9 = bitcast %"class.std::vector"* %3 to %"struct.std::_Vector_base"*
  %10 = getelementptr inbounds %"struct.std::_Vector_base", %"struct.std::_Vector_base"* %9, i32 0, i32 0
  %11 = bitcast %"struct.std::_Vector_base<std::__cxx11::basic_string<char>, std::allocator<std::__cxx11::basic_string<char>>>::_Vector_impl"* %10 to %"struct.std::_Vector_base<std::__cxx11::basic_string<char>, std::allocator<std::__cxx11::basic_string<char>>>::_Vector_impl_data"*
  %12 = getelementptr inbounds %"struct.std::_Vector_base<std::__cxx11::basic_string<char>, std::allocator<std::__cxx11::basic_string<char>>>::_Vector_impl_data", %"struct.std::_Vector_base<std::__cxx11::basic_string<char>, std::allocator<std::__cxx11::basic_string<char>>>::_Vector_impl_data"* %11, i32 0, i32 0
  %13 = load %"class.std::__cxx11::basic_string"*, %"class.std::__cxx11::basic_string"** %12, align 8
  %14 = ptrtoint %"class.std::__cxx11::basic_string"* %8 to i64
  %15 = ptrtoint %"class.std::__cxx11::basic_string"* %13 to i64
  %16 = sub i64 %14, %15
  %17 = sdiv exact i64 %16, 32
  ret i64 %17
}

declare dso_local %"class.llvm::Type"* @_ZN4llvm4Type11getDoubleTyERNS_11LLVMContextE(%"class.llvm::LLVMContext"* nonnull align 8 dereferenceable(8)) #4

; Function Attrs: mustprogress noinline nounwind optnone uwtable
define linkonce_odr dso_local nonnull align 8 dereferenceable(8) %"class.llvm::LLVMContext"* @_ZNKSt10unique_ptrIN4llvm11LLVMContextESt14default_deleteIS1_EEdeEv(%"class.std::unique_ptr"* nonnull align 8 dereferenceable(8) %0) #7 comdat align 2 {
  %2 = alloca %"class.std::unique_ptr"*, align 8
  store %"class.std::unique_ptr"* %0, %"class.std::unique_ptr"** %2, align 8
  %3 = load %"class.std::unique_ptr"*, %"class.std::unique_ptr"** %2, align 8
  br label %4

4:                                                ; preds = %1
  br label %5

5:                                                ; preds = %4
  %6 = call %"class.llvm::LLVMContext"* @_ZNKSt10unique_ptrIN4llvm11LLVMContextESt14default_deleteIS1_EE3getEv(%"class.std::unique_ptr"* nonnull align 8 dereferenceable(8) %3) #2
  ret %"class.llvm::LLVMContext"* %6
}

; Function Attrs: noinline nounwind optnone uwtable
define linkonce_odr dso_local void @_ZNSaIPN4llvm4TypeEEC2Ev(%"class.std::allocator.267"* nonnull align 1 dereferenceable(1) %0) unnamed_addr #3 comdat align 2 {
  %2 = alloca %"class.std::allocator.267"*, align 8
  store %"class.std::allocator.267"* %0, %"class.std::allocator.267"** %2, align 8
  %3 = load %"class.std::allocator.267"*, %"class.std::allocator.267"** %2, align 8
  %4 = bitcast %"class.std::allocator.267"* %3 to %"class.__gnu_cxx::new_allocator.268"*
  call void @_ZN9__gnu_cxx13new_allocatorIPN4llvm4TypeEEC2Ev(%"class.__gnu_cxx::new_allocator.268"* nonnull align 1 dereferenceable(1) %4) #2
  ret void
}

; Function Attrs: noinline optnone uwtable
define linkonce_odr dso_local void @_ZNSt6vectorIPN4llvm4TypeESaIS2_EEC2EyRKS2_RKS3_(%"class.std::vector.265"* nonnull align 8 dereferenceable(24) %0, i64 %1, %"class.llvm::Type"** nonnull align 8 dereferenceable(8) %2, %"class.std::allocator.267"* nonnull align 1 dereferenceable(1) %3) unnamed_addr #5 comdat align 2 personality i8* bitcast (i32 (...)* @__gxx_personality_seh0 to i8*) {
  %5 = alloca %"class.std::vector.265"*, align 8
  %6 = alloca i64, align 8
  %7 = alloca %"class.llvm::Type"**, align 8
  %8 = alloca %"class.std::allocator.267"*, align 8
  %9 = alloca i8*, align 8
  %10 = alloca i32, align 4
  store %"class.std::vector.265"* %0, %"class.std::vector.265"** %5, align 8
  store i64 %1, i64* %6, align 8
  store %"class.llvm::Type"** %2, %"class.llvm::Type"*** %7, align 8
  store %"class.std::allocator.267"* %3, %"class.std::allocator.267"** %8, align 8
  %11 = load %"class.std::vector.265"*, %"class.std::vector.265"** %5, align 8
  %12 = bitcast %"class.std::vector.265"* %11 to %"struct.std::_Vector_base.266"*
  %13 = load i64, i64* %6, align 8
